
build/ch.elf:     file format elf32-littlearm


Disassembly of section .vectors:

08000000 <__vectors_base__>:
 8000000:	20000400 	.word	0x20000400
 8000004:	080002d9 	.word	0x080002d9
 8000008:	080002db 	.word	0x080002db
 800000c:	080002db 	.word	0x080002db
 8000010:	080002db 	.word	0x080002db
 8000014:	080002db 	.word	0x080002db
 8000018:	080002db 	.word	0x080002db
 800001c:	080002db 	.word	0x080002db
 8000020:	080002db 	.word	0x080002db
 8000024:	080002db 	.word	0x080002db
 8000028:	080002db 	.word	0x080002db
 800002c:	080060e1 	.word	0x080060e1
 8000030:	080002db 	.word	0x080002db
 8000034:	080002db 	.word	0x080002db
 8000038:	080002db 	.word	0x080002db
 800003c:	080002db 	.word	0x080002db
 8000040:	080002db 	.word	0x080002db
 8000044:	080002db 	.word	0x080002db
 8000048:	080002db 	.word	0x080002db
 800004c:	080002db 	.word	0x080002db
 8000050:	080002db 	.word	0x080002db
 8000054:	080002db 	.word	0x080002db
 8000058:	080046a1 	.word	0x080046a1
 800005c:	08004791 	.word	0x08004791
 8000060:	08004881 	.word	0x08004881
 8000064:	08004971 	.word	0x08004971
 8000068:	08004a61 	.word	0x08004a61
 800006c:	080002db 	.word	0x080002db
 8000070:	080002db 	.word	0x080002db
 8000074:	080002db 	.word	0x080002db
 8000078:	080002db 	.word	0x080002db
 800007c:	080002db 	.word	0x080002db
 8000080:	080002db 	.word	0x080002db
 8000084:	080002db 	.word	0x080002db
 8000088:	080002db 	.word	0x080002db
 800008c:	080002db 	.word	0x080002db
 8000090:	080002db 	.word	0x080002db
 8000094:	080002db 	.word	0x080002db
 8000098:	080002db 	.word	0x080002db
 800009c:	08004b51 	.word	0x08004b51
 80000a0:	08004da1 	.word	0x08004da1
 80000a4:	08004e61 	.word	0x08004e61
 80000a8:	08004f31 	.word	0x08004f31
 80000ac:	08004ff1 	.word	0x08004ff1
 80000b0:	080050c1 	.word	0x080050c1
 80000b4:	080002db 	.word	0x080002db
 80000b8:	080002db 	.word	0x080002db
 80000bc:	080002db 	.word	0x080002db
 80000c0:	080002db 	.word	0x080002db
 80000c4:	080002db 	.word	0x080002db
 80000c8:	080002db 	.word	0x080002db
 80000cc:	080002db 	.word	0x080002db
 80000d0:	080002db 	.word	0x080002db
 80000d4:	080002db 	.word	0x080002db
 80000d8:	080002db 	.word	0x080002db
 80000dc:	080002db 	.word	0x080002db
 80000e0:	08004c71 	.word	0x08004c71
 80000e4:	080002db 	.word	0x080002db
 80000e8:	080002db 	.word	0x080002db
 80000ec:	080002db 	.word	0x080002db
 80000f0:	080002db 	.word	0x080002db
 80000f4:	080002db 	.word	0x080002db
 80000f8:	080002db 	.word	0x080002db
 80000fc:	080002db 	.word	0x080002db
 8000100:	080002db 	.word	0x080002db
 8000104:	080002db 	.word	0x080002db
 8000108:	080002db 	.word	0x080002db
 800010c:	080002db 	.word	0x080002db
 8000110:	080002db 	.word	0x080002db
 8000114:	080002db 	.word	0x080002db
 8000118:	080002db 	.word	0x080002db
 800011c:	080002db 	.word	0x080002db
 8000120:	080002db 	.word	0x080002db
 8000124:	080002db 	.word	0x080002db
 8000128:	080002db 	.word	0x080002db
 800012c:	080002db 	.word	0x080002db
 8000130:	080002db 	.word	0x080002db
 8000134:	080002db 	.word	0x080002db
 8000138:	080002db 	.word	0x080002db
 800013c:	080002db 	.word	0x080002db
 8000140:	080002db 	.word	0x080002db
 8000144:	080002db 	.word	0x080002db
 8000148:	080002db 	.word	0x080002db
 800014c:	080052e1 	.word	0x080052e1
 8000150:	080002db 	.word	0x080002db
 8000154:	080002db 	.word	0x080002db
 8000158:	080002db 	.word	0x080002db
 800015c:	080002db 	.word	0x080002db
 8000160:	080002db 	.word	0x080002db
 8000164:	080002db 	.word	0x080002db
 8000168:	080002db 	.word	0x080002db
 800016c:	080002db 	.word	0x080002db
 8000170:	080002db 	.word	0x080002db
 8000174:	080002db 	.word	0x080002db
 8000178:	080002db 	.word	0x080002db
 800017c:	080002db 	.word	0x080002db
 8000180:	080002db 	.word	0x080002db
 8000184:	080002db 	.word	0x080002db
 8000188:	080002db 	.word	0x080002db
 800018c:	080002db 	.word	0x080002db
 8000190:	080002db 	.word	0x080002db
 8000194:	080002db 	.word	0x080002db
 8000198:	080002db 	.word	0x080002db
 800019c:	080002db 	.word	0x080002db
 80001a0:	080002db 	.word	0x080002db
 80001a4:	080002db 	.word	0x080002db
 80001a8:	080002db 	.word	0x080002db
 80001ac:	080002db 	.word	0x080002db
 80001b0:	080002db 	.word	0x080002db
 80001b4:	080002db 	.word	0x080002db
 80001b8:	080002db 	.word	0x080002db
 80001bc:	080002db 	.word	0x080002db
 80001c0:	080002db 	.word	0x080002db
 80001c4:	080002db 	.word	0x080002db
 80001c8:	080002db 	.word	0x080002db
 80001cc:	080002db 	.word	0x080002db
 80001d0:	080002db 	.word	0x080002db
 80001d4:	080002db 	.word	0x080002db
 80001d8:	080002db 	.word	0x080002db
 80001dc:	080002db 	.word	0x080002db

Disassembly of section .text:

08000200 <_crt0_entry>:
                .align  2
                .thumb_func
                .global _crt0_entry
_crt0_entry:
                /* Interrupts are globally masked initially.*/
                cpsid   i
 8000200:	b672      	cpsid	i

#if CRT0_FORCE_MSP_INIT == TRUE
                /* MSP stack pointers initialization.*/
                ldr     r0, =__main_stack_end__
 8000202:	4826      	ldr	r0, [pc, #152]	; (800029c <endfiniloop+0x6>)
                msr     MSP, r0
 8000204:	f380 8808 	msr	MSP, r0
#endif

                /* PSP stack pointers initialization.*/
                ldr     r0, =__process_stack_end__
 8000208:	4825      	ldr	r0, [pc, #148]	; (80002a0 <endfiniloop+0xa>)
                msr     PSP, r0
 800020a:	f380 8809 	msr	PSP, r0

#if CRT0_VTOR_INIT == TRUE
                /* Initial VTOR position enforced.*/
                ldr     r0, =_vectors
 800020e:	4825      	ldr	r0, [pc, #148]	; (80002a4 <endfiniloop+0xe>)
                ldr     r1, =SCB_VTOR
 8000210:	4925      	ldr	r1, [pc, #148]	; (80002a8 <endfiniloop+0x12>)
                str     r0, [r1]
 8000212:	6008      	str	r0, [r1, #0]

                /* Enforcing FPCA bit in the CONTROL register.*/
                movs    r0, #CRT0_CONTROL_INIT | CONTROL_FPCA

#else
                movs    r0, #CRT0_CONTROL_INIT
 8000214:	2002      	movs	r0, #2
#endif

                /* CONTROL register initialization as configured.*/
                msr     CONTROL, r0
 8000216:	f380 8814 	msr	CONTROL, r0
                isb
 800021a:	f3bf 8f6f 	isb	sy

#if CRT0_INIT_CORE == TRUE
                /* Core initialization.*/
                bl      __cpu_init
 800021e:	f004 f9a7 	bl	8004570 <__cpu_init>
#endif

                /* Early initialization.*/
                bl      __early_init
 8000222:	f005 fab5 	bl	8005790 <__early_init>

#if CRT0_INIT_STACKS == TRUE
                ldr     r0, =CRT0_STACKS_FILL_PATTERN
 8000226:	f04f 3055 	mov.w	r0, #1431655765	; 0x55555555
                /* Main Stack initialization. Note, it assumes that the
                   stack size is a multiple of 4 so the linker file must
                   ensure this.*/
                ldr     r1, =__main_stack_base__
 800022a:	4920      	ldr	r1, [pc, #128]	; (80002ac <endfiniloop+0x16>)
                ldr     r2, =__main_stack_end__
 800022c:	4a1b      	ldr	r2, [pc, #108]	; (800029c <endfiniloop+0x6>)

0800022e <msloop>:
msloop:
                cmp     r1, r2
 800022e:	4291      	cmp	r1, r2
                itt     lo
 8000230:	bf3c      	itt	cc
                strlo   r0, [r1], #4
 8000232:	f841 0b04 	strcc.w	r0, [r1], #4
                blo     msloop
 8000236:	e7fa      	bcc.n	800022e <msloop>

                /* Process Stack initialization. Note, it assumes that the
                   stack size is a multiple of 4 so the linker file must
                   ensure this.*/
                ldr     r1, =__process_stack_base__
 8000238:	491d      	ldr	r1, [pc, #116]	; (80002b0 <endfiniloop+0x1a>)
                ldr     r2, =__process_stack_end__
 800023a:	4a19      	ldr	r2, [pc, #100]	; (80002a0 <endfiniloop+0xa>)

0800023c <psloop>:
psloop:
                cmp     r1, r2
 800023c:	4291      	cmp	r1, r2
                itt     lo
 800023e:	bf3c      	itt	cc
                strlo   r0, [r1], #4
 8000240:	f841 0b04 	strcc.w	r0, [r1], #4
                blo     psloop
 8000244:	e7fa      	bcc.n	800023c <psloop>

#if CRT0_INIT_DATA == TRUE
                /* Data initialization. Note, it assumes that the DATA
                   size is a multiple of 4 so the linker file must ensure
                   this.*/
                ldr     r1, =__textdata_base__
 8000246:	491b      	ldr	r1, [pc, #108]	; (80002b4 <endfiniloop+0x1e>)
                ldr     r2, =__data_base__
 8000248:	4a1b      	ldr	r2, [pc, #108]	; (80002b8 <endfiniloop+0x22>)
                ldr     r3, =__data_end__
 800024a:	4b1c      	ldr	r3, [pc, #112]	; (80002bc <endfiniloop+0x26>)

0800024c <dloop>:
dloop:
                cmp     r2, r3
 800024c:	429a      	cmp	r2, r3
                ittt    lo
 800024e:	bf3e      	ittt	cc
                ldrlo   r0, [r1], #4
 8000250:	f851 0b04 	ldrcc.w	r0, [r1], #4
                strlo   r0, [r2], #4
 8000254:	f842 0b04 	strcc.w	r0, [r2], #4
                blo     dloop
 8000258:	e7f8      	bcc.n	800024c <dloop>

#if CRT0_INIT_BSS == TRUE
                /* BSS initialization. Note, it assumes that the BSS
                   size is a multiple of 4 so the linker file must ensure
                   this.*/
                movs    r0, #0
 800025a:	2000      	movs	r0, #0
                ldr     r1, =__bss_base__
 800025c:	4918      	ldr	r1, [pc, #96]	; (80002c0 <endfiniloop+0x2a>)
                ldr     r2, =__bss_end__
 800025e:	4a19      	ldr	r2, [pc, #100]	; (80002c4 <endfiniloop+0x2e>)

08000260 <bloop>:
bloop:
                cmp     r1, r2
 8000260:	4291      	cmp	r1, r2
                itt     lo
 8000262:	bf3c      	itt	cc
                strlo   r0, [r1], #4
 8000264:	f841 0b04 	strcc.w	r0, [r1], #4
                blo     bloop
 8000268:	e7fa      	bcc.n	8000260 <bloop>
#endif

#if CRT0_INIT_RAM_AREAS == TRUE
                /* RAM areas initialization.*/
                bl      __init_ram_areas
 800026a:	f004 f999 	bl	80045a0 <__init_ram_areas>
#endif

                /* Late initialization..*/
                bl      __late_init
 800026e:	f004 f987 	bl	8004580 <__late_init>

#if CRT0_CALL_CONSTRUCTORS == TRUE
                /* Constructors invocation.*/
                ldr     r4, =__init_array_base__
 8000272:	4c15      	ldr	r4, [pc, #84]	; (80002c8 <endfiniloop+0x32>)
                ldr     r5, =__init_array_end__
 8000274:	4d15      	ldr	r5, [pc, #84]	; (80002cc <endfiniloop+0x36>)

08000276 <initloop>:
initloop:
                cmp     r4, r5
 8000276:	42ac      	cmp	r4, r5
                bge     endinitloop
 8000278:	da03      	bge.n	8000282 <endinitloop>
                ldr     r1, [r4], #4
 800027a:	f854 1b04 	ldr.w	r1, [r4], #4
                blx     r1
 800027e:	4788      	blx	r1
                b       initloop
 8000280:	e7f9      	b.n	8000276 <initloop>

08000282 <endinitloop>:
endinitloop:
#endif

                /* Main program invocation, r0 contains the returned value.*/
                bl      main
 8000282:	f005 ff3d 	bl	8006100 <main>

#if CRT0_CALL_DESTRUCTORS == TRUE
                /* Destructors invocation.*/
                ldr     r4, =__fini_array_base__
 8000286:	4c12      	ldr	r4, [pc, #72]	; (80002d0 <endfiniloop+0x3a>)
                ldr     r5, =__fini_array_end__
 8000288:	4d12      	ldr	r5, [pc, #72]	; (80002d4 <endfiniloop+0x3e>)

0800028a <finiloop>:
finiloop:
                cmp     r4, r5
 800028a:	42ac      	cmp	r4, r5
                bge     endfiniloop
 800028c:	da03      	bge.n	8000296 <endfiniloop>
                ldr     r1, [r4], #4
 800028e:	f854 1b04 	ldr.w	r1, [r4], #4
                blx     r1
 8000292:	4788      	blx	r1
                b       finiloop
 8000294:	e7f9      	b.n	800028a <finiloop>

08000296 <endfiniloop>:
endfiniloop:
#endif

                /* Branching to the defined exit handler.*/
                b       __default_exit
 8000296:	f004 b97b 	b.w	8004590 <__default_exit>
 800029a:	0000      	.short	0x0000
                ldr     r0, =__main_stack_end__
 800029c:	20000400 	.word	0x20000400
                ldr     r0, =__process_stack_end__
 80002a0:	20000800 	.word	0x20000800
                ldr     r0, =_vectors
 80002a4:	08000000 	.word	0x08000000
                ldr     r1, =SCB_VTOR
 80002a8:	e000ed08 	.word	0xe000ed08
                ldr     r1, =__main_stack_base__
 80002ac:	20000000 	.word	0x20000000
                ldr     r1, =__process_stack_base__
 80002b0:	20000400 	.word	0x20000400
                ldr     r1, =__textdata_base__
 80002b4:	08008544 	.word	0x08008544
                ldr     r2, =__data_base__
 80002b8:	20000800 	.word	0x20000800
                ldr     r3, =__data_end__
 80002bc:	20000934 	.word	0x20000934
                ldr     r1, =__bss_base__
 80002c0:	20000938 	.word	0x20000938
                ldr     r2, =__bss_end__
 80002c4:	20002188 	.word	0x20002188
                ldr     r4, =__init_array_base__
 80002c8:	080001e0 	.word	0x080001e0
                ldr     r5, =__init_array_end__
 80002cc:	080001e0 	.word	0x080001e0
                ldr     r4, =__fini_array_base__
 80002d0:	080001e0 	.word	0x080001e0
                ldr     r5, =__fini_array_end__
 80002d4:	080001e0 	.word	0x080001e0

080002d8 <Reset_Handler>:

        .align      2
        .thumb_func
        .weak       Reset_Handler
Reset_Handler:
         b          _crt0_entry
 80002d8:	e792      	b.n	8000200 <_crt0_entry>

080002da <BusFault_Handler>:
        .thumb_func
Vector3F8:
        .thumb_func
Vector3FC:
#endif
        bl          _unhandled_exception
 80002da:	f000 f800 	bl	80002de <_unhandled_exception>

080002de <_unhandled_exception>:

        .thumb_func
        .weak       _unhandled_exception
_unhandled_exception:
.stay:
        b           .stay
 80002de:	e7fe      	b.n	80002de <_unhandled_exception>

080002e0 <__port_switch>:
 * Performs a context switch between two threads.
 *--------------------------------------------------------------------------*/
                .thumb_func
                .globl  __port_switch
__port_switch:
                push    {r4, r5, r6, r7, r8, r9, r10, r11, lr}
 80002e0:	e92d 4ff0 	stmdb	sp!, {r4, r5, r6, r7, r8, r9, sl, fp, lr}
#if CORTEX_USE_FPU
                /* Saving FPU context.*/
                vpush   {s16-s31}
#endif

                str     sp, [r1, #CONTEXT_OFFSET]
 80002e4:	f8c1 d00c 	str.w	sp, [r1, #12]
#if (CORTEX_SIMPLIFIED_PRIORITY == FALSE) &&                                \
    ((CORTEX_MODEL == 3) || (CORTEX_MODEL == 4))
                /* Workaround for ARM errata 752419, only applied if
                   condition exists for it to be triggered.*/
                ldr     r3, [r0, #CONTEXT_OFFSET]
 80002e8:	68c3      	ldr	r3, [r0, #12]
                mov     sp, r3
 80002ea:	469d      	mov	sp, r3

#if CORTEX_USE_FPU
                /* Restoring FPU context.*/
                vpop    {s16-s31}
#endif
                pop     {r4, r5, r6, r7, r8, r9, r10, r11, pc}
 80002ec:	e8bd 8ff0 	ldmia.w	sp!, {r4, r5, r6, r7, r8, r9, sl, fp, pc}

080002f0 <__port_thread_start>:
__port_thread_start:
#if CH_DBG_ENABLE_STACK_CHECK && PORT_ENABLE_GUARD_PAGES
                bl      __port_set_region
#endif
#if CH_DBG_SYSTEM_STATE_CHECK
                bl      __dbg_check_unlock
 80002f0:	f004 f9a6 	bl	8004640 <__dbg_check_unlock>
                bl      __stats_stop_measure_crit_thd
#endif
#if CORTEX_SIMPLIFIED_PRIORITY
                cpsie   i
#else
                movs    r3, #0              /* CORTEX_BASEPRI_DISABLED */
 80002f4:	2300      	movs	r3, #0
                msr     BASEPRI, r3
 80002f6:	f383 8811 	msr	BASEPRI, r3
#endif
                mov     r0, r5
 80002fa:	4628      	mov	r0, r5
                blx     r4
 80002fc:	47a0      	blx	r4
                movs    r0, #0              /* MSG_OK */
 80002fe:	2000      	movs	r0, #0
                bl      chThdExit
 8000300:	f005 fed6 	bl	80060b0 <chThdExit>

08000304 <.zombies>:
.zombies:       b       .zombies
 8000304:	e7fe      	b.n	8000304 <.zombies>

08000306 <__port_switch_from_isr>:
__port_switch_from_isr:
#if CH_DBG_STATISTICS
                bl      __stats_start_measure_crit_thd
#endif
#if CH_DBG_SYSTEM_STATE_CHECK
                bl      __dbg_check_lock
 8000306:	f004 f983 	bl	8004610 <__dbg_check_lock>
#endif
                bl      chSchDoPreemption
 800030a:	f005 fb49 	bl	80059a0 <chSchDoPreemption>
#if CH_DBG_SYSTEM_STATE_CHECK
                bl      __dbg_check_unlock
 800030e:	f004 f997 	bl	8004640 <__dbg_check_unlock>

08000312 <__port_exit_from_isr>:
                movt    r3, #:upper16:SCB_ICSR
                mov     r2, ICSR_PENDSVSET
                str     r2, [r3, #0]
                cpsie   i
#else /* !CORTEX_SIMPLIFIED_PRIORITY */
                svc     #0
 8000312:	df00      	svc	0
#endif /* !CORTEX_SIMPLIFIED_PRIORITY */
.L1:            b       .L1
 8000314:	e7fe      	b.n	8000314 <__port_exit_from_isr+0x2>
	...
 800031e:	0000      	movs	r0, r0
 8000320:	eba2 0003 	sub.w	r0, r2, r3
 8000324:	4770      	bx	lr
 8000326:	bf00      	nop

08000328 <strcmp>:
 8000328:	7802      	ldrb	r2, [r0, #0]
 800032a:	780b      	ldrb	r3, [r1, #0]
 800032c:	2a01      	cmp	r2, #1
 800032e:	bf28      	it	cs
 8000330:	429a      	cmpcs	r2, r3
 8000332:	d1f5      	bne.n	8000320 <__port_exit_from_isr+0xe>
 8000334:	e96d 4504 	strd	r4, r5, [sp, #-16]!
 8000338:	ea40 0401 	orr.w	r4, r0, r1
 800033c:	e9cd 6702 	strd	r6, r7, [sp, #8]
 8000340:	f06f 0c00 	mvn.w	ip, #0
 8000344:	ea4f 7244 	mov.w	r2, r4, lsl #29
 8000348:	b312      	cbz	r2, 8000390 <strcmp+0x68>
 800034a:	ea80 0401 	eor.w	r4, r0, r1
 800034e:	f014 0f07 	tst.w	r4, #7
 8000352:	d16a      	bne.n	800042a <strcmp+0x102>
 8000354:	f000 0407 	and.w	r4, r0, #7
 8000358:	f020 0007 	bic.w	r0, r0, #7
 800035c:	f004 0503 	and.w	r5, r4, #3
 8000360:	f021 0107 	bic.w	r1, r1, #7
 8000364:	ea4f 05c5 	mov.w	r5, r5, lsl #3
 8000368:	e8f0 2304 	ldrd	r2, r3, [r0], #16
 800036c:	f014 0f04 	tst.w	r4, #4
 8000370:	e8f1 6704 	ldrd	r6, r7, [r1], #16
 8000374:	fa0c f405 	lsl.w	r4, ip, r5
 8000378:	ea62 0204 	orn	r2, r2, r4
 800037c:	ea66 0604 	orn	r6, r6, r4
 8000380:	d00a      	beq.n	8000398 <strcmp+0x70>
 8000382:	ea63 0304 	orn	r3, r3, r4
 8000386:	4662      	mov	r2, ip
 8000388:	ea67 0704 	orn	r7, r7, r4
 800038c:	4666      	mov	r6, ip
 800038e:	e003      	b.n	8000398 <strcmp+0x70>
 8000390:	e8f0 2304 	ldrd	r2, r3, [r0], #16
 8000394:	e8f1 6704 	ldrd	r6, r7, [r1], #16
 8000398:	fa82 f54c 	uadd8	r5, r2, ip
 800039c:	ea82 0406 	eor.w	r4, r2, r6
 80003a0:	faa4 f48c 	sel	r4, r4, ip
 80003a4:	bb6c      	cbnz	r4, 8000402 <strcmp+0xda>
 80003a6:	fa83 f54c 	uadd8	r5, r3, ip
 80003aa:	ea83 0507 	eor.w	r5, r3, r7
 80003ae:	faa5 f58c 	sel	r5, r5, ip
 80003b2:	b995      	cbnz	r5, 80003da <strcmp+0xb2>
 80003b4:	e950 2302 	ldrd	r2, r3, [r0, #-8]
 80003b8:	e951 6702 	ldrd	r6, r7, [r1, #-8]
 80003bc:	fa82 f54c 	uadd8	r5, r2, ip
 80003c0:	ea82 0406 	eor.w	r4, r2, r6
 80003c4:	faa4 f48c 	sel	r4, r4, ip
 80003c8:	fa83 f54c 	uadd8	r5, r3, ip
 80003cc:	ea83 0507 	eor.w	r5, r3, r7
 80003d0:	faa5 f58c 	sel	r5, r5, ip
 80003d4:	4325      	orrs	r5, r4
 80003d6:	d0db      	beq.n	8000390 <strcmp+0x68>
 80003d8:	b99c      	cbnz	r4, 8000402 <strcmp+0xda>
 80003da:	ba2d      	rev	r5, r5
 80003dc:	fab5 f485 	clz	r4, r5
 80003e0:	f024 0407 	bic.w	r4, r4, #7
 80003e4:	fa27 f104 	lsr.w	r1, r7, r4
 80003e8:	e9dd 6702 	ldrd	r6, r7, [sp, #8]
 80003ec:	fa23 f304 	lsr.w	r3, r3, r4
 80003f0:	f003 00ff 	and.w	r0, r3, #255	; 0xff
 80003f4:	f001 01ff 	and.w	r1, r1, #255	; 0xff
 80003f8:	e8fd 4504 	ldrd	r4, r5, [sp], #16
 80003fc:	eba0 0001 	sub.w	r0, r0, r1
 8000400:	4770      	bx	lr
 8000402:	ba24      	rev	r4, r4
 8000404:	fab4 f484 	clz	r4, r4
 8000408:	f024 0407 	bic.w	r4, r4, #7
 800040c:	fa26 f104 	lsr.w	r1, r6, r4
 8000410:	e9dd 6702 	ldrd	r6, r7, [sp, #8]
 8000414:	fa22 f204 	lsr.w	r2, r2, r4
 8000418:	f002 00ff 	and.w	r0, r2, #255	; 0xff
 800041c:	f001 01ff 	and.w	r1, r1, #255	; 0xff
 8000420:	e8fd 4504 	ldrd	r4, r5, [sp], #16
 8000424:	eba0 0001 	sub.w	r0, r0, r1
 8000428:	4770      	bx	lr
 800042a:	f014 0f03 	tst.w	r4, #3
 800042e:	d13c      	bne.n	80004aa <strcmp+0x182>
 8000430:	f010 0403 	ands.w	r4, r0, #3
 8000434:	d128      	bne.n	8000488 <strcmp+0x160>
 8000436:	f850 2b08 	ldr.w	r2, [r0], #8
 800043a:	f851 3b08 	ldr.w	r3, [r1], #8
 800043e:	fa82 f54c 	uadd8	r5, r2, ip
 8000442:	ea82 0503 	eor.w	r5, r2, r3
 8000446:	faa5 f58c 	sel	r5, r5, ip
 800044a:	b95d      	cbnz	r5, 8000464 <strcmp+0x13c>
 800044c:	f850 2c04 	ldr.w	r2, [r0, #-4]
 8000450:	f851 3c04 	ldr.w	r3, [r1, #-4]
 8000454:	fa82 f54c 	uadd8	r5, r2, ip
 8000458:	ea82 0503 	eor.w	r5, r2, r3
 800045c:	faa5 f58c 	sel	r5, r5, ip
 8000460:	2d00      	cmp	r5, #0
 8000462:	d0e8      	beq.n	8000436 <strcmp+0x10e>
 8000464:	ba2d      	rev	r5, r5
 8000466:	fab5 f485 	clz	r4, r5
 800046a:	f024 0407 	bic.w	r4, r4, #7
 800046e:	fa23 f104 	lsr.w	r1, r3, r4
 8000472:	fa22 f204 	lsr.w	r2, r2, r4
 8000476:	f002 00ff 	and.w	r0, r2, #255	; 0xff
 800047a:	f001 01ff 	and.w	r1, r1, #255	; 0xff
 800047e:	e8fd 4504 	ldrd	r4, r5, [sp], #16
 8000482:	eba0 0001 	sub.w	r0, r0, r1
 8000486:	4770      	bx	lr
 8000488:	ea4f 04c4 	mov.w	r4, r4, lsl #3
 800048c:	f020 0003 	bic.w	r0, r0, #3
 8000490:	f850 2b08 	ldr.w	r2, [r0], #8
 8000494:	f021 0103 	bic.w	r1, r1, #3
 8000498:	f851 3b08 	ldr.w	r3, [r1], #8
 800049c:	fa0c f404 	lsl.w	r4, ip, r4
 80004a0:	ea62 0204 	orn	r2, r2, r4
 80004a4:	ea63 0304 	orn	r3, r3, r4
 80004a8:	e7c9      	b.n	800043e <strcmp+0x116>
 80004aa:	f010 0403 	ands.w	r4, r0, #3
 80004ae:	d01a      	beq.n	80004e6 <strcmp+0x1be>
 80004b0:	eba1 0104 	sub.w	r1, r1, r4
 80004b4:	f020 0003 	bic.w	r0, r0, #3
 80004b8:	07e4      	lsls	r4, r4, #31
 80004ba:	f850 2b04 	ldr.w	r2, [r0], #4
 80004be:	d006      	beq.n	80004ce <strcmp+0x1a6>
 80004c0:	d20f      	bcs.n	80004e2 <strcmp+0x1ba>
 80004c2:	788b      	ldrb	r3, [r1, #2]
 80004c4:	fa5f f4a2 	uxtb.w	r4, r2, ror #16
 80004c8:	1ae4      	subs	r4, r4, r3
 80004ca:	d106      	bne.n	80004da <strcmp+0x1b2>
 80004cc:	b12b      	cbz	r3, 80004da <strcmp+0x1b2>
 80004ce:	78cb      	ldrb	r3, [r1, #3]
 80004d0:	fa5f f4b2 	uxtb.w	r4, r2, ror #24
 80004d4:	1ae4      	subs	r4, r4, r3
 80004d6:	d100      	bne.n	80004da <strcmp+0x1b2>
 80004d8:	b91b      	cbnz	r3, 80004e2 <strcmp+0x1ba>
 80004da:	4620      	mov	r0, r4
 80004dc:	f85d 4b10 	ldr.w	r4, [sp], #16
 80004e0:	4770      	bx	lr
 80004e2:	f101 0104 	add.w	r1, r1, #4
 80004e6:	f850 2b04 	ldr.w	r2, [r0], #4
 80004ea:	07cc      	lsls	r4, r1, #31
 80004ec:	f021 0103 	bic.w	r1, r1, #3
 80004f0:	f851 3b04 	ldr.w	r3, [r1], #4
 80004f4:	d848      	bhi.n	8000588 <strcmp+0x260>
 80004f6:	d224      	bcs.n	8000542 <strcmp+0x21a>
 80004f8:	f022 447f 	bic.w	r4, r2, #4278190080	; 0xff000000
 80004fc:	fa82 f54c 	uadd8	r5, r2, ip
 8000500:	ea94 2513 	eors.w	r5, r4, r3, lsr #8
 8000504:	faa5 f58c 	sel	r5, r5, ip
 8000508:	d10a      	bne.n	8000520 <strcmp+0x1f8>
 800050a:	b965      	cbnz	r5, 8000526 <strcmp+0x1fe>
 800050c:	f851 3b04 	ldr.w	r3, [r1], #4
 8000510:	ea84 0402 	eor.w	r4, r4, r2
 8000514:	ebb4 6f03 	cmp.w	r4, r3, lsl #24
 8000518:	d10e      	bne.n	8000538 <strcmp+0x210>
 800051a:	f850 2b04 	ldr.w	r2, [r0], #4
 800051e:	e7eb      	b.n	80004f8 <strcmp+0x1d0>
 8000520:	ea4f 2313 	mov.w	r3, r3, lsr #8
 8000524:	e055      	b.n	80005d2 <strcmp+0x2aa>
 8000526:	f035 457f 	bics.w	r5, r5, #4278190080	; 0xff000000
 800052a:	d14d      	bne.n	80005c8 <strcmp+0x2a0>
 800052c:	7808      	ldrb	r0, [r1, #0]
 800052e:	e8fd 4504 	ldrd	r4, r5, [sp], #16
 8000532:	f1c0 0000 	rsb	r0, r0, #0
 8000536:	4770      	bx	lr
 8000538:	ea4f 6212 	mov.w	r2, r2, lsr #24
 800053c:	f003 03ff 	and.w	r3, r3, #255	; 0xff
 8000540:	e047      	b.n	80005d2 <strcmp+0x2aa>
 8000542:	ea02 441c 	and.w	r4, r2, ip, lsr #16
 8000546:	fa82 f54c 	uadd8	r5, r2, ip
 800054a:	ea94 4513 	eors.w	r5, r4, r3, lsr #16
 800054e:	faa5 f58c 	sel	r5, r5, ip
 8000552:	d10a      	bne.n	800056a <strcmp+0x242>
 8000554:	b965      	cbnz	r5, 8000570 <strcmp+0x248>
 8000556:	f851 3b04 	ldr.w	r3, [r1], #4
 800055a:	ea84 0402 	eor.w	r4, r4, r2
 800055e:	ebb4 4f03 	cmp.w	r4, r3, lsl #16
 8000562:	d10c      	bne.n	800057e <strcmp+0x256>
 8000564:	f850 2b04 	ldr.w	r2, [r0], #4
 8000568:	e7eb      	b.n	8000542 <strcmp+0x21a>
 800056a:	ea4f 4313 	mov.w	r3, r3, lsr #16
 800056e:	e030      	b.n	80005d2 <strcmp+0x2aa>
 8000570:	ea15 451c 	ands.w	r5, r5, ip, lsr #16
 8000574:	d128      	bne.n	80005c8 <strcmp+0x2a0>
 8000576:	880b      	ldrh	r3, [r1, #0]
 8000578:	ea4f 4212 	mov.w	r2, r2, lsr #16
 800057c:	e029      	b.n	80005d2 <strcmp+0x2aa>
 800057e:	ea4f 4212 	mov.w	r2, r2, lsr #16
 8000582:	ea03 431c 	and.w	r3, r3, ip, lsr #16
 8000586:	e024      	b.n	80005d2 <strcmp+0x2aa>
 8000588:	f002 04ff 	and.w	r4, r2, #255	; 0xff
 800058c:	fa82 f54c 	uadd8	r5, r2, ip
 8000590:	ea94 6513 	eors.w	r5, r4, r3, lsr #24
 8000594:	faa5 f58c 	sel	r5, r5, ip
 8000598:	d10a      	bne.n	80005b0 <strcmp+0x288>
 800059a:	b965      	cbnz	r5, 80005b6 <strcmp+0x28e>
 800059c:	f851 3b04 	ldr.w	r3, [r1], #4
 80005a0:	ea84 0402 	eor.w	r4, r4, r2
 80005a4:	ebb4 2f03 	cmp.w	r4, r3, lsl #8
 80005a8:	d109      	bne.n	80005be <strcmp+0x296>
 80005aa:	f850 2b04 	ldr.w	r2, [r0], #4
 80005ae:	e7eb      	b.n	8000588 <strcmp+0x260>
 80005b0:	ea4f 6313 	mov.w	r3, r3, lsr #24
 80005b4:	e00d      	b.n	80005d2 <strcmp+0x2aa>
 80005b6:	f015 0fff 	tst.w	r5, #255	; 0xff
 80005ba:	d105      	bne.n	80005c8 <strcmp+0x2a0>
 80005bc:	680b      	ldr	r3, [r1, #0]
 80005be:	ea4f 2212 	mov.w	r2, r2, lsr #8
 80005c2:	f023 437f 	bic.w	r3, r3, #4278190080	; 0xff000000
 80005c6:	e004      	b.n	80005d2 <strcmp+0x2aa>
 80005c8:	f04f 0000 	mov.w	r0, #0
 80005cc:	e8fd 4504 	ldrd	r4, r5, [sp], #16
 80005d0:	4770      	bx	lr
 80005d2:	ba12      	rev	r2, r2
 80005d4:	ba1b      	rev	r3, r3
 80005d6:	fa82 f44c 	uadd8	r4, r2, ip
 80005da:	ea82 0403 	eor.w	r4, r2, r3
 80005de:	faa4 f58c 	sel	r5, r4, ip
 80005e2:	fab5 f485 	clz	r4, r5
 80005e6:	fa02 f204 	lsl.w	r2, r2, r4
 80005ea:	fa03 f304 	lsl.w	r3, r3, r4
 80005ee:	ea4f 6012 	mov.w	r0, r2, lsr #24
 80005f2:	e8fd 4504 	ldrd	r4, r5, [sp], #16
 80005f6:	eba0 6013 	sub.w	r0, r0, r3, lsr #24
 80005fa:	4770      	bx	lr

080005fc <memcpy>:
 80005fc:	4684      	mov	ip, r0
 80005fe:	ea41 0300 	orr.w	r3, r1, r0
 8000602:	f013 0303 	ands.w	r3, r3, #3
 8000606:	d16d      	bne.n	80006e4 <memcpy+0xe8>
 8000608:	3a40      	subs	r2, #64	; 0x40
 800060a:	d341      	bcc.n	8000690 <memcpy+0x94>
 800060c:	f851 3b04 	ldr.w	r3, [r1], #4
 8000610:	f840 3b04 	str.w	r3, [r0], #4
 8000614:	f851 3b04 	ldr.w	r3, [r1], #4
 8000618:	f840 3b04 	str.w	r3, [r0], #4
 800061c:	f851 3b04 	ldr.w	r3, [r1], #4
 8000620:	f840 3b04 	str.w	r3, [r0], #4
 8000624:	f851 3b04 	ldr.w	r3, [r1], #4
 8000628:	f840 3b04 	str.w	r3, [r0], #4
 800062c:	f851 3b04 	ldr.w	r3, [r1], #4
 8000630:	f840 3b04 	str.w	r3, [r0], #4
 8000634:	f851 3b04 	ldr.w	r3, [r1], #4
 8000638:	f840 3b04 	str.w	r3, [r0], #4
 800063c:	f851 3b04 	ldr.w	r3, [r1], #4
 8000640:	f840 3b04 	str.w	r3, [r0], #4
 8000644:	f851 3b04 	ldr.w	r3, [r1], #4
 8000648:	f840 3b04 	str.w	r3, [r0], #4
 800064c:	f851 3b04 	ldr.w	r3, [r1], #4
 8000650:	f840 3b04 	str.w	r3, [r0], #4
 8000654:	f851 3b04 	ldr.w	r3, [r1], #4
 8000658:	f840 3b04 	str.w	r3, [r0], #4
 800065c:	f851 3b04 	ldr.w	r3, [r1], #4
 8000660:	f840 3b04 	str.w	r3, [r0], #4
 8000664:	f851 3b04 	ldr.w	r3, [r1], #4
 8000668:	f840 3b04 	str.w	r3, [r0], #4
 800066c:	f851 3b04 	ldr.w	r3, [r1], #4
 8000670:	f840 3b04 	str.w	r3, [r0], #4
 8000674:	f851 3b04 	ldr.w	r3, [r1], #4
 8000678:	f840 3b04 	str.w	r3, [r0], #4
 800067c:	f851 3b04 	ldr.w	r3, [r1], #4
 8000680:	f840 3b04 	str.w	r3, [r0], #4
 8000684:	f851 3b04 	ldr.w	r3, [r1], #4
 8000688:	f840 3b04 	str.w	r3, [r0], #4
 800068c:	3a40      	subs	r2, #64	; 0x40
 800068e:	d2bd      	bcs.n	800060c <memcpy+0x10>
 8000690:	3230      	adds	r2, #48	; 0x30
 8000692:	d311      	bcc.n	80006b8 <memcpy+0xbc>
 8000694:	f851 3b04 	ldr.w	r3, [r1], #4
 8000698:	f840 3b04 	str.w	r3, [r0], #4
 800069c:	f851 3b04 	ldr.w	r3, [r1], #4
 80006a0:	f840 3b04 	str.w	r3, [r0], #4
 80006a4:	f851 3b04 	ldr.w	r3, [r1], #4
 80006a8:	f840 3b04 	str.w	r3, [r0], #4
 80006ac:	f851 3b04 	ldr.w	r3, [r1], #4
 80006b0:	f840 3b04 	str.w	r3, [r0], #4
 80006b4:	3a10      	subs	r2, #16
 80006b6:	d2ed      	bcs.n	8000694 <memcpy+0x98>
 80006b8:	320c      	adds	r2, #12
 80006ba:	d305      	bcc.n	80006c8 <memcpy+0xcc>
 80006bc:	f851 3b04 	ldr.w	r3, [r1], #4
 80006c0:	f840 3b04 	str.w	r3, [r0], #4
 80006c4:	3a04      	subs	r2, #4
 80006c6:	d2f9      	bcs.n	80006bc <memcpy+0xc0>
 80006c8:	3204      	adds	r2, #4
 80006ca:	d008      	beq.n	80006de <memcpy+0xe2>
 80006cc:	07d2      	lsls	r2, r2, #31
 80006ce:	bf1c      	itt	ne
 80006d0:	f811 3b01 	ldrbne.w	r3, [r1], #1
 80006d4:	f800 3b01 	strbne.w	r3, [r0], #1
 80006d8:	d301      	bcc.n	80006de <memcpy+0xe2>
 80006da:	880b      	ldrh	r3, [r1, #0]
 80006dc:	8003      	strh	r3, [r0, #0]
 80006de:	4660      	mov	r0, ip
 80006e0:	4770      	bx	lr
 80006e2:	bf00      	nop
 80006e4:	2a08      	cmp	r2, #8
 80006e6:	d313      	bcc.n	8000710 <memcpy+0x114>
 80006e8:	078b      	lsls	r3, r1, #30
 80006ea:	d08d      	beq.n	8000608 <memcpy+0xc>
 80006ec:	f010 0303 	ands.w	r3, r0, #3
 80006f0:	d08a      	beq.n	8000608 <memcpy+0xc>
 80006f2:	f1c3 0304 	rsb	r3, r3, #4
 80006f6:	1ad2      	subs	r2, r2, r3
 80006f8:	07db      	lsls	r3, r3, #31
 80006fa:	bf1c      	itt	ne
 80006fc:	f811 3b01 	ldrbne.w	r3, [r1], #1
 8000700:	f800 3b01 	strbne.w	r3, [r0], #1
 8000704:	d380      	bcc.n	8000608 <memcpy+0xc>
 8000706:	f831 3b02 	ldrh.w	r3, [r1], #2
 800070a:	f820 3b02 	strh.w	r3, [r0], #2
 800070e:	e77b      	b.n	8000608 <memcpy+0xc>
 8000710:	3a04      	subs	r2, #4
 8000712:	d3d9      	bcc.n	80006c8 <memcpy+0xcc>
 8000714:	3a01      	subs	r2, #1
 8000716:	f811 3b01 	ldrb.w	r3, [r1], #1
 800071a:	f800 3b01 	strb.w	r3, [r0], #1
 800071e:	d2f9      	bcs.n	8000714 <memcpy+0x118>
 8000720:	780b      	ldrb	r3, [r1, #0]
 8000722:	7003      	strb	r3, [r0, #0]
 8000724:	784b      	ldrb	r3, [r1, #1]
 8000726:	7043      	strb	r3, [r0, #1]
 8000728:	788b      	ldrb	r3, [r1, #2]
 800072a:	7083      	strb	r3, [r0, #2]
 800072c:	4660      	mov	r0, ip
 800072e:	4770      	bx	lr
	...

08000740 <strlen>:
 8000740:	f890 f000 	pld	[r0]
 8000744:	e96d 4502 	strd	r4, r5, [sp, #-8]!
 8000748:	f020 0107 	bic.w	r1, r0, #7
 800074c:	f06f 0c00 	mvn.w	ip, #0
 8000750:	f010 0407 	ands.w	r4, r0, #7
 8000754:	f891 f020 	pld	[r1, #32]
 8000758:	f040 8049 	bne.w	80007ee <strlen+0xae>
 800075c:	f04f 0400 	mov.w	r4, #0
 8000760:	f06f 0007 	mvn.w	r0, #7
 8000764:	e9d1 2300 	ldrd	r2, r3, [r1]
 8000768:	f891 f040 	pld	[r1, #64]	; 0x40
 800076c:	f100 0008 	add.w	r0, r0, #8
 8000770:	fa82 f24c 	uadd8	r2, r2, ip
 8000774:	faa4 f28c 	sel	r2, r4, ip
 8000778:	fa83 f34c 	uadd8	r3, r3, ip
 800077c:	faa2 f38c 	sel	r3, r2, ip
 8000780:	bb4b      	cbnz	r3, 80007d6 <strlen+0x96>
 8000782:	e9d1 2302 	ldrd	r2, r3, [r1, #8]
 8000786:	fa82 f24c 	uadd8	r2, r2, ip
 800078a:	f100 0008 	add.w	r0, r0, #8
 800078e:	faa4 f28c 	sel	r2, r4, ip
 8000792:	fa83 f34c 	uadd8	r3, r3, ip
 8000796:	faa2 f38c 	sel	r3, r2, ip
 800079a:	b9e3      	cbnz	r3, 80007d6 <strlen+0x96>
 800079c:	e9d1 2304 	ldrd	r2, r3, [r1, #16]
 80007a0:	fa82 f24c 	uadd8	r2, r2, ip
 80007a4:	f100 0008 	add.w	r0, r0, #8
 80007a8:	faa4 f28c 	sel	r2, r4, ip
 80007ac:	fa83 f34c 	uadd8	r3, r3, ip
 80007b0:	faa2 f38c 	sel	r3, r2, ip
 80007b4:	b97b      	cbnz	r3, 80007d6 <strlen+0x96>
 80007b6:	e9d1 2306 	ldrd	r2, r3, [r1, #24]
 80007ba:	f101 0120 	add.w	r1, r1, #32
 80007be:	fa82 f24c 	uadd8	r2, r2, ip
 80007c2:	f100 0008 	add.w	r0, r0, #8
 80007c6:	faa4 f28c 	sel	r2, r4, ip
 80007ca:	fa83 f34c 	uadd8	r3, r3, ip
 80007ce:	faa2 f38c 	sel	r3, r2, ip
 80007d2:	2b00      	cmp	r3, #0
 80007d4:	d0c6      	beq.n	8000764 <strlen+0x24>
 80007d6:	2a00      	cmp	r2, #0
 80007d8:	bf04      	itt	eq
 80007da:	3004      	addeq	r0, #4
 80007dc:	461a      	moveq	r2, r3
 80007de:	ba12      	rev	r2, r2
 80007e0:	fab2 f282 	clz	r2, r2
 80007e4:	e8fd 4502 	ldrd	r4, r5, [sp], #8
 80007e8:	eb00 00d2 	add.w	r0, r0, r2, lsr #3
 80007ec:	4770      	bx	lr
 80007ee:	e9d1 2300 	ldrd	r2, r3, [r1]
 80007f2:	f004 0503 	and.w	r5, r4, #3
 80007f6:	f1c4 0000 	rsb	r0, r4, #0
 80007fa:	ea4f 05c5 	mov.w	r5, r5, lsl #3
 80007fe:	f014 0f04 	tst.w	r4, #4
 8000802:	f891 f040 	pld	[r1, #64]	; 0x40
 8000806:	fa0c f505 	lsl.w	r5, ip, r5
 800080a:	ea62 0205 	orn	r2, r2, r5
 800080e:	bf1c      	itt	ne
 8000810:	ea63 0305 	ornne	r3, r3, r5
 8000814:	4662      	movne	r2, ip
 8000816:	f04f 0400 	mov.w	r4, #0
 800081a:	e7a9      	b.n	8000770 <strlen+0x30>
 800081c:	0000      	movs	r0, r0
	...

08000820 <sduInterruptTransmitted>:
 */
void sduInterruptTransmitted(USBDriver *usbp, usbep_t ep) {

  (void)usbp;
  (void)ep;
}
 8000820:	4770      	bx	lr
 8000822:	bf00      	nop
	...

08000830 <_pal_lld_setgroupmode>:
 *
 * @notapi
 */
void _pal_lld_setgroupmode(ioportid_t port,
                           ioportmask_t mask,
                           iomode_t mode) {
 8000830:	e92d 43f0 	stmdb	sp!, {r4, r5, r6, r7, r8, r9, lr}
  uint32_t moder   = (mode & PAL_STM32_MODE_MASK) >> 0;
  uint32_t otyper  = (mode & PAL_STM32_OTYPE_MASK) >> 2;
  uint32_t ospeedr = (mode & PAL_STM32_OSPEED_MASK) >> 3;
  uint32_t pupdr   = (mode & PAL_STM32_PUPDR_MASK) >> 5;
  uint32_t altr    = (mode & PAL_STM32_ALTERNATE_MASK) >> 7;
  uint32_t bit     = 0;
 8000834:	2300      	movs	r3, #0
  uint32_t moder   = (mode & PAL_STM32_MODE_MASK) >> 0;
 8000836:	f002 0503 	and.w	r5, r2, #3
  uint32_t pupdr   = (mode & PAL_STM32_PUPDR_MASK) >> 5;
 800083a:	ea4f 1e52 	mov.w	lr, r2, lsr #5
      uint32_t altrmask, m1, m2, m4;

      altrmask = altr << ((bit & 7) * 4);
      m1 = 1 << bit;
      m2 = 3 << (bit * 2);
      m4 = 15 << ((bit & 7) * 4);
 800083e:	f04f 080f 	mov.w	r8, #15
      m1 = 1 << bit;
 8000842:	2701      	movs	r7, #1
      m2 = 3 << (bit * 2);
 8000844:	2603      	movs	r6, #3
 8000846:	e009      	b.n	800085c <_pal_lld_setgroupmode+0x2c>
      else {
        /* If going into a non-alternate mode then the mode is switched
           before setting the alternate mode in order to avoid glitches.*/
        port->MODER   = (port->MODER & ~m2) | moder;
        if (bit < 8)
          port->AFRL = (port->AFRL & ~m4) | altrmask;
 8000848:	6a04      	ldr	r4, [r0, #32]
 800084a:	ea24 0202 	bic.w	r2, r4, r2
 800084e:	6202      	str	r2, [r0, #32]
        else
          port->AFRH = (port->AFRH & ~m4) | altrmask;
      }
    }
    mask >>= 1;
    if (!mask)
 8000850:	0849      	lsrs	r1, r1, #1
 8000852:	d02c      	beq.n	80008ae <_pal_lld_setgroupmode+0x7e>
      return;
    otyper <<= 1;
    ospeedr <<= 2;
    pupdr <<= 2;
 8000854:	ea4f 0e8e 	mov.w	lr, lr, lsl #2
    moder <<= 2;
 8000858:	00ad      	lsls	r5, r5, #2
    bit++;
 800085a:	3301      	adds	r3, #1
      altrmask = altr << ((bit & 7) * 4);
 800085c:	f003 0207 	and.w	r2, r3, #7
      m2 = 3 << (bit * 2);
 8000860:	ea4f 0c43 	mov.w	ip, r3, lsl #1
      altrmask = altr << ((bit & 7) * 4);
 8000864:	0092      	lsls	r2, r2, #2
    if ((mask & 1) != 0) {
 8000866:	f011 0f01 	tst.w	r1, #1
      m1 = 1 << bit;
 800086a:	fa07 f903 	lsl.w	r9, r7, r3
      m2 = 3 << (bit * 2);
 800086e:	fa06 fc0c 	lsl.w	ip, r6, ip
      m4 = 15 << ((bit & 7) * 4);
 8000872:	fa08 f202 	lsl.w	r2, r8, r2
    if ((mask & 1) != 0) {
 8000876:	d0eb      	beq.n	8000850 <_pal_lld_setgroupmode+0x20>
      port->OTYPER  = (port->OTYPER & ~m1) | otyper;
 8000878:	6844      	ldr	r4, [r0, #4]
 800087a:	ea24 0409 	bic.w	r4, r4, r9
 800087e:	6044      	str	r4, [r0, #4]
      port->OSPEEDR = (port->OSPEEDR & ~m2) | ospeedr;
 8000880:	6884      	ldr	r4, [r0, #8]
 8000882:	ea24 040c 	bic.w	r4, r4, ip
 8000886:	6084      	str	r4, [r0, #8]
      port->PUPDR   = (port->PUPDR & ~m2) | pupdr;
 8000888:	68c4      	ldr	r4, [r0, #12]
 800088a:	ea24 040c 	bic.w	r4, r4, ip
 800088e:	ea44 040e 	orr.w	r4, r4, lr
 8000892:	60c4      	str	r4, [r0, #12]
        port->MODER   = (port->MODER & ~m2) | moder;
 8000894:	6804      	ldr	r4, [r0, #0]
 8000896:	ea24 040c 	bic.w	r4, r4, ip
 800089a:	432c      	orrs	r4, r5
        if (bit < 8)
 800089c:	2b07      	cmp	r3, #7
        port->MODER   = (port->MODER & ~m2) | moder;
 800089e:	6004      	str	r4, [r0, #0]
        if (bit < 8)
 80008a0:	d9d2      	bls.n	8000848 <_pal_lld_setgroupmode+0x18>
          port->AFRH = (port->AFRH & ~m4) | altrmask;
 80008a2:	6a44      	ldr	r4, [r0, #36]	; 0x24
    if (!mask)
 80008a4:	0849      	lsrs	r1, r1, #1
          port->AFRH = (port->AFRH & ~m4) | altrmask;
 80008a6:	ea24 0202 	bic.w	r2, r4, r2
 80008aa:	6242      	str	r2, [r0, #36]	; 0x24
    if (!mask)
 80008ac:	d1d2      	bne.n	8000854 <_pal_lld_setgroupmode+0x24>
  }
}
 80008ae:	e8bd 83f0 	ldmia.w	sp!, {r4, r5, r6, r7, r8, r9, pc}
 80008b2:	bf00      	nop
	...

080008c0 <usb_lld_start_out>:
 *
 * @notapi
 */
void usb_lld_start_out(USBDriver *usbp, usbep_t ep) {
  uint32_t pcnt, rxsize;
  USBOutEndpointState *osp = usbp->epc[ep]->out_state;
 80008c0:	eb00 0381 	add.w	r3, r0, r1, lsl #2
void usb_lld_start_out(USBDriver *usbp, usbep_t ep) {
 80008c4:	b410      	push	{r4}
  USBOutEndpointState *osp = usbp->epc[ep]->out_state;
 80008c6:	68da      	ldr	r2, [r3, #12]
 80008c8:	6993      	ldr	r3, [r2, #24]

  /* Transfer initialization.*/
  osp->totsize = osp->rxsize;
 80008ca:	681c      	ldr	r4, [r3, #0]
 80008cc:	60dc      	str	r4, [r3, #12]
  if ((ep == 0) && (osp->rxsize > EP0_MAX_OUTSIZE))
 80008ce:	b919      	cbnz	r1, 80008d8 <usb_lld_start_out+0x18>
 80008d0:	2c40      	cmp	r4, #64	; 0x40
      osp->rxsize = EP0_MAX_OUTSIZE;
 80008d2:	bf84      	itt	hi
 80008d4:	2440      	movhi	r4, #64	; 0x40
 80008d6:	601c      	strhi	r4, [r3, #0]
  /* Transaction size is rounded to a multiple of packet size because the
     following requirement in the RM:
     "For OUT transfers, the transfer size field in the endpoint's transfer
     size register must be a multiple of the maximum packet size of the
     endpoint, adjusted to the Word boundary".*/
  pcnt   = (osp->rxsize + usbp->epc[ep]->out_maxsize - 1U) /
 80008d8:	8a53      	ldrh	r3, [r2, #18]
  /* Setting up transaction parameters in DOEPTSIZ.*/
  usbp->otg->oe[ep].DOEPTSIZ = DOEPTSIZ_STUPCNT(3) | DOEPTSIZ_PKTCNT(pcnt) |
                               DOEPTSIZ_XFRSIZ(rxsize);

  /* Special case of isochronous endpoint.*/
  if ((usbp->epc[ep]->ep_mode & USB_EP_MODE_TYPE) == USB_EP_MODE_TYPE_ISOC) {
 80008da:	6812      	ldr	r2, [r2, #0]
  usbp->otg->oe[ep].DOEPTSIZ = DOEPTSIZ_STUPCNT(3) | DOEPTSIZ_PKTCNT(pcnt) |
 80008dc:	6d40      	ldr	r0, [r0, #84]	; 0x54
  if ((usbp->epc[ep]->ep_mode & USB_EP_MODE_TYPE) == USB_EP_MODE_TYPE_ISOC) {
 80008de:	f002 0c03 	and.w	ip, r2, #3
  pcnt   = (osp->rxsize + usbp->epc[ep]->out_maxsize - 1U) /
 80008e2:	1e5a      	subs	r2, r3, #1
 80008e4:	4422      	add	r2, r4
 80008e6:	fbb2 f2f3 	udiv	r2, r2, r3
  rxsize = (pcnt * usbp->epc[ep]->out_maxsize + 3U) & 0xFFFFFFFCU;
 80008ea:	fb02 f303 	mul.w	r3, r2, r3
 80008ee:	3303      	adds	r3, #3
 80008f0:	f023 0303 	bic.w	r3, r3, #3
  usbp->otg->oe[ep].DOEPTSIZ = DOEPTSIZ_STUPCNT(3) | DOEPTSIZ_PKTCNT(pcnt) |
 80008f4:	ea43 43c2 	orr.w	r3, r3, r2, lsl #19
 80008f8:	eb00 1241 	add.w	r2, r0, r1, lsl #5
 80008fc:	f043 43c0 	orr.w	r3, r3, #1610612736	; 0x60000000
  if ((usbp->epc[ep]->ep_mode & USB_EP_MODE_TYPE) == USB_EP_MODE_TYPE_ISOC) {
 8000900:	f1bc 0f01 	cmp.w	ip, #1
  usbp->otg->oe[ep].DOEPTSIZ = DOEPTSIZ_STUPCNT(3) | DOEPTSIZ_PKTCNT(pcnt) |
 8000904:	f8c2 3b10 	str.w	r3, [r2, #2832]	; 0xb10
  if ((usbp->epc[ep]->ep_mode & USB_EP_MODE_TYPE) == USB_EP_MODE_TYPE_ISOC) {
 8000908:	d00a      	beq.n	8000920 <usb_lld_start_out+0x60>
 800090a:	b209      	sxth	r1, r1
    else
      usbp->otg->oe[ep].DOEPCTL |= DOEPCTL_SODDFRM;
  }

  /* Starting operation.*/
  usbp->otg->oe[ep].DOEPCTL |= DOEPCTL_EPENA | DOEPCTL_CNAK;
 800090c:	eb00 1041 	add.w	r0, r0, r1, lsl #5
}
 8000910:	bc10      	pop	{r4}
  usbp->otg->oe[ep].DOEPCTL |= DOEPCTL_EPENA | DOEPCTL_CNAK;
 8000912:	f8d0 3b00 	ldr.w	r3, [r0, #2816]	; 0xb00
 8000916:	f043 4304 	orr.w	r3, r3, #2214592512	; 0x84000000
 800091a:	f8c0 3b00 	str.w	r3, [r0, #2816]	; 0xb00
}
 800091e:	4770      	bx	lr
    if (usbp->otg->DSTS & DSTS_FNSOF_ODD)
 8000920:	f8d0 3808 	ldr.w	r3, [r0, #2056]	; 0x808
 8000924:	eb00 1241 	add.w	r2, r0, r1, lsl #5
 8000928:	f413 7f80 	tst.w	r3, #256	; 0x100
      usbp->otg->oe[ep].DOEPCTL |= DOEPCTL_SEVNFRM;
 800092c:	f8d2 3b00 	ldr.w	r3, [r2, #2816]	; 0xb00
 8000930:	bf14      	ite	ne
 8000932:	f043 5380 	orrne.w	r3, r3, #268435456	; 0x10000000
      usbp->otg->oe[ep].DOEPCTL |= DOEPCTL_SODDFRM;
 8000936:	f043 5300 	orreq.w	r3, r3, #536870912	; 0x20000000
 800093a:	b209      	sxth	r1, r1
 800093c:	f8c2 3b00 	str.w	r3, [r2, #2816]	; 0xb00
 8000940:	e7e4      	b.n	800090c <usb_lld_start_out+0x4c>
 8000942:	bf00      	nop
	...

08000950 <usb_lld_start_in>:
 * @param[in] ep        endpoint number
 *
 * @notapi
 */
void usb_lld_start_in(USBDriver *usbp, usbep_t ep) {
  USBInEndpointState *isp = usbp->epc[ep]->in_state;
 8000950:	eb00 0381 	add.w	r3, r0, r1, lsl #2
void usb_lld_start_in(USBDriver *usbp, usbep_t ep) {
 8000954:	b410      	push	{r4}
  USBInEndpointState *isp = usbp->epc[ep]->in_state;
 8000956:	68dc      	ldr	r4, [r3, #12]
 8000958:	6962      	ldr	r2, [r4, #20]

  /* Transfer initialization.*/
  isp->totsize = isp->txsize;
 800095a:	6813      	ldr	r3, [r2, #0]
 800095c:	60d3      	str	r3, [r2, #12]
  if (isp->txsize == 0) {
 800095e:	b9eb      	cbnz	r3, 800099c <usb_lld_start_in+0x4c>
    /* Special case, sending zero size packet.*/
    usbp->otg->ie[ep].DIEPTSIZ = DIEPTSIZ_PKTCNT(1) | DIEPTSIZ_XFRSIZ(0);
 8000960:	6d42      	ldr	r2, [r0, #84]	; 0x54
 8000962:	eb02 1341 	add.w	r3, r2, r1, lsl #5
 8000966:	f44f 2000 	mov.w	r0, #524288	; 0x80000
 800096a:	f8c3 0910 	str.w	r0, [r3, #2320]	; 0x910
    usbp->otg->ie[ep].DIEPTSIZ = DIEPTSIZ_MCNT(1) | DIEPTSIZ_PKTCNT(pcnt) |
                                 DIEPTSIZ_XFRSIZ(isp->txsize);
  }

  /* Special case of isochronous endpoint.*/
  if ((usbp->epc[ep]->ep_mode & USB_EP_MODE_TYPE) == USB_EP_MODE_TYPE_ISOC) {
 800096e:	6823      	ldr	r3, [r4, #0]
 8000970:	f003 0303 	and.w	r3, r3, #3
 8000974:	2b01      	cmp	r3, #1
 8000976:	d02b      	beq.n	80009d0 <usb_lld_start_in+0x80>
 8000978:	b208      	sxth	r0, r1
    else
      usbp->otg->ie[ep].DIEPCTL |= DIEPCTL_SODDFRM;
  }

  /* Starting operation.*/
  usbp->otg->ie[ep].DIEPCTL |= DIEPCTL_EPENA | DIEPCTL_CNAK;
 800097a:	eb02 1040 	add.w	r0, r2, r0, lsl #5
  usbp->otg->DIEPEMPMSK |= DIEPEMPMSK_INEPTXFEM(ep);
 800097e:	2301      	movs	r3, #1
  usbp->otg->ie[ep].DIEPCTL |= DIEPCTL_EPENA | DIEPCTL_CNAK;
 8000980:	f8d0 4900 	ldr.w	r4, [r0, #2304]	; 0x900
 8000984:	f044 4404 	orr.w	r4, r4, #2214592512	; 0x84000000
 8000988:	f8c0 4900 	str.w	r4, [r0, #2304]	; 0x900
  usbp->otg->DIEPEMPMSK |= DIEPEMPMSK_INEPTXFEM(ep);
 800098c:	408b      	lsls	r3, r1
 800098e:	f8d2 1834 	ldr.w	r1, [r2, #2100]	; 0x834
}
 8000992:	bc10      	pop	{r4}
  usbp->otg->DIEPEMPMSK |= DIEPEMPMSK_INEPTXFEM(ep);
 8000994:	430b      	orrs	r3, r1
 8000996:	f8c2 3834 	str.w	r3, [r2, #2100]	; 0x834
}
 800099a:	4770      	bx	lr
    if ((ep == 0) && (isp->txsize > EP0_MAX_INSIZE))
 800099c:	b919      	cbnz	r1, 80009a6 <usb_lld_start_in+0x56>
 800099e:	2b40      	cmp	r3, #64	; 0x40
      isp->txsize = EP0_MAX_INSIZE;
 80009a0:	bf84      	itt	hi
 80009a2:	2340      	movhi	r3, #64	; 0x40
 80009a4:	6013      	strhi	r3, [r2, #0]
    uint32_t pcnt = (isp->txsize + usbp->epc[ep]->in_maxsize - 1) /
 80009a6:	f8b4 c010 	ldrh.w	ip, [r4, #16]
    usbp->otg->ie[ep].DIEPTSIZ = DIEPTSIZ_MCNT(1) | DIEPTSIZ_PKTCNT(pcnt) |
 80009aa:	6d42      	ldr	r2, [r0, #84]	; 0x54
    uint32_t pcnt = (isp->txsize + usbp->epc[ep]->in_maxsize - 1) /
 80009ac:	f10c 30ff 	add.w	r0, ip, #4294967295	; 0xffffffff
 80009b0:	4418      	add	r0, r3
 80009b2:	fbb0 f0fc 	udiv	r0, r0, ip
    usbp->otg->ie[ep].DIEPTSIZ = DIEPTSIZ_MCNT(1) | DIEPTSIZ_PKTCNT(pcnt) |
 80009b6:	ea43 43c0 	orr.w	r3, r3, r0, lsl #19
 80009ba:	eb02 1041 	add.w	r0, r2, r1, lsl #5
 80009be:	f043 5300 	orr.w	r3, r3, #536870912	; 0x20000000
 80009c2:	f8c0 3910 	str.w	r3, [r0, #2320]	; 0x910
  if ((usbp->epc[ep]->ep_mode & USB_EP_MODE_TYPE) == USB_EP_MODE_TYPE_ISOC) {
 80009c6:	6823      	ldr	r3, [r4, #0]
 80009c8:	f003 0303 	and.w	r3, r3, #3
 80009cc:	2b01      	cmp	r3, #1
 80009ce:	d1d3      	bne.n	8000978 <usb_lld_start_in+0x28>
    if (usbp->otg->DSTS & DSTS_FNSOF_ODD)
 80009d0:	f8d2 3808 	ldr.w	r3, [r2, #2056]	; 0x808
 80009d4:	f413 7f80 	tst.w	r3, #256	; 0x100
 80009d8:	eb02 1341 	add.w	r3, r2, r1, lsl #5
 80009dc:	b208      	sxth	r0, r1
      usbp->otg->ie[ep].DIEPCTL |= DIEPCTL_SEVNFRM;
 80009de:	f8d3 4900 	ldr.w	r4, [r3, #2304]	; 0x900
 80009e2:	bf14      	ite	ne
 80009e4:	f044 5480 	orrne.w	r4, r4, #268435456	; 0x10000000
      usbp->otg->ie[ep].DIEPCTL |= DIEPCTL_SODDFRM;
 80009e8:	f044 5400 	orreq.w	r4, r4, #536870912	; 0x20000000
 80009ec:	f8c3 4900 	str.w	r4, [r3, #2304]	; 0x900
 80009f0:	e7c3      	b.n	800097a <usb_lld_start_in+0x2a>
 80009f2:	bf00      	nop
	...

08000a00 <__idle_thread>:
  (void)p;

  while (true) {
    /*lint -save -e522 [2.2] Apparently no side effects because it contains
      an asm instruction.*/
    port_wait_for_interrupt();
 8000a00:	e7fe      	b.n	8000a00 <__idle_thread>
 8000a02:	bf00      	nop
	...

08000a10 <chTMStartMeasurementX>:
 *
 * @return              The realtime counter value.
 */
__STATIC_FORCEINLINE rtcnt_t port_rt_get_counter_value(void) {

  return DWT->CYCCNT;
 8000a10:	4b01      	ldr	r3, [pc, #4]	; (8000a18 <chTMStartMeasurementX+0x8>)
 8000a12:	685b      	ldr	r3, [r3, #4]
 *
 * @xclass
 */
NOINLINE void chTMStartMeasurementX(time_measurement_t *tmp) {

  tmp->last = chSysGetRealtimeCounterX();
 8000a14:	6083      	str	r3, [r0, #8]
}
 8000a16:	4770      	bx	lr
 8000a18:	e0001000 	.word	0xe0001000
 8000a1c:	00000000 	.word	0x00000000

08000a20 <chTMStopMeasurementX>:
 *
 * @xclass
 */
NOINLINE void chTMStopMeasurementX(time_measurement_t *tmp) {

  tm_stop(tmp, chSysGetRealtimeCounterX(), ch_system.tmc.offset);
 8000a20:	4a0e      	ldr	r2, [pc, #56]	; (8000a5c <chTMStopMeasurementX+0x3c>)
 8000a22:	4b0f      	ldr	r3, [pc, #60]	; (8000a60 <chTMStopMeasurementX+0x40>)
  tmp->last = (now - tmp->last) - offset;
 8000a24:	6881      	ldr	r1, [r0, #8]
 8000a26:	685b      	ldr	r3, [r3, #4]
NOINLINE void chTMStopMeasurementX(time_measurement_t *tmp) {
 8000a28:	b410      	push	{r4}
  tm_stop(tmp, chSysGetRealtimeCounterX(), ch_system.tmc.offset);
 8000a2a:	6894      	ldr	r4, [r2, #8]
  tmp->cumulative += (rttime_t)tmp->last;
 8000a2c:	6902      	ldr	r2, [r0, #16]
  tmp->last = (now - tmp->last) - offset;
 8000a2e:	1b1b      	subs	r3, r3, r4
 8000a30:	1a5b      	subs	r3, r3, r1
  tmp->cumulative += (rttime_t)tmp->last;
 8000a32:	18d2      	adds	r2, r2, r3
 8000a34:	6941      	ldr	r1, [r0, #20]
 8000a36:	6102      	str	r2, [r0, #16]
  if (tmp->last > tmp->worst) {
 8000a38:	6842      	ldr	r2, [r0, #4]
  tmp->n++;
 8000a3a:	68c4      	ldr	r4, [r0, #12]
  tmp->cumulative += (rttime_t)tmp->last;
 8000a3c:	f141 0100 	adc.w	r1, r1, #0
  if (tmp->last > tmp->worst) {
 8000a40:	4293      	cmp	r3, r2
  if (tmp->last < tmp->best) {
 8000a42:	6802      	ldr	r2, [r0, #0]
    tmp->worst = tmp->last;
 8000a44:	bf88      	it	hi
 8000a46:	6043      	strhi	r3, [r0, #4]
  tmp->n++;
 8000a48:	3401      	adds	r4, #1
  if (tmp->last < tmp->best) {
 8000a4a:	4293      	cmp	r3, r2
  tmp->last = (now - tmp->last) - offset;
 8000a4c:	e9c0 3402 	strd	r3, r4, [r0, #8]
  tmp->cumulative += (rttime_t)tmp->last;
 8000a50:	6141      	str	r1, [r0, #20]
}
 8000a52:	bc10      	pop	{r4}
    tmp->best = tmp->last;
 8000a54:	bf38      	it	cc
 8000a56:	6003      	strcc	r3, [r0, #0]
}
 8000a58:	4770      	bx	lr
 8000a5a:	bf00      	nop
 8000a5c:	200018e8 	.word	0x200018e8
 8000a60:	e0001000 	.word	0xe0001000
	...

08000a70 <__port_irq_epilogue>:
  \details Assigns the given value to the Base Priority register.
  \param [in]    basePri  Base Priority value to set
 */
__STATIC_FORCEINLINE void __set_BASEPRI(uint32_t basePri)
{
  __ASM volatile ("MSR basepri, %0" : : "r" (basePri) : "memory");
 8000a70:	2330      	movs	r3, #48	; 0x30
 8000a72:	f383 8811 	msr	BASEPRI, r3
 * @brief   Exception exit redirection to @p __port_switch_from_isr().
 */
void __port_irq_epilogue(void) {

  port_lock_from_isr();
  if ((SCB->ICSR & SCB_ICSR_RETTOBASE_Msk) != 0U) {
 8000a76:	4b0d      	ldr	r3, [pc, #52]	; (8000aac <__port_irq_epilogue+0x3c>)
 8000a78:	685b      	ldr	r3, [r3, #4]
 8000a7a:	f413 6300 	ands.w	r3, r3, #2048	; 0x800
 8000a7e:	d102      	bne.n	8000a86 <__port_irq_epilogue+0x16>
 8000a80:	f383 8811 	msr	BASEPRI, r3
    /* Note, returning without unlocking is intentional, this is done in
       order to keep the rest of the context switch atomic.*/
    return;
  }
  port_unlock_from_isr();
}
 8000a84:	4770      	bx	lr
  __ASM volatile ("MRS %0, psp"  : "=r" (result) );
 8000a86:	f3ef 8309 	mrs	r3, PSP
    psp -= sizeof (struct port_extctx);
 8000a8a:	3b20      	subs	r3, #32
    ectxp->xpsr = 0x01000000U;
 8000a8c:	f04f 7280 	mov.w	r2, #16777216	; 0x1000000
 8000a90:	61da      	str	r2, [r3, #28]
  __ASM volatile ("MSR psp, %0" : : "r" (topOfProcStack) : );
 8000a92:	f383 8809 	msr	PSP, r3
 */
bool chSchIsPreemptionRequired(void) {
  os_instance_t *oip = currcore;
  thread_t *tp = __instance_get_currthread(oip);

  tprio_t p1 = firstprio(&oip->rlist.pqueue);
 8000a96:	4a06      	ldr	r2, [pc, #24]	; (8000ab0 <__port_irq_epilogue+0x40>)
 8000a98:	6811      	ldr	r1, [r2, #0]
  tprio_t p2 = tp->hdr.pqueue.prio;
 8000a9a:	68d2      	ldr	r2, [r2, #12]
    if (chSchIsPreemptionRequired()) {
 8000a9c:	6889      	ldr	r1, [r1, #8]
 8000a9e:	6892      	ldr	r2, [r2, #8]
 8000aa0:	4291      	cmp	r1, r2
      ectxp->pc = (uint32_t)__port_switch_from_isr;
 8000aa2:	bf8c      	ite	hi
 8000aa4:	4a03      	ldrhi	r2, [pc, #12]	; (8000ab4 <__port_irq_epilogue+0x44>)
      ectxp->pc = (uint32_t)__port_exit_from_isr;
 8000aa6:	4a04      	ldrls	r2, [pc, #16]	; (8000ab8 <__port_irq_epilogue+0x48>)
 8000aa8:	619a      	str	r2, [r3, #24]
 8000aaa:	4770      	bx	lr
 8000aac:	e000ed00 	.word	0xe000ed00
 8000ab0:	20000ec8 	.word	0x20000ec8
 8000ab4:	08000307 	.word	0x08000307
 8000ab8:	08000312 	.word	0x08000312
 8000abc:	00000000 	.word	0x00000000

08000ac0 <cmd_default>:
  else{
    chprintf(chp, "Value too big, NOT changed. Still: 0x%02X \r\n", localecho);
  }
}

void cmd_default(BaseSequentialStream *chp, int argc, char *argv[]) {
 8000ac0:	b430      	push	{r4, r5}
  (void)* argv;
  (void)argc;

  localecho = 0;
  autoread = 0;
 8000ac2:	4908      	ldr	r1, [pc, #32]	; (8000ae4 <cmd_default+0x24>)
  eot_enable = 0;
  eot_char = 0;
 8000ac4:	4a08      	ldr	r2, [pc, #32]	; (8000ae8 <cmd_default+0x28>)
  eoiUse = 0;
 8000ac6:	4809      	ldr	r0, [pc, #36]	; (8000aec <cmd_default+0x2c>)
  localecho = 0;
 8000ac8:	4d09      	ldr	r5, [pc, #36]	; (8000af0 <cmd_default+0x30>)
  eot_enable = 0;
 8000aca:	4c0a      	ldr	r4, [pc, #40]	; (8000af4 <cmd_default+0x34>)
  localecho = 0;
 8000acc:	2300      	movs	r3, #0
  autoread = 0;
 8000ace:	700b      	strb	r3, [r1, #0]
  eot_char = 0;
 8000ad0:	7013      	strb	r3, [r2, #0]
  eos_code = 0;
 8000ad2:	4909      	ldr	r1, [pc, #36]	; (8000af8 <cmd_default+0x38>)
  set_eos_string(eos_code);
  timeout = 1200;
  debuglevel = 0;
 8000ad4:	4a09      	ldr	r2, [pc, #36]	; (8000afc <cmd_default+0x3c>)
  eoiUse = 0;
 8000ad6:	7003      	strb	r3, [r0, #0]
  eos_code = 0;
 8000ad8:	700b      	strb	r3, [r1, #0]
  debuglevel = 0;
 8000ada:	7013      	strb	r3, [r2, #0]
  localecho = 0;
 8000adc:	702b      	strb	r3, [r5, #0]
  eot_enable = 0;
 8000ade:	7023      	strb	r3, [r4, #0]
}
 8000ae0:	bc30      	pop	{r4, r5}
 8000ae2:	4770      	bx	lr
 8000ae4:	20000800 	.word	0x20000800
 8000ae8:	2000192e 	.word	0x2000192e
 8000aec:	2000192c 	.word	0x2000192c
 8000af0:	2000080b 	.word	0x2000080b
 8000af4:	2000192f 	.word	0x2000192f
 8000af8:	2000192d 	.word	0x2000192d
 8000afc:	20001904 	.word	0x20001904

08000b00 <get_descriptor>:
                                           uint8_t dindex,
                                           uint16_t lang) {

  (void)usbp;
  (void)lang;
  switch (dtype) {
 8000b00:	2902      	cmp	r1, #2
 8000b02:	d006      	beq.n	8000b12 <get_descriptor+0x12>
 8000b04:	2903      	cmp	r1, #3
 8000b06:	d006      	beq.n	8000b16 <get_descriptor+0x16>
  case USB_DESCRIPTOR_DEVICE:
    return &vcom_device_descriptor;
 8000b08:	2901      	cmp	r1, #1
 8000b0a:	4807      	ldr	r0, [pc, #28]	; (8000b28 <get_descriptor+0x28>)
 8000b0c:	bf18      	it	ne
 8000b0e:	2000      	movne	r0, #0
 8000b10:	4770      	bx	lr
  switch (dtype) {
 8000b12:	4806      	ldr	r0, [pc, #24]	; (8000b2c <get_descriptor+0x2c>)
 8000b14:	4770      	bx	lr
  case USB_DESCRIPTOR_CONFIGURATION:
    return &vcom_configuration_descriptor;
  case USB_DESCRIPTOR_STRING:
    if (dindex < 4)
 8000b16:	2a03      	cmp	r2, #3
 8000b18:	d803      	bhi.n	8000b22 <get_descriptor+0x22>
      return &vcom_strings[dindex];
 8000b1a:	4805      	ldr	r0, [pc, #20]	; (8000b30 <get_descriptor+0x30>)
 8000b1c:	eb00 00c2 	add.w	r0, r0, r2, lsl #3
 8000b20:	4770      	bx	lr
  }
  return NULL;
 8000b22:	2000      	movs	r0, #0
}
 8000b24:	4770      	bx	lr
 8000b26:	bf00      	nop
 8000b28:	0800836c 	.word	0x0800836c
 8000b2c:	08008318 	.word	0x08008318
 8000b30:	080083f4 	.word	0x080083f4
	...

08000b40 <requests_hook>:
 * Handling messages not implemented in the default handler nor in the
 * SerialUSB handler.
 */
static bool requests_hook(USBDriver *usbp) {

  if (((usbp->setup[0] & USB_RTYPE_RECIPIENT_MASK) == USB_RTYPE_RECIPIENT_INTERFACE) &&
 8000b40:	f890 3044 	ldrb.w	r3, [r0, #68]	; 0x44
 8000b44:	f003 021f 	and.w	r2, r3, #31
 8000b48:	2a01      	cmp	r2, #1
 8000b4a:	d103      	bne.n	8000b54 <requests_hook+0x14>
 8000b4c:	f890 1045 	ldrb.w	r1, [r0, #69]	; 0x45
 8000b50:	290b      	cmp	r1, #11
 8000b52:	d01b      	beq.n	8000b8c <requests_hook+0x4c>
  if ((usbp->setup[0] & USB_RTYPE_TYPE_MASK) == USB_RTYPE_TYPE_CLASS) {
 8000b54:	f003 0360 	and.w	r3, r3, #96	; 0x60
 8000b58:	2b20      	cmp	r3, #32
 8000b5a:	d001      	beq.n	8000b60 <requests_hook+0x20>
  return false;
 8000b5c:	2000      	movs	r0, #0
      (usbp->setup[1] == USB_REQ_SET_INTERFACE)) {
    usbSetupTransfer(usbp, NULL, 0, NULL);
    return true;
  }
  return sduRequestsHook(usbp);
}
 8000b5e:	4770      	bx	lr
    switch (usbp->setup[1]) {
 8000b60:	f890 3045 	ldrb.w	r3, [r0, #69]	; 0x45
 8000b64:	2b21      	cmp	r3, #33	; 0x21
 8000b66:	d809      	bhi.n	8000b7c <requests_hook+0x3c>
 8000b68:	2b1f      	cmp	r3, #31
 8000b6a:	d9f7      	bls.n	8000b5c <requests_hook+0x1c>
      usbSetupTransfer(usbp, (uint8_t *)&linecoding, sizeof(linecoding), NULL);
 8000b6c:	490a      	ldr	r1, [pc, #40]	; (8000b98 <requests_hook+0x58>)
 8000b6e:	2207      	movs	r2, #7
 8000b70:	2300      	movs	r3, #0
 8000b72:	e9c0 120e 	strd	r1, r2, [r0, #56]	; 0x38
 8000b76:	6403      	str	r3, [r0, #64]	; 0x40
      return true;
 8000b78:	2001      	movs	r0, #1
 8000b7a:	4770      	bx	lr
    switch (usbp->setup[1]) {
 8000b7c:	2b22      	cmp	r3, #34	; 0x22
 8000b7e:	d1ed      	bne.n	8000b5c <requests_hook+0x1c>
      usbSetupTransfer(usbp, NULL, 0, NULL);
 8000b80:	2300      	movs	r3, #0
 8000b82:	e9c0 330e 	strd	r3, r3, [r0, #56]	; 0x38
 8000b86:	6403      	str	r3, [r0, #64]	; 0x40
      return true;
 8000b88:	2001      	movs	r0, #1
 8000b8a:	4770      	bx	lr
    usbSetupTransfer(usbp, NULL, 0, NULL);
 8000b8c:	2300      	movs	r3, #0
 8000b8e:	e9c0 330e 	strd	r3, r3, [r0, #56]	; 0x38
 8000b92:	6403      	str	r3, [r0, #64]	; 0x40
    return true;
 8000b94:	4610      	mov	r0, r2
 8000b96:	4770      	bx	lr
 8000b98:	20000804 	.word	0x20000804
 8000b9c:	00000000 	.word	0x00000000

08000ba0 <icu_lld_serve_interrupt.constprop.0>:
 *
 * @param[in] icup      pointer to the @p ICUDriver object
 *
 * @notapi
 */
void icu_lld_serve_interrupt(ICUDriver *icup) {
 8000ba0:	b538      	push	{r3, r4, r5, lr}
  uint32_t sr;

  sr  = icup->tim->SR;
 8000ba2:	4d23      	ldr	r5, [pc, #140]	; (8000c30 <icu_lld_serve_interrupt.constprop.0+0x90>)
 8000ba4:	68eb      	ldr	r3, [r5, #12]
  sr &= icup->tim->DIER & STM32_TIM_DIER_IRQ_MASK;
  icup->tim->SR = ~sr;
  if (icup->config->channel == ICU_CHANNEL_1) {
 8000ba6:	6869      	ldr	r1, [r5, #4]
  sr  = icup->tim->SR;
 8000ba8:	691c      	ldr	r4, [r3, #16]
  sr &= icup->tim->DIER & STM32_TIM_DIER_IRQ_MASK;
 8000baa:	68da      	ldr	r2, [r3, #12]
 8000bac:	4014      	ands	r4, r2
 8000bae:	b2e2      	uxtb	r2, r4
  icup->tim->SR = ~sr;
 8000bb0:	43d2      	mvns	r2, r2
 8000bb2:	611a      	str	r2, [r3, #16]
  if (icup->config->channel == ICU_CHANNEL_1) {
 8000bb4:	7d0b      	ldrb	r3, [r1, #20]
 8000bb6:	b97b      	cbnz	r3, 8000bd8 <icu_lld_serve_interrupt.constprop.0+0x38>
    if ((sr & STM32_TIM_SR_CC2IF) != 0)
 8000bb8:	0760      	lsls	r0, r4, #29
 8000bba:	d52d      	bpl.n	8000c18 <icu_lld_serve_interrupt.constprop.0+0x78>
      _icu_isr_invoke_width_cb(icup);
 8000bbc:	782b      	ldrb	r3, [r5, #0]
 8000bbe:	2b04      	cmp	r3, #4
 8000bc0:	d026      	beq.n	8000c10 <icu_lld_serve_interrupt.constprop.0+0x70>
    if ((sr & STM32_TIM_SR_CC1IF) != 0)
 8000bc2:	07a1      	lsls	r1, r4, #30
 8000bc4:	d40f      	bmi.n	8000be6 <icu_lld_serve_interrupt.constprop.0+0x46>
    if ((sr & STM32_TIM_SR_CC1IF) != 0)
      _icu_isr_invoke_width_cb(icup);
    if ((sr & STM32_TIM_SR_CC2IF) != 0)
      _icu_isr_invoke_period_cb(icup);
  }
  if ((sr & STM32_TIM_SR_UIF) != 0)
 8000bc6:	07e4      	lsls	r4, r4, #31
 8000bc8:	d505      	bpl.n	8000bd6 <icu_lld_serve_interrupt.constprop.0+0x36>
    _icu_isr_invoke_overflow_cb(icup);
 8000bca:	686b      	ldr	r3, [r5, #4]
 8000bcc:	4818      	ldr	r0, [pc, #96]	; (8000c30 <icu_lld_serve_interrupt.constprop.0+0x90>)
 8000bce:	691b      	ldr	r3, [r3, #16]
 8000bd0:	4798      	blx	r3
 8000bd2:	2303      	movs	r3, #3
 8000bd4:	702b      	strb	r3, [r5, #0]
}
 8000bd6:	bd38      	pop	{r3, r4, r5, pc}
    if ((sr & STM32_TIM_SR_CC1IF) != 0)
 8000bd8:	07a2      	lsls	r2, r4, #30
 8000bda:	d50b      	bpl.n	8000bf4 <icu_lld_serve_interrupt.constprop.0+0x54>
      _icu_isr_invoke_width_cb(icup);
 8000bdc:	782b      	ldrb	r3, [r5, #0]
 8000bde:	2b04      	cmp	r3, #4
 8000be0:	d004      	beq.n	8000bec <icu_lld_serve_interrupt.constprop.0+0x4c>
    if ((sr & STM32_TIM_SR_CC2IF) != 0)
 8000be2:	0763      	lsls	r3, r4, #29
 8000be4:	d5ef      	bpl.n	8000bc6 <icu_lld_serve_interrupt.constprop.0+0x26>
      _icu_isr_invoke_period_cb(icup);
 8000be6:	2304      	movs	r3, #4
 8000be8:	702b      	strb	r3, [r5, #0]
 8000bea:	e7ec      	b.n	8000bc6 <icu_lld_serve_interrupt.constprop.0+0x26>
      _icu_isr_invoke_width_cb(icup);
 8000bec:	688b      	ldr	r3, [r1, #8]
 8000bee:	b1e3      	cbz	r3, 8000c2a <icu_lld_serve_interrupt.constprop.0+0x8a>
 8000bf0:	4628      	mov	r0, r5
 8000bf2:	4798      	blx	r3
    if ((sr & STM32_TIM_SR_CC2IF) != 0)
 8000bf4:	0763      	lsls	r3, r4, #29
 8000bf6:	d5e6      	bpl.n	8000bc6 <icu_lld_serve_interrupt.constprop.0+0x26>
      _icu_isr_invoke_period_cb(icup);
 8000bf8:	782b      	ldrb	r3, [r5, #0]
 8000bfa:	2b04      	cmp	r3, #4
 8000bfc:	d1f3      	bne.n	8000be6 <icu_lld_serve_interrupt.constprop.0+0x46>
 8000bfe:	6869      	ldr	r1, [r5, #4]
 8000c00:	68cb      	ldr	r3, [r1, #12]
 8000c02:	2b00      	cmp	r3, #0
 8000c04:	d0ef      	beq.n	8000be6 <icu_lld_serve_interrupt.constprop.0+0x46>
 8000c06:	480a      	ldr	r0, [pc, #40]	; (8000c30 <icu_lld_serve_interrupt.constprop.0+0x90>)
 8000c08:	4798      	blx	r3
 8000c0a:	2304      	movs	r3, #4
 8000c0c:	702b      	strb	r3, [r5, #0]
 8000c0e:	e7da      	b.n	8000bc6 <icu_lld_serve_interrupt.constprop.0+0x26>
      _icu_isr_invoke_width_cb(icup);
 8000c10:	688b      	ldr	r3, [r1, #8]
 8000c12:	b13b      	cbz	r3, 8000c24 <icu_lld_serve_interrupt.constprop.0+0x84>
 8000c14:	4628      	mov	r0, r5
 8000c16:	4798      	blx	r3
    if ((sr & STM32_TIM_SR_CC1IF) != 0)
 8000c18:	07a1      	lsls	r1, r4, #30
 8000c1a:	d5d4      	bpl.n	8000bc6 <icu_lld_serve_interrupt.constprop.0+0x26>
      _icu_isr_invoke_period_cb(icup);
 8000c1c:	782b      	ldrb	r3, [r5, #0]
 8000c1e:	2b04      	cmp	r3, #4
 8000c20:	d1e1      	bne.n	8000be6 <icu_lld_serve_interrupt.constprop.0+0x46>
 8000c22:	e7ec      	b.n	8000bfe <icu_lld_serve_interrupt.constprop.0+0x5e>
    if ((sr & STM32_TIM_SR_CC1IF) != 0)
 8000c24:	07a0      	lsls	r0, r4, #30
 8000c26:	d5ce      	bpl.n	8000bc6 <icu_lld_serve_interrupt.constprop.0+0x26>
 8000c28:	e7ea      	b.n	8000c00 <icu_lld_serve_interrupt.constprop.0+0x60>
    if ((sr & STM32_TIM_SR_CC2IF) != 0)
 8000c2a:	0762      	lsls	r2, r4, #29
 8000c2c:	d5cb      	bpl.n	8000bc6 <icu_lld_serve_interrupt.constprop.0+0x26>
 8000c2e:	e7e7      	b.n	8000c00 <icu_lld_serve_interrupt.constprop.0+0x60>
 8000c30:	20000938 	.word	0x20000938
	...

08000c40 <trace_next.constprop.0>:
 *
 * @notapi
 */
NOINLINE static void trace_next(os_instance_t *oip) {

  oip->trace_buffer.ptr->time    = chVTGetSystemTimeX();
 8000c40:	4a0b      	ldr	r2, [pc, #44]	; (8000c70 <trace_next.constprop.0+0x30>)
 8000c42:	480c      	ldr	r0, [pc, #48]	; (8000c74 <trace_next.constprop.0+0x34>)
 8000c44:	f8d2 3098 	ldr.w	r3, [r2, #152]	; 0x98
 *
 * @notapi
 */
static inline systime_t st_lld_get_counter(void) {

  return (systime_t)STM32_ST_TIM->CNT;
 8000c48:	f04f 4180 	mov.w	r1, #1073741824	; 0x40000000
 8000c4c:	6a49      	ldr	r1, [r1, #36]	; 0x24
 8000c4e:	6059      	str	r1, [r3, #4]
 8000c50:	6840      	ldr	r0, [r0, #4]
#if PORT_SUPPORTS_RT == TRUE
  oip->trace_buffer.ptr->rtstamp = chSysGetRealtimeCounterX();
 8000c52:	6819      	ldr	r1, [r3, #0]
 8000c54:	f360 211f 	bfi	r1, r0, #8, #24
 8000c58:	f843 1b10 	str.w	r1, [r3], #16
#endif

  /* Trace hook, useful in order to interface debug tools.*/
  CH_CFG_TRACE_HOOK(oip->trace_buffer.ptr);

  if (++oip->trace_buffer.ptr >= &oip->trace_buffer.buffer[CH_DBG_TRACE_BUFFER_SIZE]) {
 8000c5c:	f602 009c 	addw	r0, r2, #2204	; 0x89c
    oip->trace_buffer.ptr = &oip->trace_buffer.buffer[0];
 8000c60:	f102 019c 	add.w	r1, r2, #156	; 0x9c
 8000c64:	4283      	cmp	r3, r0
 8000c66:	bf28      	it	cs
 8000c68:	460b      	movcs	r3, r1
 8000c6a:	f8c2 3098 	str.w	r3, [r2, #152]	; 0x98
  }
}
 8000c6e:	4770      	bx	lr
 8000c70:	20000ec8 	.word	0x20000ec8
 8000c74:	e0001000 	.word	0xe0001000
	...

08000c80 <chSysHalt>:
 *
 * @param[in] reason        pointer to an error string
 *
 * @special
 */
void chSysHalt(const char *reason) {
 8000c80:	b508      	push	{r3, lr}
 8000c82:	4604      	mov	r4, r0
  __ASM volatile ("cpsid i" : : : "memory");
 8000c84:	b672      	cpsid	i
 * @notapi
 */
void __trace_halt(const char *reason) {
  os_instance_t *oip = currcore;

  if ((oip->trace_buffer.suspended & CH_DBG_TRACE_MASK_HALT) == 0U) {
 8000c86:	4d09      	ldr	r5, [pc, #36]	; (8000cac <chSysHalt+0x2c>)
 8000c88:	f8b5 3094 	ldrh.w	r3, [r5, #148]	; 0x94
 8000c8c:	071b      	lsls	r3, r3, #28
 8000c8e:	d505      	bpl.n	8000c9c <chSysHalt+0x1c>
     via some inter-core messaging or other means.*/
  PORT_SYSTEM_HALT_HOOK();
#endif

  /* Entering the halted state.*/
  ch_system.state = ch_sys_halted;
 8000c90:	4b07      	ldr	r3, [pc, #28]	; (8000cb0 <chSysHalt+0x30>)
  currcore->dbg.panic_msg = reason;
 8000c92:	f8c5 4088 	str.w	r4, [r5, #136]	; 0x88
  ch_system.state = ch_sys_halted;
 8000c96:	2203      	movs	r2, #3
 8000c98:	701a      	strb	r2, [r3, #0]

  /* Harmless infinite loop.*/
  while (true) {
 8000c9a:	e7fe      	b.n	8000c9a <chSysHalt+0x1a>
    oip->trace_buffer.ptr->type          = CH_TRACE_TYPE_HALT;
 8000c9c:	f8d5 3098 	ldr.w	r3, [r5, #152]	; 0x98
 8000ca0:	2205      	movs	r2, #5
 8000ca2:	701a      	strb	r2, [r3, #0]
    oip->trace_buffer.ptr->state         = 0;
    oip->trace_buffer.ptr->u.halt.reason = reason;
 8000ca4:	6098      	str	r0, [r3, #8]
    trace_next(oip);
 8000ca6:	f7ff ffcb 	bl	8000c40 <trace_next.constprop.0>
  }
}
 8000caa:	e7f1      	b.n	8000c90 <chSysHalt+0x10>
 8000cac:	20000ec8 	.word	0x20000ec8
 8000cb0:	200018e8 	.word	0x200018e8
	...

08000cc0 <otg_disable_ep.isra.0>:
static void otg_disable_ep(USBDriver *usbp) {
 8000cc0:	b470      	push	{r4, r5, r6}
  for (i = 0; i <= usbp->otgparams->num_endpoints; i++) {
 8000cc2:	2200      	movs	r2, #0
 8000cc4:	688e      	ldr	r6, [r1, #8]
    otgp->ie[i].DIEPINT = 0xFFFFFFFF;
 8000cc6:	f04f 34ff 	mov.w	r4, #4294967295	; 0xffffffff
 8000cca:	e000      	b.n	8000cce <otg_disable_ep.isra.0+0xe>
 8000ccc:	4662      	mov	r2, ip
 8000cce:	eb00 1142 	add.w	r1, r0, r2, lsl #5
 8000cd2:	460b      	mov	r3, r1
    if ((otgp->ie[i].DIEPCTL & DIEPCTL_EPENA) != 0U) {
 8000cd4:	f8d1 5900 	ldr.w	r5, [r1, #2304]	; 0x900
 8000cd8:	2d00      	cmp	r5, #0
  for (i = 0; i <= usbp->otgparams->num_endpoints; i++) {
 8000cda:	f102 0c01 	add.w	ip, r2, #1
    if ((otgp->ie[i].DIEPCTL & DIEPCTL_EPENA) != 0U) {
 8000cde:	da05      	bge.n	8000cec <otg_disable_ep.isra.0+0x2c>
      otgp->ie[i].DIEPCTL |= DIEPCTL_EPDIS;
 8000ce0:	f8d1 5900 	ldr.w	r5, [r1, #2304]	; 0x900
 8000ce4:	f045 4580 	orr.w	r5, r5, #1073741824	; 0x40000000
 8000ce8:	f8c1 5900 	str.w	r5, [r1, #2304]	; 0x900
    if ((otgp->oe[i].DOEPCTL & DIEPCTL_EPENA) != 0U) {
 8000cec:	f8d1 5b00 	ldr.w	r5, [r1, #2816]	; 0xb00
 8000cf0:	2d00      	cmp	r5, #0
 8000cf2:	da05      	bge.n	8000d00 <otg_disable_ep.isra.0+0x40>
      otgp->oe[i].DOEPCTL |= DIEPCTL_EPDIS;
 8000cf4:	f8d1 5b00 	ldr.w	r5, [r1, #2816]	; 0xb00
 8000cf8:	f045 4580 	orr.w	r5, r5, #1073741824	; 0x40000000
 8000cfc:	f8c1 5b00 	str.w	r5, [r1, #2816]	; 0xb00
  for (i = 0; i <= usbp->otgparams->num_endpoints; i++) {
 8000d00:	42b2      	cmp	r2, r6
    otgp->ie[i].DIEPINT = 0xFFFFFFFF;
 8000d02:	f8c3 4908 	str.w	r4, [r3, #2312]	; 0x908
    otgp->oe[i].DOEPINT = 0xFFFFFFFF;
 8000d06:	f8c3 4b08 	str.w	r4, [r3, #2824]	; 0xb08
  for (i = 0; i <= usbp->otgparams->num_endpoints; i++) {
 8000d0a:	d1df      	bne.n	8000ccc <otg_disable_ep.isra.0+0xc>
  otgp->DAINTMSK = DAINTMSK_OEPM(0) | DAINTMSK_IEPM(0);
 8000d0c:	f04f 1301 	mov.w	r3, #65537	; 0x10001
}
 8000d10:	bc70      	pop	{r4, r5, r6}
  otgp->DAINTMSK = DAINTMSK_OEPM(0) | DAINTMSK_IEPM(0);
 8000d12:	f8c0 381c 	str.w	r3, [r0, #2076]	; 0x81c
}
 8000d16:	4770      	bx	lr
	...

08000d20 <ibqReleaseEmptyBufferS>:
 * @api
 */
void chDbgCheckClassS(void) {
  os_instance_t *oip = currcore;

  if (unlikely((oip->dbg.isr_cnt != (cnt_t)0) ||
 8000d20:	4b12      	ldr	r3, [pc, #72]	; (8000d6c <ibqReleaseEmptyBufferS+0x4c>)
 8000d22:	f8d3 208c 	ldr.w	r2, [r3, #140]	; 0x8c
   *
   * @param[in] ibqp      pointer to the @p input_buffers_queue_t object
   *
   * @sclass
   */
  void ibqReleaseEmptyBufferS(input_buffers_queue_t *ibqp) {
 8000d26:	b510      	push	{r4, lr}
 8000d28:	b9d2      	cbnz	r2, 8000d60 <ibqReleaseEmptyBufferS+0x40>
 8000d2a:	f8d3 3090 	ldr.w	r3, [r3, #144]	; 0x90
 8000d2e:	2b00      	cmp	r3, #0
 8000d30:	dd16      	ble.n	8000d60 <ibqReleaseEmptyBufferS+0x40>

  osalDbgCheckClassS();
  osalDbgAssert(!ibqIsEmptyI(ibqp), "buffers queue empty");
 8000d32:	68c3      	ldr	r3, [r0, #12]
 8000d34:	b1bb      	cbz	r3, 8000d66 <ibqReleaseEmptyBufferS+0x46>

  /* Freeing a buffer slot in the queue.*/
  ibqp->bcounter--;
  ibqp->brdptr += ibqp->bsize;
  if (ibqp->brdptr >= ibqp->btop) {
 8000d36:	e9d0 3105 	ldrd	r3, r1, [r0, #20]
  ibqp->brdptr += ibqp->bsize;
 8000d3a:	f8d0 c01c 	ldr.w	ip, [r0, #28]
  ibqp->bcounter--;
 8000d3e:	68c2      	ldr	r2, [r0, #12]
  ibqp->brdptr += ibqp->bsize;
 8000d40:	4463      	add	r3, ip
  if (ibqp->brdptr >= ibqp->btop) {
 8000d42:	428b      	cmp	r3, r1
  ibqp->brdptr += ibqp->bsize;
 8000d44:	6143      	str	r3, [r0, #20]
    ibqp->brdptr = ibqp->buffers;
 8000d46:	bf24      	itt	cs
 8000d48:	6a43      	ldrcs	r3, [r0, #36]	; 0x24
 8000d4a:	6143      	strcs	r3, [r0, #20]
  ibqp->bcounter--;
 8000d4c:	3a01      	subs	r2, #1

  /* No "current" buffer.*/
  ibqp->ptr = NULL;

  /* Notifying the buffer release.*/
  if (ibqp->notify != NULL) {
 8000d4e:	6b03      	ldr	r3, [r0, #48]	; 0x30
  ibqp->bcounter--;
 8000d50:	60c2      	str	r2, [r0, #12]
  ibqp->ptr = NULL;
 8000d52:	2200      	movs	r2, #0
 8000d54:	6282      	str	r2, [r0, #40]	; 0x28
  if (ibqp->notify != NULL) {
 8000d56:	b113      	cbz	r3, 8000d5e <ibqReleaseEmptyBufferS+0x3e>
    ibqp->notify(ibqp);
  }
}
 8000d58:	e8bd 4010 	ldmia.w	sp!, {r4, lr}
    ibqp->notify(ibqp);
 8000d5c:	4718      	bx	r3
}
 8000d5e:	bd10      	pop	{r4, pc}
               (oip->dbg.lock_cnt <= (cnt_t)0))) {
    chSysHalt("SV#11");
 8000d60:	4803      	ldr	r0, [pc, #12]	; (8000d70 <ibqReleaseEmptyBufferS+0x50>)
 8000d62:	f7ff ff8d 	bl	8000c80 <chSysHalt>
  osalDbgAssert(!ibqIsEmptyI(ibqp), "buffers queue empty");
 8000d66:	4803      	ldr	r0, [pc, #12]	; (8000d74 <ibqReleaseEmptyBufferS+0x54>)
 8000d68:	f7ff ff8a 	bl	8000c80 <chSysHalt>
 8000d6c:	20000ec8 	.word	0x20000ec8
 8000d70:	080072dc 	.word	0x080072dc
 8000d74:	08008014 	.word	0x08008014
	...

08000d80 <obqPostFullBufferS>:
  if (unlikely((oip->dbg.isr_cnt != (cnt_t)0) ||
 8000d80:	4b15      	ldr	r3, [pc, #84]	; (8000dd8 <obqPostFullBufferS+0x58>)
 8000d82:	f8d3 208c 	ldr.w	r2, [r3, #140]	; 0x8c
 * @param[in] obqp      pointer to the @p output_buffers_queue_t object
 * @param[in] size      used size of the buffer, cannot be zero
 *
 * @sclass
 */
void obqPostFullBufferS(output_buffers_queue_t *obqp, size_t size) {
 8000d86:	b510      	push	{r4, lr}
 8000d88:	bb12      	cbnz	r2, 8000dd0 <obqPostFullBufferS+0x50>
 8000d8a:	f8d3 3090 	ldr.w	r3, [r3, #144]	; 0x90
 8000d8e:	2b00      	cmp	r3, #0
 8000d90:	dd1e      	ble.n	8000dd0 <obqPostFullBufferS+0x50>

  osalDbgCheckClassS();
  osalDbgCheck((size > 0U) && (size <= (obqp->bsize - sizeof (size_t))));
 8000d92:	b1c9      	cbz	r1, 8000dc8 <obqPostFullBufferS+0x48>
 8000d94:	69c3      	ldr	r3, [r0, #28]
 8000d96:	3b04      	subs	r3, #4
 8000d98:	428b      	cmp	r3, r1
 8000d9a:	d315      	bcc.n	8000dc8 <obqPostFullBufferS+0x48>
  osalDbgAssert(!obqIsFullI(obqp), "buffers queue full");
 8000d9c:	68c3      	ldr	r3, [r0, #12]
 8000d9e:	b19b      	cbz	r3, 8000dc8 <obqPostFullBufferS+0x48>

  /* Writing size field in the buffer.*/
  *((size_t *)(void *)obqp->bwrptr) = size;
 8000da0:	6903      	ldr	r3, [r0, #16]

  /* Posting the buffer in the queue.*/
  obqp->bcounter--;
  obqp->bwrptr += obqp->bsize;
  if (obqp->bwrptr >= obqp->btop) {
 8000da2:	6984      	ldr	r4, [r0, #24]
  *((size_t *)(void *)obqp->bwrptr) = size;
 8000da4:	6019      	str	r1, [r3, #0]
  obqp->bwrptr += obqp->bsize;
 8000da6:	69c1      	ldr	r1, [r0, #28]
  obqp->bcounter--;
 8000da8:	68c2      	ldr	r2, [r0, #12]
  obqp->bwrptr += obqp->bsize;
 8000daa:	440b      	add	r3, r1
  if (obqp->bwrptr >= obqp->btop) {
 8000dac:	42a3      	cmp	r3, r4
  obqp->bwrptr += obqp->bsize;
 8000dae:	6103      	str	r3, [r0, #16]
    obqp->bwrptr = obqp->buffers;
 8000db0:	bf24      	itt	cs
 8000db2:	6a43      	ldrcs	r3, [r0, #36]	; 0x24
 8000db4:	6103      	strcs	r3, [r0, #16]
  obqp->bcounter--;
 8000db6:	3a01      	subs	r2, #1

  /* No "current" buffer.*/
  obqp->ptr = NULL;

  /* Notifying the buffer release.*/
  if (obqp->notify != NULL) {
 8000db8:	6b03      	ldr	r3, [r0, #48]	; 0x30
  obqp->bcounter--;
 8000dba:	60c2      	str	r2, [r0, #12]
  obqp->ptr = NULL;
 8000dbc:	2200      	movs	r2, #0
 8000dbe:	6282      	str	r2, [r0, #40]	; 0x28
  if (obqp->notify != NULL) {
 8000dc0:	b12b      	cbz	r3, 8000dce <obqPostFullBufferS+0x4e>
    obqp->notify(obqp);
  }
}
 8000dc2:	e8bd 4010 	ldmia.w	sp!, {r4, lr}
    obqp->notify(obqp);
 8000dc6:	4718      	bx	r3
  osalDbgCheck((size > 0U) && (size <= (obqp->bsize - sizeof (size_t))));
 8000dc8:	4804      	ldr	r0, [pc, #16]	; (8000ddc <obqPostFullBufferS+0x5c>)
 8000dca:	f7ff ff59 	bl	8000c80 <chSysHalt>
}
 8000dce:	bd10      	pop	{r4, pc}
    chSysHalt("SV#11");
 8000dd0:	4803      	ldr	r0, [pc, #12]	; (8000de0 <obqPostFullBufferS+0x60>)
 8000dd2:	f7ff ff55 	bl	8000c80 <chSysHalt>
 8000dd6:	bf00      	nop
 8000dd8:	20000ec8 	.word	0x20000ec8
 8000ddc:	08007d5c 	.word	0x08007d5c
 8000de0:	080072dc 	.word	0x080072dc
	...

08000df0 <_ctl>:
static msg_t _ctl(void *ip, unsigned int operation, void *arg) {
 8000df0:	b508      	push	{r3, lr}
  osalDbgCheck(sdup != NULL);
 8000df2:	b130      	cbz	r0, 8000e02 <_ctl+0x12>
  switch (operation) {
 8000df4:	b129      	cbz	r1, 8000e02 <_ctl+0x12>
 8000df6:	2901      	cmp	r1, #1
 8000df8:	d001      	beq.n	8000dfe <_ctl+0xe>
}
 8000dfa:	2000      	movs	r0, #0
 8000dfc:	bd08      	pop	{r3, pc}
    osalDbgCheck(arg == NULL);
 8000dfe:	2a00      	cmp	r2, #0
 8000e00:	d0fb      	beq.n	8000dfa <_ctl+0xa>
    osalDbgAssert(false, "invalid CTL operation");
 8000e02:	4801      	ldr	r0, [pc, #4]	; (8000e08 <_ctl+0x18>)
 8000e04:	f7ff ff3c 	bl	8000c80 <chSysHalt>
 8000e08:	08007f88 	.word	0x08007f88
 8000e0c:	00000000 	.word	0x00000000

08000e10 <usbDisableEndpointsI>:
  if (unlikely((oip->dbg.isr_cnt < (cnt_t)0) ||
 8000e10:	4a12      	ldr	r2, [pc, #72]	; (8000e5c <usbDisableEndpointsI+0x4c>)
 8000e12:	f8d2 108c 	ldr.w	r1, [r2, #140]	; 0x8c
 8000e16:	2900      	cmp	r1, #0
 *
 * @param[in] usbp      pointer to the @p USBDriver object
 *
 * @iclass
 */
void usbDisableEndpointsI(USBDriver *usbp) {
 8000e18:	b510      	push	{r4, lr}
 8000e1a:	db18      	blt.n	8000e4e <usbDisableEndpointsI+0x3e>
 8000e1c:	f8d2 2090 	ldr.w	r2, [r2, #144]	; 0x90
 8000e20:	2a00      	cmp	r2, #0
 8000e22:	dd14      	ble.n	8000e4e <usbDisableEndpointsI+0x3e>
  unsigned i;

  osalDbgCheckClassI();
  osalDbgCheck(usbp != NULL);
 8000e24:	4603      	mov	r3, r0
 8000e26:	b1a8      	cbz	r0, 8000e54 <usbDisableEndpointsI+0x44>
  osalDbgAssert(usbp->state == USB_ACTIVE, "invalid state");
 8000e28:	7802      	ldrb	r2, [r0, #0]
 8000e2a:	2a04      	cmp	r2, #4
 8000e2c:	d112      	bne.n	8000e54 <usbDisableEndpointsI+0x44>

  usbp->transmitting &= 1U;
 8000e2e:	6880      	ldr	r0, [r0, #8]
  usbp->pmnext = usbp->otgparams->rx_fifo_size;
 8000e30:	6d99      	ldr	r1, [r3, #88]	; 0x58
      if (usbp->epc[i]->out_state != NULL) {
        osalThreadResumeI(&usbp->epc[i]->out_state->thread, MSG_RESET);
      }
    }
#endif
    usbp->epc[i] = NULL;
 8000e32:	2200      	movs	r2, #0
 8000e34:	680c      	ldr	r4, [r1, #0]
 8000e36:	65dc      	str	r4, [r3, #92]	; 0x5c
  usbp->transmitting &= 1U;
 8000e38:	f000 1001 	and.w	r0, r0, #65537	; 0x10001
 8000e3c:	6098      	str	r0, [r3, #8]
  }

  /* Low level endpoints deactivation.*/
  usb_lld_disable_endpoints(usbp);
}
 8000e3e:	e8bd 4010 	ldmia.w	sp!, {r4, lr}
    usbp->epc[i] = NULL;
 8000e42:	e9c3 2204 	strd	r2, r2, [r3, #16]
  otg_disable_ep(usbp);
 8000e46:	6d58      	ldr	r0, [r3, #84]	; 0x54
 8000e48:	619a      	str	r2, [r3, #24]
 8000e4a:	f7ff bf39 	b.w	8000cc0 <otg_disable_ep.isra.0>
    chSysHalt("SV#10");
 8000e4e:	4804      	ldr	r0, [pc, #16]	; (8000e60 <usbDisableEndpointsI+0x50>)
 8000e50:	f7ff ff16 	bl	8000c80 <chSysHalt>
  osalDbgCheck(usbp != NULL);
 8000e54:	4803      	ldr	r0, [pc, #12]	; (8000e64 <usbDisableEndpointsI+0x54>)
 8000e56:	f7ff ff13 	bl	8000c80 <chSysHalt>
 8000e5a:	bf00      	nop
 8000e5c:	20000ec8 	.word	0x20000ec8
 8000e60:	080072e4 	.word	0x080072e4
 8000e64:	0800802c 	.word	0x0800802c
	...

08000e70 <usbStartReceiveI>:
 *                      the packet size because the excess is discarded.
 *
 * @iclass
 */
void usbStartReceiveI(USBDriver *usbp, usbep_t ep,
                      uint8_t *buf, size_t n) {
 8000e70:	b5f8      	push	{r3, r4, r5, r6, r7, lr}
  if (unlikely((oip->dbg.isr_cnt < (cnt_t)0) ||
 8000e72:	4d14      	ldr	r5, [pc, #80]	; (8000ec4 <usbStartReceiveI+0x54>)
 8000e74:	f8d5 608c 	ldr.w	r6, [r5, #140]	; 0x8c
 8000e78:	2e00      	cmp	r6, #0
 8000e7a:	db20      	blt.n	8000ebe <usbStartReceiveI+0x4e>
 8000e7c:	f8d5 5090 	ldr.w	r5, [r5, #144]	; 0x90
 8000e80:	2d00      	cmp	r5, #0
 8000e82:	dd1c      	ble.n	8000ebe <usbStartReceiveI+0x4e>
  USBOutEndpointState *osp;

  osalDbgCheckClassI();
  osalDbgCheck((usbp != NULL) && (ep <= (usbep_t)USB_MAX_ENDPOINTS));
 8000e84:	b1c0      	cbz	r0, 8000eb8 <usbStartReceiveI+0x48>
 8000e86:	2903      	cmp	r1, #3
 8000e88:	d816      	bhi.n	8000eb8 <usbStartReceiveI+0x48>
  osalDbgAssert(!usbGetReceiveStatusI(usbp, ep), "already receiving");
 8000e8a:	8946      	ldrh	r6, [r0, #10]
 8000e8c:	f04f 0c01 	mov.w	ip, #1
 8000e90:	fa0c fc01 	lsl.w	ip, ip, r1
 8000e94:	ea1c 0506 	ands.w	r5, ip, r6
 8000e98:	fa1f f78c 	uxth.w	r7, ip
 8000e9c:	d10c      	bne.n	8000eb8 <usbStartReceiveI+0x48>
  /* Marking the endpoint as active.*/
  usbp->receiving |= (uint16_t)((unsigned)1U << (unsigned)ep);

  /* Setting up the transfer.*/
  /*lint -save -e661 [18.1] pclint is confused by the check on ep.*/
  osp = usbp->epc[ep]->out_state;
 8000e9e:	eb00 0481 	add.w	r4, r0, r1, lsl #2
  usbp->receiving |= (uint16_t)((unsigned)1U << (unsigned)ep);
 8000ea2:	433e      	orrs	r6, r7
  osp = usbp->epc[ep]->out_state;
 8000ea4:	68e4      	ldr	r4, [r4, #12]
  usbp->receiving |= (uint16_t)((unsigned)1U << (unsigned)ep);
 8000ea6:	8146      	strh	r6, [r0, #10]
  osp = usbp->epc[ep]->out_state;
 8000ea8:	69a4      	ldr	r4, [r4, #24]
  /*lint -restore*/
  osp->rxbuf  = buf;
  osp->rxsize = n;
  osp->rxcnt  = 0;
 8000eaa:	e9c4 3500 	strd	r3, r5, [r4]
  osp->rxbuf  = buf;
 8000eae:	60a2      	str	r2, [r4, #8]
  osp->thread = NULL;
#endif

  /* Starting transfer.*/
  usb_lld_start_out(usbp, ep);
}
 8000eb0:	e8bd 40f8 	ldmia.w	sp!, {r3, r4, r5, r6, r7, lr}
  usb_lld_start_out(usbp, ep);
 8000eb4:	f7ff bd04 	b.w	80008c0 <usb_lld_start_out>
  osalDbgCheck((usbp != NULL) && (ep <= (usbep_t)USB_MAX_ENDPOINTS));
 8000eb8:	4803      	ldr	r0, [pc, #12]	; (8000ec8 <usbStartReceiveI+0x58>)
 8000eba:	f7ff fee1 	bl	8000c80 <chSysHalt>
    chSysHalt("SV#10");
 8000ebe:	4803      	ldr	r0, [pc, #12]	; (8000ecc <usbStartReceiveI+0x5c>)
 8000ec0:	f7ff fede 	bl	8000c80 <chSysHalt>
 8000ec4:	20000ec8 	.word	0x20000ec8
 8000ec8:	08007fe4 	.word	0x08007fe4
 8000ecc:	080072e4 	.word	0x080072e4

08000ed0 <usbStartTransmitI>:
 * @param[in] n         transaction size
 *
 * @iclass
 */
void usbStartTransmitI(USBDriver *usbp, usbep_t ep,
                       const uint8_t *buf, size_t n) {
 8000ed0:	b5f8      	push	{r3, r4, r5, r6, r7, lr}
  if (unlikely((oip->dbg.isr_cnt < (cnt_t)0) ||
 8000ed2:	4d14      	ldr	r5, [pc, #80]	; (8000f24 <usbStartTransmitI+0x54>)
 8000ed4:	f8d5 608c 	ldr.w	r6, [r5, #140]	; 0x8c
 8000ed8:	2e00      	cmp	r6, #0
 8000eda:	db20      	blt.n	8000f1e <usbStartTransmitI+0x4e>
 8000edc:	f8d5 5090 	ldr.w	r5, [r5, #144]	; 0x90
 8000ee0:	2d00      	cmp	r5, #0
 8000ee2:	dd1c      	ble.n	8000f1e <usbStartTransmitI+0x4e>
  USBInEndpointState *isp;

  osalDbgCheckClassI();
  osalDbgCheck((usbp != NULL) && (ep <= (usbep_t)USB_MAX_ENDPOINTS));
 8000ee4:	b1c0      	cbz	r0, 8000f18 <usbStartTransmitI+0x48>
 8000ee6:	2903      	cmp	r1, #3
 8000ee8:	d816      	bhi.n	8000f18 <usbStartTransmitI+0x48>
  osalDbgAssert(!usbGetTransmitStatusI(usbp, ep), "already transmitting");
 8000eea:	8906      	ldrh	r6, [r0, #8]
 8000eec:	f04f 0c01 	mov.w	ip, #1
 8000ef0:	fa0c fc01 	lsl.w	ip, ip, r1
 8000ef4:	ea1c 0506 	ands.w	r5, ip, r6
 8000ef8:	fa1f f78c 	uxth.w	r7, ip
 8000efc:	d10c      	bne.n	8000f18 <usbStartTransmitI+0x48>
  /* Marking the endpoint as active.*/
  usbp->transmitting |= (uint16_t)((unsigned)1U << (unsigned)ep);

  /* Setting up the transfer.*/
  /*lint -save -e661 [18.1] pclint is confused by the check on ep.*/
  isp = usbp->epc[ep]->in_state;
 8000efe:	eb00 0481 	add.w	r4, r0, r1, lsl #2
  usbp->transmitting |= (uint16_t)((unsigned)1U << (unsigned)ep);
 8000f02:	433e      	orrs	r6, r7
  isp = usbp->epc[ep]->in_state;
 8000f04:	68e4      	ldr	r4, [r4, #12]
  usbp->transmitting |= (uint16_t)((unsigned)1U << (unsigned)ep);
 8000f06:	8106      	strh	r6, [r0, #8]
  isp = usbp->epc[ep]->in_state;
 8000f08:	6964      	ldr	r4, [r4, #20]
  /*lint -restore*/
  isp->txbuf  = buf;
  isp->txsize = n;
  isp->txcnt  = 0;
 8000f0a:	e9c4 3500 	strd	r3, r5, [r4]
  isp->txbuf  = buf;
 8000f0e:	60a2      	str	r2, [r4, #8]
  isp->thread = NULL;
#endif

  /* Starting transfer.*/
  usb_lld_start_in(usbp, ep);
}
 8000f10:	e8bd 40f8 	ldmia.w	sp!, {r3, r4, r5, r6, r7, lr}
  usb_lld_start_in(usbp, ep);
 8000f14:	f7ff bd1c 	b.w	8000950 <usb_lld_start_in>
  osalDbgCheck((usbp != NULL) && (ep <= (usbep_t)USB_MAX_ENDPOINTS));
 8000f18:	4803      	ldr	r0, [pc, #12]	; (8000f28 <usbStartTransmitI+0x58>)
 8000f1a:	f7ff feb1 	bl	8000c80 <chSysHalt>
    chSysHalt("SV#10");
 8000f1e:	4803      	ldr	r0, [pc, #12]	; (8000f2c <usbStartTransmitI+0x5c>)
 8000f20:	f7ff feae 	bl	8000c80 <chSysHalt>
 8000f24:	20000ec8 	.word	0x20000ec8
 8000f28:	08007f90 	.word	0x08007f90
 8000f2c:	080072e4 	.word	0x080072e4

08000f30 <obnotify>:
  SerialUSBDriver *sdup = bqGetLinkX(bqp);
 8000f30:	6b43      	ldr	r3, [r0, #52]	; 0x34
  if ((usbGetDriverStateI(sdup->config->usbp) != USB_ACTIVE) ||
 8000f32:	f8d3 248c 	ldr.w	r2, [r3, #1164]	; 0x48c
 8000f36:	6810      	ldr	r0, [r2, #0]
 8000f38:	7801      	ldrb	r1, [r0, #0]
 8000f3a:	2904      	cmp	r1, #4
 8000f3c:	d102      	bne.n	8000f44 <obnotify+0x14>
 8000f3e:	7a19      	ldrb	r1, [r3, #8]
 8000f40:	2902      	cmp	r1, #2
 8000f42:	d000      	beq.n	8000f46 <obnotify+0x16>
 8000f44:	4770      	bx	lr
  if (!usbGetTransmitStatusI(sdup->config->usbp, sdup->config->bulk_in)) {
 8000f46:	7911      	ldrb	r1, [r2, #4]
 8000f48:	f8b0 c008 	ldrh.w	ip, [r0, #8]
 8000f4c:	2201      	movs	r2, #1
 8000f4e:	408a      	lsls	r2, r1
 8000f50:	ea12 0f0c 	tst.w	r2, ip
 8000f54:	d1f6      	bne.n	8000f44 <obnotify+0x14>
  if (unlikely((oip->dbg.isr_cnt < (cnt_t)0) ||
 8000f56:	4a0e      	ldr	r2, [pc, #56]	; (8000f90 <obnotify+0x60>)
static void obnotify(io_buffers_queue_t *bqp) {
 8000f58:	b510      	push	{r4, lr}
 8000f5a:	f8d2 408c 	ldr.w	r4, [r2, #140]	; 0x8c
 8000f5e:	2c00      	cmp	r4, #0
 8000f60:	db13      	blt.n	8000f8a <obnotify+0x5a>
 8000f62:	f8d2 2090 	ldr.w	r2, [r2, #144]	; 0x90
 8000f66:	2a00      	cmp	r2, #0
 8000f68:	dd0f      	ble.n	8000f8a <obnotify+0x5a>
  if (obqIsEmptyI(obqp)) {
 8000f6a:	e9d3 4215 	ldrd	r4, r2, [r3, #84]	; 0x54
 8000f6e:	4294      	cmp	r4, r2
 8000f70:	d005      	beq.n	8000f7e <obnotify+0x4e>
}
 8000f72:	e8bd 4010 	ldmia.w	sp!, {r4, lr}
    usbStartTransmitI(sdup->config->usbp, sdup->config->bulk_in, buf, n);
 8000f76:	f852 3b04 	ldr.w	r3, [r2], #4
 8000f7a:	f7ff bfa9 	b.w	8000ed0 <usbStartTransmitI>
 8000f7e:	6d1b      	ldr	r3, [r3, #80]	; 0x50
 8000f80:	2b00      	cmp	r3, #0
 8000f82:	d0f6      	beq.n	8000f72 <obnotify+0x42>
    osalDbgAssert(buf != NULL, "buffer not found");
 8000f84:	4803      	ldr	r0, [pc, #12]	; (8000f94 <obnotify+0x64>)
 8000f86:	f7ff fe7b 	bl	8000c80 <chSysHalt>
    chSysHalt("SV#10");
 8000f8a:	4803      	ldr	r0, [pc, #12]	; (8000f98 <obnotify+0x68>)
 8000f8c:	f7ff fe78 	bl	8000c80 <chSysHalt>
 8000f90:	20000ec8 	.word	0x20000ec8
 8000f94:	08007fd8 	.word	0x08007fd8
 8000f98:	080072e4 	.word	0x080072e4
 8000f9c:	00000000 	.word	0x00000000

08000fa0 <_usb_ep0in>:
 * @param[in] usbp      pointer to the @p USBDriver object
 * @param[in] ep        endpoint number, always zero
 *
 * @notapi
 */
void _usb_ep0in(USBDriver *usbp, usbep_t ep) {
 8000fa0:	b570      	push	{r4, r5, r6, lr}
  size_t max;

  (void)ep;
  switch (usbp->ep0state) {
 8000fa2:	f890 3034 	ldrb.w	r3, [r0, #52]	; 0x34
 8000fa6:	3b06      	subs	r3, #6
void _usb_ep0in(USBDriver *usbp, usbep_t ep) {
 8000fa8:	4604      	mov	r4, r0
  switch (usbp->ep0state) {
 8000faa:	2b05      	cmp	r3, #5
 8000fac:	d804      	bhi.n	8000fb8 <_usb_ep0in+0x18>
 8000fae:	e8df f003 	tbb	[pc, r3]
 8000fb2:	0336      	.short	0x0336
 8000fb4:	2f130603 	.word	0x2f130603
    return;
  case USB_EP0_STP_WAITING:
  case USB_EP0_OUT_WAITING_STS:
  case USB_EP0_OUT_RX:
    /* All the above are invalid states in the IN phase.*/
    osalDbgAssert(false, "EP0 state machine error");
 8000fb8:	4833      	ldr	r0, [pc, #204]	; (8001088 <_usb_ep0in+0xe8>)
 8000fba:	f7ff fe61 	bl	8000c80 <chSysHalt>
    if ((usbp->ep0n < max) &&
 8000fbe:	6bc3      	ldr	r3, [r0, #60]	; 0x3c
    max = (size_t)get_hword(&usbp->setup[6]);
 8000fc0:	f8b0 204a 	ldrh.w	r2, [r0, #74]	; 0x4a
    if ((usbp->ep0n < max) &&
 8000fc4:	4293      	cmp	r3, r2
 8000fc6:	d207      	bcs.n	8000fd8 <_usb_ep0in+0x38>
        ((usbp->ep0n % usbp->epc[0]->in_maxsize) == 0U)) {
 8000fc8:	68c2      	ldr	r2, [r0, #12]
 8000fca:	8a12      	ldrh	r2, [r2, #16]
 8000fcc:	fbb3 f1f2 	udiv	r1, r3, r2
 8000fd0:	fb02 3311 	mls	r3, r2, r1, r3
    if ((usbp->ep0n < max) &&
 8000fd4:	2b00      	cmp	r3, #0
 8000fd6:	d03b      	beq.n	8001050 <_usb_ep0in+0xb0>
    usbp->ep0state = USB_EP0_OUT_WAITING_STS;
 8000fd8:	2314      	movs	r3, #20
 8000fda:	f884 3034 	strb.w	r3, [r4, #52]	; 0x34
  __ASM volatile ("MSR basepri, %0" : : "r" (basePri) : "memory");
 8000fde:	2330      	movs	r3, #48	; 0x30
 8000fe0:	f383 8811 	msr	BASEPRI, r3
  if (unlikely((oip->dbg.isr_cnt <= (cnt_t)0) ||
 8000fe4:	4e29      	ldr	r6, [pc, #164]	; (800108c <_usb_ep0in+0xec>)
 8000fe6:	f8d6 308c 	ldr.w	r3, [r6, #140]	; 0x8c
 8000fea:	2b00      	cmp	r3, #0
 8000fec:	dd2d      	ble.n	800104a <_usb_ep0in+0xaa>
 8000fee:	f8d6 5090 	ldr.w	r5, [r6, #144]	; 0x90
 8000ff2:	bb55      	cbnz	r5, 800104a <_usb_ep0in+0xaa>
  oip->dbg.lock_cnt = (cnt_t)1;
 8000ff4:	2201      	movs	r2, #1
 8000ff6:	f8c6 2090 	str.w	r2, [r6, #144]	; 0x90
    usbStartReceiveI(usbp, 0, NULL, 0);
 8000ffa:	462b      	mov	r3, r5
 8000ffc:	4620      	mov	r0, r4
 8000ffe:	462a      	mov	r2, r5
 8001000:	4629      	mov	r1, r5
 8001002:	f7ff ff35 	bl	8000e70 <usbStartReceiveI>
  oip->dbg.lock_cnt = (cnt_t)0;
 8001006:	f8c6 5090 	str.w	r5, [r6, #144]	; 0x90
 800100a:	f385 8811 	msr	BASEPRI, r5
    usbp->ep0state = USB_EP0_ERROR;
    return;
  default:
    osalDbgAssert(false, "EP0 state machine invalid state");
  }
}
 800100e:	bd70      	pop	{r4, r5, r6, pc}
    if (usbp->ep0endcb != NULL) {
 8001010:	6c03      	ldr	r3, [r0, #64]	; 0x40
 8001012:	b103      	cbz	r3, 8001016 <_usb_ep0in+0x76>
      usbp->ep0endcb(usbp);
 8001014:	4798      	blx	r3
    usbp->ep0state = USB_EP0_STP_WAITING;
 8001016:	2300      	movs	r3, #0
 8001018:	f884 3034 	strb.w	r3, [r4, #52]	; 0x34
}
 800101c:	bd70      	pop	{r4, r5, r6, pc}
    usb_lld_stall_in(usbp, 0);
 800101e:	6d43      	ldr	r3, [r0, #84]	; 0x54
    _usb_isr_invoke_event_cb(usbp, USB_EVENT_STALLED);
 8001020:	6841      	ldr	r1, [r0, #4]
 *
 * @notapi
 */
void usb_lld_stall_in(USBDriver *usbp, usbep_t ep) {

  usbp->otg->ie[ep].DIEPCTL |= DIEPCTL_STALL;
 8001022:	f8d3 2900 	ldr.w	r2, [r3, #2304]	; 0x900
 8001026:	680d      	ldr	r5, [r1, #0]
 8001028:	f442 1200 	orr.w	r2, r2, #2097152	; 0x200000
 800102c:	f8c3 2900 	str.w	r2, [r3, #2304]	; 0x900
  usbp->otg->oe[ep].DOEPCTL |= DOEPCTL_STALL;
 8001030:	f8d3 2b00 	ldr.w	r2, [r3, #2816]	; 0xb00
 8001034:	f442 1200 	orr.w	r2, r2, #2097152	; 0x200000
 8001038:	f8c3 2b00 	str.w	r2, [r3, #2816]	; 0xb00
 800103c:	b10d      	cbz	r5, 8001042 <_usb_ep0in+0xa2>
 800103e:	2106      	movs	r1, #6
 8001040:	47a8      	blx	r5
    usbp->ep0state = USB_EP0_ERROR;
 8001042:	2306      	movs	r3, #6
 8001044:	f884 3034 	strb.w	r3, [r4, #52]	; 0x34
}
 8001048:	bd70      	pop	{r4, r5, r6, pc}
    chSysHalt("SV#6");
 800104a:	4811      	ldr	r0, [pc, #68]	; (8001090 <_usb_ep0in+0xf0>)
 800104c:	f7ff fe18 	bl	8000c80 <chSysHalt>
 8001050:	2330      	movs	r3, #48	; 0x30
 8001052:	f383 8811 	msr	BASEPRI, r3
  if (unlikely((oip->dbg.isr_cnt <= (cnt_t)0) ||
 8001056:	4e0d      	ldr	r6, [pc, #52]	; (800108c <_usb_ep0in+0xec>)
 8001058:	f8d6 308c 	ldr.w	r3, [r6, #140]	; 0x8c
 800105c:	2b00      	cmp	r3, #0
 800105e:	ddf4      	ble.n	800104a <_usb_ep0in+0xaa>
 8001060:	f8d6 5090 	ldr.w	r5, [r6, #144]	; 0x90
 8001064:	2d00      	cmp	r5, #0
 8001066:	d1f0      	bne.n	800104a <_usb_ep0in+0xaa>
  oip->dbg.lock_cnt = (cnt_t)1;
 8001068:	2201      	movs	r2, #1
 800106a:	f8c6 2090 	str.w	r2, [r6, #144]	; 0x90
      usbStartTransmitI(usbp, 0, NULL, 0);
 800106e:	462b      	mov	r3, r5
 8001070:	462a      	mov	r2, r5
 8001072:	4629      	mov	r1, r5
 8001074:	f7ff ff2c 	bl	8000ed0 <usbStartTransmitI>
  oip->dbg.lock_cnt = (cnt_t)0;
 8001078:	f8c6 5090 	str.w	r5, [r6, #144]	; 0x90
 800107c:	f385 8811 	msr	BASEPRI, r5
      usbp->ep0state = USB_EP0_IN_WAITING_TX0;
 8001080:	230a      	movs	r3, #10
 8001082:	f884 3034 	strb.w	r3, [r4, #52]	; 0x34
}
 8001086:	bd70      	pop	{r4, r5, r6, pc}
 8001088:	08007db4 	.word	0x08007db4
 800108c:	20000ec8 	.word	0x20000ec8
 8001090:	080072ec 	.word	0x080072ec
	...

080010a0 <_usb_ep0out>:
 * @param[in] usbp      pointer to the @p USBDriver object
 * @param[in] ep        endpoint number, always zero
 *
 * @notapi
 */
void _usb_ep0out(USBDriver *usbp, usbep_t ep) {
 80010a0:	b538      	push	{r3, r4, r5, lr}

  (void)ep;
  switch (usbp->ep0state) {
 80010a2:	f890 1034 	ldrb.w	r1, [r0, #52]	; 0x34
 80010a6:	2914      	cmp	r1, #20
void _usb_ep0out(USBDriver *usbp, usbep_t ep) {
 80010a8:	4604      	mov	r4, r0
  switch (usbp->ep0state) {
 80010aa:	d006      	beq.n	80010ba <_usb_ep0out+0x1a>
 80010ac:	2915      	cmp	r1, #21
 80010ae:	d024      	beq.n	80010fa <_usb_ep0out+0x5a>
 80010b0:	2906      	cmp	r1, #6
 80010b2:	d00d      	beq.n	80010d0 <_usb_ep0out+0x30>
  case USB_EP0_STP_WAITING:
  case USB_EP0_IN_TX:
  case USB_EP0_IN_WAITING_TX0:
  case USB_EP0_IN_SENDING_STS:
    /* All the above are invalid states in the IN phase.*/
    osalDbgAssert(false, "EP0 state machine error");
 80010b4:	4820      	ldr	r0, [pc, #128]	; (8001138 <_usb_ep0out+0x98>)
 80010b6:	f7ff fde3 	bl	8000c80 <chSysHalt>
    if (usbGetReceiveTransactionSizeX(usbp, 0) != 0U) {
 80010ba:	68c3      	ldr	r3, [r0, #12]
 80010bc:	699b      	ldr	r3, [r3, #24]
 80010be:	685b      	ldr	r3, [r3, #4]
 80010c0:	b92b      	cbnz	r3, 80010ce <_usb_ep0out+0x2e>
    if (usbp->ep0endcb != NULL) {
 80010c2:	6c03      	ldr	r3, [r0, #64]	; 0x40
 80010c4:	b103      	cbz	r3, 80010c8 <_usb_ep0out+0x28>
      usbp->ep0endcb(usbp);
 80010c6:	4798      	blx	r3
    usbp->ep0state = USB_EP0_STP_WAITING;
 80010c8:	2300      	movs	r3, #0
 80010ca:	f884 3034 	strb.w	r3, [r4, #52]	; 0x34
    usbp->ep0state = USB_EP0_ERROR;
    return;
  default:
    osalDbgAssert(false, "EP0 state machine invalid state");
  }
}
 80010ce:	bd38      	pop	{r3, r4, r5, pc}
    usb_lld_stall_in(usbp, 0);
 80010d0:	6d43      	ldr	r3, [r0, #84]	; 0x54
  usbp->otg->ie[ep].DIEPCTL |= DIEPCTL_STALL;
 80010d2:	f8d3 2900 	ldr.w	r2, [r3, #2304]	; 0x900
 80010d6:	f442 1200 	orr.w	r2, r2, #2097152	; 0x200000
 80010da:	f8c3 2900 	str.w	r2, [r3, #2304]	; 0x900
  usbp->otg->oe[ep].DOEPCTL |= DOEPCTL_STALL;
 80010de:	f8d3 2b00 	ldr.w	r2, [r3, #2816]	; 0xb00
 80010e2:	f442 1200 	orr.w	r2, r2, #2097152	; 0x200000
 80010e6:	f8c3 2b00 	str.w	r2, [r3, #2816]	; 0xb00
    _usb_isr_invoke_event_cb(usbp, USB_EVENT_STALLED);
 80010ea:	6843      	ldr	r3, [r0, #4]
 80010ec:	681b      	ldr	r3, [r3, #0]
 80010ee:	b103      	cbz	r3, 80010f2 <_usb_ep0out+0x52>
 80010f0:	4798      	blx	r3
    usbp->ep0state = USB_EP0_ERROR;
 80010f2:	2306      	movs	r3, #6
 80010f4:	f884 3034 	strb.w	r3, [r4, #52]	; 0x34
}
 80010f8:	bd38      	pop	{r3, r4, r5, pc}
    usbp->ep0state = USB_EP0_IN_SENDING_STS;
 80010fa:	230b      	movs	r3, #11
 80010fc:	f880 3034 	strb.w	r3, [r0, #52]	; 0x34
 8001100:	2330      	movs	r3, #48	; 0x30
 8001102:	f383 8811 	msr	BASEPRI, r3
  if (unlikely((oip->dbg.isr_cnt <= (cnt_t)0) ||
 8001106:	4d0d      	ldr	r5, [pc, #52]	; (800113c <_usb_ep0out+0x9c>)
 8001108:	f8d5 308c 	ldr.w	r3, [r5, #140]	; 0x8c
 800110c:	2b00      	cmp	r3, #0
 800110e:	dd0f      	ble.n	8001130 <_usb_ep0out+0x90>
 8001110:	f8d5 4090 	ldr.w	r4, [r5, #144]	; 0x90
 8001114:	b964      	cbnz	r4, 8001130 <_usb_ep0out+0x90>
  oip->dbg.lock_cnt = (cnt_t)1;
 8001116:	2201      	movs	r2, #1
 8001118:	f8c5 2090 	str.w	r2, [r5, #144]	; 0x90
    usbStartTransmitI(usbp, 0, NULL, 0);
 800111c:	4623      	mov	r3, r4
 800111e:	4622      	mov	r2, r4
 8001120:	4621      	mov	r1, r4
 8001122:	f7ff fed5 	bl	8000ed0 <usbStartTransmitI>
  oip->dbg.lock_cnt = (cnt_t)0;
 8001126:	f8c5 4090 	str.w	r4, [r5, #144]	; 0x90
 800112a:	f384 8811 	msr	BASEPRI, r4
}
 800112e:	bd38      	pop	{r3, r4, r5, pc}
    chSysHalt("SV#6");
 8001130:	4803      	ldr	r0, [pc, #12]	; (8001140 <_usb_ep0out+0xa0>)
 8001132:	f7ff fda5 	bl	8000c80 <chSysHalt>
 8001136:	bf00      	nop
 8001138:	08007cd0 	.word	0x08007cd0
 800113c:	20000ec8 	.word	0x20000ec8
 8001140:	080072ec 	.word	0x080072ec
	...

08001150 <vt_set_alarm>:
 *
 * @notapi
 */
static inline bool st_lld_is_alarm_active(void) {

  return (bool)((STM32_ST_TIM->DIER & STM32_TIM_DIER_CC1IE) != 0);
 8001150:	f04f 4380 	mov.w	r3, #1073741824	; 0x40000000
 8001154:	2902      	cmp	r1, #2
 8001156:	68da      	ldr	r2, [r3, #12]
 8001158:	bf38      	it	cc
 800115a:	2102      	movcc	r1, #2
 *
 * @api
 */
void stSetAlarm(systime_t abstime) {

  osalDbgAssert(stIsAlarmActive() != false, "not active");
 800115c:	0792      	lsls	r2, r2, #30
 *          in order to compensate for the event.
 *
 * @param[in] now       last known system time
 * @param[in] delay     delay over @p now
 */
static void vt_set_alarm(systime_t now, sysinterval_t delay) {
 800115e:	b510      	push	{r4, lr}

#if CH_CFG_ST_RESOLUTION != CH_CFG_INTERVALS_SIZE
  chDbgCheck(interval <= (sysinterval_t)TIME_MAX_SYSTIME);
#endif

  return systime + (systime_t)interval;
 8001160:	eb00 0401 	add.w	r4, r0, r1
 8001164:	d51b      	bpl.n	800119e <vt_set_alarm+0x4e>
  STM32_ST_TIM->CCR[0] = (uint32_t)abstime;
 8001166:	635c      	str	r4, [r3, #52]	; 0x34
  return (systime_t)STM32_ST_TIM->CNT;
 8001168:	6a5a      	ldr	r2, [r3, #36]	; 0x24
 */
static inline sysinterval_t chTimeDiffX(systime_t start, systime_t end) {

  /*lint -save -e9033 [10.8] This cast is required by the operation, it is
    known that the destination type can be wider.*/
  return (sysinterval_t)((systime_t)(end - start));
 800116a:	1a10      	subs	r0, r2, r0
       that the alarm is set before the deadline is reached because the
       comparison could happen on the transition depending on the timer
       architecture.*/
    newnow = chVTGetSystemTimeX();
    nowdelta = chTimeDiffX(now, newnow);
    if (likely(nowdelta < delay)) {
 800116c:	4281      	cmp	r1, r0
 800116e:	bf98      	it	ls
 8001170:	2102      	movls	r1, #2
 8001172:	d901      	bls.n	8001178 <vt_set_alarm+0x28>
  }
#else
  /* Assertions as fallback.*/
  chDbgAssert(currdelta <= CH_CFG_ST_TIMEDELTA, "insufficient delta");
#endif
}
 8001174:	bd10      	pop	{r4, pc}
 8001176:	4602      	mov	r2, r0
  return (bool)((STM32_ST_TIM->DIER & STM32_TIM_DIER_CC1IE) != 0);
 8001178:	68d8      	ldr	r0, [r3, #12]
    currdelta += (sysinterval_t)1;
 800117a:	3101      	adds	r1, #1
 800117c:	0780      	lsls	r0, r0, #30
  return systime + (systime_t)interval;
 800117e:	eb01 0402 	add.w	r4, r1, r2
 8001182:	d50c      	bpl.n	800119e <vt_set_alarm+0x4e>
  STM32_ST_TIM->CCR[0] = (uint32_t)abstime;
 8001184:	635c      	str	r4, [r3, #52]	; 0x34
  return (systime_t)STM32_ST_TIM->CNT;
 8001186:	6a58      	ldr	r0, [r3, #36]	; 0x24
  return (sysinterval_t)((systime_t)(end - start));
 8001188:	1a82      	subs	r2, r0, r2
    if (likely(nowdelta < delay)) {
 800118a:	428a      	cmp	r2, r1
 800118c:	d2f3      	bcs.n	8001176 <vt_set_alarm+0x26>
  if (currdelta > CH_CFG_ST_TIMEDELTA) {
 800118e:	2902      	cmp	r1, #2
 8001190:	d9f0      	bls.n	8001174 <vt_set_alarm+0x24>
 * @param[in] mask      fault flags to be added
 */
void chRFCUCollectFaultsI(rfcu_mask_t mask) {

#if CH_CFG_SMP_MODE == FALSE
  currcore->rfcu.mask |= mask;
 8001192:	4a04      	ldr	r2, [pc, #16]	; (80011a4 <vt_set_alarm+0x54>)
 8001194:	6b53      	ldr	r3, [r2, #52]	; 0x34
 8001196:	f043 0301 	orr.w	r3, r3, #1
 800119a:	6353      	str	r3, [r2, #52]	; 0x34
}
 800119c:	bd10      	pop	{r4, pc}
 800119e:	4802      	ldr	r0, [pc, #8]	; (80011a8 <vt_set_alarm+0x58>)
 80011a0:	f7ff fd6e 	bl	8000c80 <chSysHalt>
 80011a4:	20000ec8 	.word	0x20000ec8
 80011a8:	08007d50 	.word	0x08007d50
 80011ac:	00000000 	.word	0x00000000

080011b0 <chVTDoResetI>:
  if (unlikely((oip->dbg.isr_cnt < (cnt_t)0) ||
 80011b0:	4a1f      	ldr	r2, [pc, #124]	; (8001230 <chVTDoResetI+0x80>)
 *
 * @param[in] vtp       pointer to a @p virtual_timer_t structure
 *
 * @iclass
 */
void chVTDoResetI(virtual_timer_t *vtp) {
 80011b2:	b538      	push	{r3, r4, r5, lr}
 80011b4:	f8d2 308c 	ldr.w	r3, [r2, #140]	; 0x8c
 80011b8:	2b00      	cmp	r3, #0
 80011ba:	db2f      	blt.n	800121c <chVTDoResetI+0x6c>
 80011bc:	f8d2 3090 	ldr.w	r3, [r2, #144]	; 0x90
 80011c0:	2b00      	cmp	r3, #0
 80011c2:	dd2b      	ble.n	800121c <chVTDoResetI+0x6c>
 */
static inline bool chVTIsArmedI(const virtual_timer_t *vtp) {

  chDbgCheckClassI();

  return (bool)(vtp->dlist.next != NULL);
 80011c4:	6803      	ldr	r3, [r0, #0]
  virtual_timers_list_t *vtlp = &currcore->vtlist;

  chDbgCheckClassI();
  chDbgCheck(vtp != NULL);
  chDbgAssert(chVTIsArmedI(vtp), "timer not armed");
 80011c6:	b363      	cbz	r3, 8001222 <chVTDoResetI+0x72>
 * @notapi
 */
static inline bool ch_dlist_isfirst(ch_delta_list_t *dlhp,
                                    ch_delta_list_t *dlp) {

  return (bool)(dlhp->next == dlp);
 80011c8:	6911      	ldr	r1, [r2, #16]
  systime_t now;
  sysinterval_t nowdelta, delta;

  /* If the timer is not the first of the list then it is simply unlinked
     else the operation is more complex.*/
  if (!ch_dlist_isfirst(&vtlp->dlist, &vtp->dlist)) {
 80011ca:	4288      	cmp	r0, r1
 80011cc:	d00c      	beq.n	80011e8 <chVTDoResetI+0x38>

    /* Removing the element from the delta list.*/
    (void) ch_dlist_dequeue(&vtp->dlist);

    /* Adding delta to the next element, if it is not the last one.*/
    vtp->dlist.next->delta += vtp->dlist.delta;
 80011ce:	e9d0 4501 	ldrd	r4, r5, [r0, #4]
 80011d2:	6899      	ldr	r1, [r3, #8]
 *
 * @notapi
 */
static inline ch_delta_list_t *ch_dlist_dequeue(ch_delta_list_t *dlp) {

  dlp->prev->next = dlp->next;
 80011d4:	6023      	str	r3, [r4, #0]
 80011d6:	4429      	add	r1, r5
 80011d8:	e9c3 4101 	strd	r4, r1, [r3, #4]

    /* Marking timer as not armed.*/
    vtp->dlist.next = NULL;
 80011dc:	2100      	movs	r1, #0

    /* Special case when the removed element from the last position in the list,
       the value in the header must be restored, just doing it is faster than
       checking then doing.*/
    vtlp->dlist.delta = (sysinterval_t)-1;
 80011de:	f04f 33ff 	mov.w	r3, #4294967295	; 0xffffffff
    vtp->dlist.next = NULL;
 80011e2:	6001      	str	r1, [r0, #0]
    vtlp->dlist.delta = (sysinterval_t)-1;
 80011e4:	6193      	str	r3, [r2, #24]
  delta = vtlp->dlist.next->delta - nowdelta;

  /* Setting up the alarm.*/
  vt_set_alarm(now, delta);
#endif /* CH_CFG_ST_TIMEDELTA > 0 */
}
 80011e6:	bd38      	pop	{r3, r4, r5, pc}
  dlhp->next       = dlp->next;
 80011e8:	4611      	mov	r1, r2
  vtp->dlist.next = NULL;
 80011ea:	2500      	movs	r5, #0
 80011ec:	f841 3f10 	str.w	r3, [r1, #16]!
  dlhp->next->prev = dlhp;
 80011f0:	6059      	str	r1, [r3, #4]
 80011f2:	6005      	str	r5, [r0, #0]
  return (bool)(dlhp == dlhp->next);
 80011f4:	6914      	ldr	r4, [r2, #16]
  if (ch_dlist_isempty(&vtlp->dlist)) {
 80011f6:	428c      	cmp	r4, r1
 80011f8:	d016      	beq.n	8001228 <chVTDoResetI+0x78>
  vtlp->dlist.next->delta += vtp->dlist.delta;
 80011fa:	6880      	ldr	r0, [r0, #8]
 80011fc:	68a3      	ldr	r3, [r4, #8]
 80011fe:	f04f 4180 	mov.w	r1, #1073741824	; 0x40000000
 8001202:	4403      	add	r3, r0
 8001204:	60a3      	str	r3, [r4, #8]
 8001206:	6a48      	ldr	r0, [r1, #36]	; 0x24
  nowdelta = chTimeDiffX(vtlp->lasttime, now);
 8001208:	69d1      	ldr	r1, [r2, #28]
 800120a:	1a42      	subs	r2, r0, r1
  if (nowdelta >= vtlp->dlist.next->delta) {
 800120c:	4293      	cmp	r3, r2
 800120e:	d9ea      	bls.n	80011e6 <chVTDoResetI+0x36>
  delta = vtlp->dlist.next->delta - nowdelta;
 8001210:	1a09      	subs	r1, r1, r0
  vt_set_alarm(now, delta);
 8001212:	4419      	add	r1, r3
}
 8001214:	e8bd 4038 	ldmia.w	sp!, {r3, r4, r5, lr}
  vt_set_alarm(now, delta);
 8001218:	f7ff bf9a 	b.w	8001150 <vt_set_alarm>
    chSysHalt("SV#10");
 800121c:	4805      	ldr	r0, [pc, #20]	; (8001234 <chVTDoResetI+0x84>)
 800121e:	f7ff fd2f 	bl	8000c80 <chSysHalt>
  chDbgAssert(chVTIsArmedI(vtp), "timer not armed");
 8001222:	4805      	ldr	r0, [pc, #20]	; (8001238 <chVTDoResetI+0x88>)
 8001224:	f7ff fd2c 	bl	8000c80 <chSysHalt>
  STM32_ST_TIM->DIER = 0U;
 8001228:	f04f 4380 	mov.w	r3, #1073741824	; 0x40000000
 800122c:	60dd      	str	r5, [r3, #12]
}
 800122e:	bd38      	pop	{r3, r4, r5, pc}
 8001230:	20000ec8 	.word	0x20000ec8
 8001234:	080072e4 	.word	0x080072e4
 8001238:	08007f48 	.word	0x08007f48
 800123c:	00000000 	.word	0x00000000

08001240 <__sch_ready_ahead>:
static thread_t *__sch_ready_ahead(thread_t *tp) {
 8001240:	b510      	push	{r4, lr}
  chDbgAssert((tp->state != CH_STATE_READY) &&
 8001242:	f890 3028 	ldrb.w	r3, [r0, #40]	; 0x28
 8001246:	b31b      	cbz	r3, 8001290 <__sch_ready_ahead+0x50>
 8001248:	2b0f      	cmp	r3, #15
 800124a:	d021      	beq.n	8001290 <__sch_ready_ahead+0x50>
  if ((oip->trace_buffer.suspended & CH_DBG_TRACE_MASK_READY) == 0U) {
 800124c:	4a12      	ldr	r2, [pc, #72]	; (8001298 <__sch_ready_ahead+0x58>)
 800124e:	f8b2 1094 	ldrh.w	r1, [r2, #148]	; 0x94
 8001252:	07c9      	lsls	r1, r1, #31
 8001254:	4604      	mov	r4, r0
 8001256:	d50f      	bpl.n	8001278 <__sch_ready_ahead+0x38>
  tp->state = CH_STATE_READY;
 8001258:	2200      	movs	r2, #0
  return threadref(ch_pqueue_insert_ahead(&tp->owner->rlist.pqueue,
 800125a:	69a3      	ldr	r3, [r4, #24]
  } while (unlikely(pqp->prio > p->prio));
 800125c:	68a1      	ldr	r1, [r4, #8]
  tp->state = CH_STATE_READY;
 800125e:	f884 2028 	strb.w	r2, [r4, #40]	; 0x28
    pqp = pqp->next;
 8001262:	681b      	ldr	r3, [r3, #0]
  } while (unlikely(pqp->prio > p->prio));
 8001264:	689a      	ldr	r2, [r3, #8]
 8001266:	428a      	cmp	r2, r1
 8001268:	d8fb      	bhi.n	8001262 <__sch_ready_ahead+0x22>
  p->prev       = pqp->prev;
 800126a:	685a      	ldr	r2, [r3, #4]
}
 800126c:	4620      	mov	r0, r4
 800126e:	e9c4 3200 	strd	r3, r2, [r4]
  p->prev->next = p;
 8001272:	6014      	str	r4, [r2, #0]
  pqp->prev     = p;
 8001274:	605c      	str	r4, [r3, #4]
 8001276:	bd10      	pop	{r4, pc}
    oip->trace_buffer.ptr->type        = CH_TRACE_TYPE_READY;
 8001278:	f8d2 2098 	ldr.w	r2, [r2, #152]	; 0x98
  __trace_ready(tp, tp->u.rdymsg);
 800127c:	6ac1      	ldr	r1, [r0, #44]	; 0x2c
 800127e:	00db      	lsls	r3, r3, #3
 8001280:	f043 0301 	orr.w	r3, r3, #1
    oip->trace_buffer.ptr->u.rdy.msg   = msg;
 8001284:	e9c2 0102 	strd	r0, r1, [r2, #8]
    oip->trace_buffer.ptr->type        = CH_TRACE_TYPE_READY;
 8001288:	7013      	strb	r3, [r2, #0]
    trace_next(oip);
 800128a:	f7ff fcd9 	bl	8000c40 <trace_next.constprop.0>
}
 800128e:	e7e3      	b.n	8001258 <__sch_ready_ahead+0x18>
  chDbgAssert((tp->state != CH_STATE_READY) &&
 8001290:	4802      	ldr	r0, [pc, #8]	; (800129c <__sch_ready_ahead+0x5c>)
 8001292:	f7ff fcf5 	bl	8000c80 <chSysHalt>
 8001296:	bf00      	nop
 8001298:	20000ec8 	.word	0x20000ec8
 800129c:	08007d28 	.word	0x08007d28

080012a0 <chThdCreateSuspendedI>:
  if (unlikely((oip->dbg.isr_cnt < (cnt_t)0) ||
 80012a0:	4a2d      	ldr	r2, [pc, #180]	; (8001358 <chThdCreateSuspendedI+0xb8>)
 80012a2:	f8d2 308c 	ldr.w	r3, [r2, #140]	; 0x8c
 80012a6:	2b00      	cmp	r3, #0
 * @return              The pointer to the @p thread_t structure allocated for
 *                      the thread into the working space area.
 *
 * @iclass
 */
thread_t *chThdCreateSuspendedI(const thread_descriptor_t *tdp) {
 80012a8:	b570      	push	{r4, r5, r6, lr}
 80012aa:	db51      	blt.n	8001350 <chThdCreateSuspendedI+0xb0>
 80012ac:	f8d2 3090 	ldr.w	r3, [r2, #144]	; 0x90
 80012b0:	2b00      	cmp	r3, #0
 80012b2:	dd4d      	ble.n	8001350 <chThdCreateSuspendedI+0xb0>
  thread_t *tp;

  chDbgCheckClassI();
  chDbgCheck(tdp != NULL);
  chDbgCheck(MEM_IS_ALIGNED(tdp->wbase, PORT_WORKING_AREA_ALIGN) &&
 80012b4:	6841      	ldr	r1, [r0, #4]
 80012b6:	074b      	lsls	r3, r1, #29
 80012b8:	d147      	bne.n	800134a <chThdCreateSuspendedI+0xaa>
 80012ba:	6883      	ldr	r3, [r0, #8]
 80012bc:	f013 0407 	ands.w	r4, r3, #7
 80012c0:	d143      	bne.n	800134a <chThdCreateSuspendedI+0xaa>
 80012c2:	4299      	cmp	r1, r3
 80012c4:	d241      	bcs.n	800134a <chThdCreateSuspendedI+0xaa>
 80012c6:	1a5d      	subs	r5, r3, r1
 80012c8:	2def      	cmp	r5, #239	; 0xef
 80012ca:	d93e      	bls.n	800134a <chThdCreateSuspendedI+0xaa>
             MEM_IS_ALIGNED(tdp->wend, PORT_STACK_ALIGN) &&
             (tdp->wend > tdp->wbase) &&
             (((size_t)tdp->wend - (size_t)tdp->wbase) >= THD_WORKING_AREA_SIZE(0)));
  chDbgCheck((tdp->prio <= HIGHPRIO) && (tdp->funcp != NULL));
 80012cc:	68c5      	ldr	r5, [r0, #12]
 80012ce:	2dff      	cmp	r5, #255	; 0xff
 80012d0:	d83b      	bhi.n	800134a <chThdCreateSuspendedI+0xaa>
 80012d2:	6906      	ldr	r6, [r0, #16]
 80012d4:	b3ce      	cbz	r6, 800134a <chThdCreateSuspendedI+0xaa>
  tp = threadref(((uint8_t *)tdp->wend -
                 MEM_ALIGN_NEXT(sizeof (thread_t), PORT_STACK_ALIGN)));

#if (CH_DBG_ENABLE_STACK_CHECK == TRUE) || (CH_CFG_USE_DYNAMIC == TRUE)
  /* Stack boundary.*/
  tp->wabase = tdp->wbase;
 80012d6:	f843 1c30 	str.w	r1, [r3, #-48]
  tp->waend  = tdp->wend;
#endif

  /* Setting up the port-dependent part of the working area.*/
  PORT_SETUP_CONTEXT(tp, tdp->wbase, tp, tdp->funcp, tdp->arg);
 80012da:	f843 6c74 	str.w	r6, [r3, #-116]
 80012de:	6941      	ldr	r1, [r0, #20]
 80012e0:	f843 1c70 	str.w	r1, [r3, #-112]
  tp->state             = CH_STATE_WTSTART;
 80012e4:	f04f 0c02 	mov.w	ip, #2
  tp->refs              = (trefs_t)1;
 80012e8:	2601      	movs	r6, #1
  if (tdp->instance != NULL) {
    return __thd_object_init(tdp->instance, tp, tdp->name, tdp->prio);
  }
#endif

  return __thd_object_init(currcore, tp, tdp->name, tdp->prio);
 80012ea:	6801      	ldr	r1, [r0, #0]
  tp->hdr.pqueue.prio   = prio;
 80012ec:	f843 5c48 	str.w	r5, [r3, #-72]
  tp->state             = CH_STATE_WTSTART;
 80012f0:	f803 cc28 	strb.w	ip, [r3, #-40]
  tp->refs              = (trefs_t)1;
 80012f4:	f803 6c26 	strb.w	r6, [r3, #-38]
  tp->realprio          = prio;
 80012f8:	f843 5c0c 	str.w	r5, [r3, #-12]
  tp->flags             = CH_FLAG_MODE_STATIC;
 80012fc:	f803 4c27 	strb.w	r4, [r3, #-39]
  PORT_SETUP_CONTEXT(tp, tdp->wbase, tp, tdp->funcp, tdp->arg);
 8001300:	4d16      	ldr	r5, [pc, #88]	; (800135c <chThdCreateSuspendedI+0xbc>)
  tp->waend  = tdp->wend;
 8001302:	f843 3c2c 	str.w	r3, [r3, #-44]
  tp->epending          = (eventmask_t)0;
 8001306:	e943 4405 	strd	r4, r4, [r3, #-20]
  p->prev       = qp->prev;
 800130a:	6ad4      	ldr	r4, [r2, #44]	; 0x2c
  PORT_SETUP_CONTEXT(tp, tdp->wbase, tp, tdp->funcp, tdp->arg);
 800130c:	f843 5c54 	str.w	r5, [r3, #-84]
 8001310:	f1a3 0574 	sub.w	r5, r3, #116	; 0x74
  REG_INSERT(oip, tp);
 8001314:	f1a3 0040 	sub.w	r0, r3, #64	; 0x40
  PORT_SETUP_CONTEXT(tp, tdp->wbase, tp, tdp->funcp, tdp->arg);
 8001318:	f843 5c44 	str.w	r5, [r3, #-68]
  p->next       = qp;
 800131c:	f102 0528 	add.w	r5, r2, #40	; 0x28
  tp->name              = name;
 8001320:	f843 1c34 	str.w	r1, [r3, #-52]
  p->prev       = qp->prev;
 8001324:	f843 4c3c 	str.w	r4, [r3, #-60]
  tp->owner             = oip;
 8001328:	f843 2c38 	str.w	r2, [r3, #-56]
  ch_queue_init(&tp->msgqueue);
 800132c:	f1a3 011c 	sub.w	r1, r3, #28
  p->next       = qp;
 8001330:	f843 5c40 	str.w	r5, [r3, #-64]
  p->prev->next = p;
 8001334:	6020      	str	r0, [r4, #0]
  ch_list_init(&tp->waiting);
 8001336:	f1a3 0420 	sub.w	r4, r3, #32
  qp->prev      = p;
 800133a:	62d0      	str	r0, [r2, #44]	; 0x2c
  qp->next = qp;
 800133c:	e943 4108 	strd	r4, r1, [r3, #-32]
}
 8001340:	f1a3 0050 	sub.w	r0, r3, #80	; 0x50
  qp->prev = qp;
 8001344:	f843 1c18 	str.w	r1, [r3, #-24]
 8001348:	bd70      	pop	{r4, r5, r6, pc}
  chDbgCheck(MEM_IS_ALIGNED(tdp->wbase, PORT_WORKING_AREA_ALIGN) &&
 800134a:	4805      	ldr	r0, [pc, #20]	; (8001360 <chThdCreateSuspendedI+0xc0>)
 800134c:	f7ff fc98 	bl	8000c80 <chSysHalt>
    chSysHalt("SV#10");
 8001350:	4804      	ldr	r0, [pc, #16]	; (8001364 <chThdCreateSuspendedI+0xc4>)
 8001352:	f7ff fc95 	bl	8000c80 <chSysHalt>
 8001356:	bf00      	nop
 8001358:	20000ec8 	.word	0x20000ec8
 800135c:	080002f1 	.word	0x080002f1
 8001360:	08007e94 	.word	0x08007e94
 8001364:	080072e4 	.word	0x080072e4
	...

08001370 <chCoreAllocFromTop>:
 * @return              A pointer to the allocated memory block.
 * @retval NULL         allocation failed, core memory exhausted.
 *
 * @api
 */
void *chCoreAllocFromTop(size_t size, unsigned align, size_t offset) {
 8001370:	b538      	push	{r3, r4, r5, lr}
 8001372:	2330      	movs	r3, #48	; 0x30
 8001374:	f383 8811 	msr	BASEPRI, r3
  if (unlikely((oip->dbg.isr_cnt != (cnt_t)0) ||
 8001378:	4b1a      	ldr	r3, [pc, #104]	; (80013e4 <chCoreAllocFromTop+0x74>)
 800137a:	e9d3 4523 	ldrd	r4, r5, [r3, #140]	; 0x8c
 800137e:	ea54 0c05 	orrs.w	ip, r4, r5
 8001382:	d120      	bne.n	80013c6 <chCoreAllocFromTop+0x56>
  oip->dbg.lock_cnt = (cnt_t)1;
 8001384:	2401      	movs	r4, #1
 8001386:	f8c3 4090 	str.w	r4, [r3, #144]	; 0x90
  chDbgCheck(MEM_IS_VALID_ALIGNMENT(align));
 800138a:	b1f9      	cbz	r1, 80013cc <chCoreAllocFromTop+0x5c>
 800138c:	f101 3cff 	add.w	ip, r1, #4294967295	; 0xffffffff
 8001390:	ea1c 0c01 	ands.w	ip, ip, r1
 8001394:	d11a      	bne.n	80013cc <chCoreAllocFromTop+0x5c>
  p = (uint8_t *)MEM_ALIGN_PREV(ch_memcore.topmem - size, align);
 8001396:	4c14      	ldr	r4, [pc, #80]	; (80013e8 <chCoreAllocFromTop+0x78>)
 8001398:	6865      	ldr	r5, [r4, #4]
 800139a:	4249      	negs	r1, r1
 800139c:	1a28      	subs	r0, r5, r0
 800139e:	4008      	ands	r0, r1
  if ((prev < ch_memcore.basemem) || (prev > ch_memcore.topmem)) {
 80013a0:	6821      	ldr	r1, [r4, #0]
  prev = p - offset;
 80013a2:	1a82      	subs	r2, r0, r2
  if ((prev < ch_memcore.basemem) || (prev > ch_memcore.topmem)) {
 80013a4:	428a      	cmp	r2, r1
 80013a6:	d30c      	bcc.n	80013c2 <chCoreAllocFromTop+0x52>
 80013a8:	4295      	cmp	r5, r2
 80013aa:	d30a      	bcc.n	80013c2 <chCoreAllocFromTop+0x52>
  ch_memcore.topmem = prev;
 80013ac:	6062      	str	r2, [r4, #4]

  /* The following condition can be triggered by the use of i-class functions
     in a critical section not followed by a chSchRescheduleS(), this means
     that the current thread has a lower priority than the next thread in
     the ready list.*/
  chDbgAssert((currcore->rlist.pqueue.next == &currcore->rlist.pqueue) ||
 80013ae:	681a      	ldr	r2, [r3, #0]
  oip->dbg.lock_cnt = (cnt_t)0;
 80013b0:	2100      	movs	r1, #0
 80013b2:	429a      	cmp	r2, r3
 80013b4:	f8c3 1090 	str.w	r1, [r3, #144]	; 0x90
 80013b8:	d10b      	bne.n	80013d2 <chCoreAllocFromTop+0x62>
 80013ba:	2300      	movs	r3, #0
 80013bc:	f383 8811 	msr	BASEPRI, r3
  chSysLock();
  p = chCoreAllocFromTopI(size, align, offset);
  chSysUnlock();

  return p;
}
 80013c0:	bd38      	pop	{r3, r4, r5, pc}
    return NULL;
 80013c2:	4660      	mov	r0, ip
 80013c4:	e7f3      	b.n	80013ae <chCoreAllocFromTop+0x3e>
    chSysHalt("SV#4");
 80013c6:	4809      	ldr	r0, [pc, #36]	; (80013ec <chCoreAllocFromTop+0x7c>)
 80013c8:	f7ff fc5a 	bl	8000c80 <chSysHalt>
  chDbgCheck(MEM_IS_VALID_ALIGNMENT(align));
 80013cc:	4808      	ldr	r0, [pc, #32]	; (80013f0 <chCoreAllocFromTop+0x80>)
 80013ce:	f7ff fc57 	bl	8000c80 <chSysHalt>
 80013d2:	68d9      	ldr	r1, [r3, #12]
 80013d4:	6893      	ldr	r3, [r2, #8]
 80013d6:	688a      	ldr	r2, [r1, #8]
 80013d8:	429a      	cmp	r2, r3
 80013da:	d2ee      	bcs.n	80013ba <chCoreAllocFromTop+0x4a>
 80013dc:	4805      	ldr	r0, [pc, #20]	; (80013f4 <chCoreAllocFromTop+0x84>)
 80013de:	f7ff fc4f 	bl	8000c80 <chSysHalt>
 80013e2:	bf00      	nop
 80013e4:	20000ec8 	.word	0x20000ec8
 80013e8:	200018e0 	.word	0x200018e0
 80013ec:	080072f4 	.word	0x080072f4
 80013f0:	08007d88 	.word	0x08007d88
 80013f4:	08007cb8 	.word	0x08007cb8
	...

08001400 <chCoreAllocAlignedI>:
  if (unlikely((oip->dbg.isr_cnt < (cnt_t)0) ||
 8001400:	4b10      	ldr	r3, [pc, #64]	; (8001444 <chCoreAllocAlignedI+0x44>)
 8001402:	f8d3 208c 	ldr.w	r2, [r3, #140]	; 0x8c
 8001406:	2a00      	cmp	r2, #0
 * @return              A pointer to the allocated memory block.
 * @retval NULL         allocation failed, core memory exhausted.
 *
 * @iclass
 */
static inline void *chCoreAllocAlignedI(size_t size, unsigned align) {
 8001408:	b510      	push	{r4, lr}
 800140a:	db15      	blt.n	8001438 <chCoreAllocAlignedI+0x38>
 800140c:	f8d3 3090 	ldr.w	r3, [r3, #144]	; 0x90
 8001410:	2b00      	cmp	r3, #0
 8001412:	dd11      	ble.n	8001438 <chCoreAllocAlignedI+0x38>
 8001414:	b199      	cbz	r1, 800143e <chCoreAllocAlignedI+0x3e>
 8001416:	1e4b      	subs	r3, r1, #1
 8001418:	400b      	ands	r3, r1
 800141a:	d110      	bne.n	800143e <chCoreAllocAlignedI+0x3e>
  p = (uint8_t *)MEM_ALIGN_PREV(ch_memcore.topmem - size, align);
 800141c:	4a0a      	ldr	r2, [pc, #40]	; (8001448 <chCoreAllocAlignedI+0x48>)
 800141e:	6854      	ldr	r4, [r2, #4]
 8001420:	4249      	negs	r1, r1
 8001422:	1a20      	subs	r0, r4, r0
 8001424:	4008      	ands	r0, r1
  if ((prev < ch_memcore.basemem) || (prev > ch_memcore.topmem)) {
 8001426:	6811      	ldr	r1, [r2, #0]
 8001428:	4288      	cmp	r0, r1
 800142a:	d303      	bcc.n	8001434 <chCoreAllocAlignedI+0x34>
 800142c:	4284      	cmp	r4, r0
 800142e:	d301      	bcc.n	8001434 <chCoreAllocAlignedI+0x34>
  ch_memcore.topmem = prev;
 8001430:	6050      	str	r0, [r2, #4]

  return chCoreAllocAlignedWithOffsetI(size, align, 0U);
}
 8001432:	bd10      	pop	{r4, pc}
    return NULL;
 8001434:	4618      	mov	r0, r3
 8001436:	bd10      	pop	{r4, pc}
    chSysHalt("SV#10");
 8001438:	4804      	ldr	r0, [pc, #16]	; (800144c <chCoreAllocAlignedI+0x4c>)
 800143a:	f7ff fc21 	bl	8000c80 <chSysHalt>
  chDbgCheck(MEM_IS_VALID_ALIGNMENT(align));
 800143e:	4804      	ldr	r0, [pc, #16]	; (8001450 <chCoreAllocAlignedI+0x50>)
 8001440:	f7ff fc1e 	bl	8000c80 <chSysHalt>
 8001444:	20000ec8 	.word	0x20000ec8
 8001448:	200018e0 	.word	0x200018e0
 800144c:	080072e4 	.word	0x080072e4
 8001450:	08007d88 	.word	0x08007d88
	...

08001460 <sof_handler>:

/*
 * Handles the USB driver global events.
 */
static void sof_handler(USBDriver *usbp) {
 8001460:	b570      	push	{r4, r5, r6, lr}
 8001462:	2330      	movs	r3, #48	; 0x30
 8001464:	f383 8811 	msr	BASEPRI, r3
  if (unlikely((oip->dbg.isr_cnt <= (cnt_t)0) ||
 8001468:	4c30      	ldr	r4, [pc, #192]	; (800152c <sof_handler+0xcc>)
 800146a:	f8d4 308c 	ldr.w	r3, [r4, #140]	; 0x8c
 800146e:	2b00      	cmp	r3, #0
 8001470:	dd50      	ble.n	8001514 <sof_handler+0xb4>
 8001472:	f8d4 3090 	ldr.w	r3, [r4, #144]	; 0x90
 8001476:	2b00      	cmp	r3, #0
 8001478:	d14c      	bne.n	8001514 <sof_handler+0xb4>
  if ((usbGetDriverStateI(sdup->config->usbp) != USB_ACTIVE) ||
 800147a:	4b2d      	ldr	r3, [pc, #180]	; (8001530 <sof_handler+0xd0>)
 800147c:	f8d3 148c 	ldr.w	r1, [r3, #1164]	; 0x48c
  oip->dbg.lock_cnt = (cnt_t)1;
 8001480:	2201      	movs	r2, #1
 8001482:	6808      	ldr	r0, [r1, #0]
 8001484:	f8c4 2090 	str.w	r2, [r4, #144]	; 0x90
 8001488:	f890 c000 	ldrb.w	ip, [r0]
 800148c:	f1bc 0f04 	cmp.w	ip, #4
 8001490:	d10b      	bne.n	80014aa <sof_handler+0x4a>
 8001492:	f893 c008 	ldrb.w	ip, [r3, #8]
 8001496:	f1bc 0f02 	cmp.w	ip, #2
 800149a:	d106      	bne.n	80014aa <sof_handler+0x4a>
  if (usbGetTransmitStatusI(sdup->config->usbp, sdup->config->bulk_in)) {
 800149c:	7909      	ldrb	r1, [r1, #4]
 800149e:	f8b0 c008 	ldrh.w	ip, [r0, #8]
 80014a2:	408a      	lsls	r2, r1
 80014a4:	ea12 0f0c 	tst.w	r2, ip
 80014a8:	d005      	beq.n	80014b6 <sof_handler+0x56>
  oip->dbg.lock_cnt = (cnt_t)0;
 80014aa:	2300      	movs	r3, #0
 80014ac:	f8c4 3090 	str.w	r3, [r4, #144]	; 0x90
 80014b0:	f383 8811 	msr	BASEPRI, r3
  (void)usbp;

  osalSysLockFromISR();
  sduSOFHookI(&PORTAB_SDU1);
  osalSysUnlockFromISR();
}
 80014b4:	bd70      	pop	{r4, r5, r6, pc}

  osalDbgCheckClassI();

  /* If queue is empty and there is a buffer partially filled and
     it is not being written.*/
  if (obqIsEmptyI(obqp) && (obqp->ptr != NULL)) {
 80014b6:	e9d3 5215 	ldrd	r5, r2, [r3, #84]	; 0x54
 80014ba:	4295      	cmp	r5, r2
 80014bc:	d1f5      	bne.n	80014aa <sof_handler+0x4a>
 80014be:	6d1d      	ldr	r5, [r3, #80]	; 0x50
 80014c0:	2d00      	cmp	r5, #0
 80014c2:	d0f2      	beq.n	80014aa <sof_handler+0x4a>
 80014c4:	6edd      	ldr	r5, [r3, #108]	; 0x6c
 80014c6:	2d00      	cmp	r5, #0
 80014c8:	d0ef      	beq.n	80014aa <sof_handler+0x4a>
    size_t size = (size_t)obqp->ptr - ((size_t)obqp->bwrptr + sizeof (size_t));
 80014ca:	3d04      	subs	r5, #4

    if (size > 0U) {
 80014cc:	1aad      	subs	r5, r5, r2
 80014ce:	d0ec      	beq.n	80014aa <sof_handler+0x4a>

      /* Writing size field in the buffer.*/
      *((size_t *)(void *)obqp->bwrptr) = size;
 80014d0:	6015      	str	r5, [r2, #0]

      /* Posting the buffer in the queue.*/
      obqp->bcounter--;
 80014d2:	6d1d      	ldr	r5, [r3, #80]	; 0x50
      obqp->bwrptr += obqp->bsize;
      if (obqp->bwrptr >= obqp->btop) {
 80014d4:	6dde      	ldr	r6, [r3, #92]	; 0x5c
      obqp->bcounter--;
 80014d6:	3d01      	subs	r5, #1
 80014d8:	651d      	str	r5, [r3, #80]	; 0x50
      obqp->bwrptr += obqp->bsize;
 80014da:	6e1d      	ldr	r5, [r3, #96]	; 0x60
 80014dc:	4415      	add	r5, r2
      if (obqp->bwrptr >= obqp->btop) {
 80014de:	42b5      	cmp	r5, r6
      obqp->bwrptr += obqp->bsize;
 80014e0:	655d      	str	r5, [r3, #84]	; 0x54
        obqp->bwrptr = obqp->buffers;
 80014e2:	bf24      	itt	cs
 80014e4:	6e9d      	ldrcs	r5, [r3, #104]	; 0x68
 80014e6:	655d      	strcs	r5, [r3, #84]	; 0x54
  if (unlikely((oip->dbg.isr_cnt < (cnt_t)0) ||
 80014e8:	f8d4 508c 	ldr.w	r5, [r4, #140]	; 0x8c
      }

      /* No "current" buffer.*/
      obqp->ptr = NULL;
 80014ec:	2600      	movs	r6, #0
 80014ee:	42b5      	cmp	r5, r6
 80014f0:	66de      	str	r6, [r3, #108]	; 0x6c
 80014f2:	db18      	blt.n	8001526 <sof_handler+0xc6>
 80014f4:	f8d4 6090 	ldr.w	r6, [r4, #144]	; 0x90
 80014f8:	2e00      	cmp	r6, #0
 80014fa:	dd14      	ble.n	8001526 <sof_handler+0xc6>
  if (obqIsEmptyI(obqp)) {
 80014fc:	6d5e      	ldr	r6, [r3, #84]	; 0x54
 80014fe:	42b2      	cmp	r2, r6
 8001500:	d00b      	beq.n	800151a <sof_handler+0xba>
    usbStartTransmitI(sdup->config->usbp, sdup->config->bulk_in, buf, n);
 8001502:	f852 3b04 	ldr.w	r3, [r2], #4
 8001506:	f7ff fce3 	bl	8000ed0 <usbStartTransmitI>
  if (unlikely((oip->dbg.isr_cnt <= (cnt_t)0) ||
 800150a:	2d00      	cmp	r5, #0
 800150c:	d1cd      	bne.n	80014aa <sof_handler+0x4a>
    chSysHalt("SV#7");
 800150e:	4809      	ldr	r0, [pc, #36]	; (8001534 <sof_handler+0xd4>)
 8001510:	f7ff fbb6 	bl	8000c80 <chSysHalt>
    chSysHalt("SV#6");
 8001514:	4808      	ldr	r0, [pc, #32]	; (8001538 <sof_handler+0xd8>)
 8001516:	f7ff fbb3 	bl	8000c80 <chSysHalt>
 800151a:	6d1b      	ldr	r3, [r3, #80]	; 0x50
 800151c:	2b00      	cmp	r3, #0
 800151e:	d0f0      	beq.n	8001502 <sof_handler+0xa2>
    osalDbgAssert(buf != NULL, "queue is empty");
 8001520:	4806      	ldr	r0, [pc, #24]	; (800153c <sof_handler+0xdc>)
 8001522:	f7ff fbad 	bl	8000c80 <chSysHalt>
    chSysHalt("SV#10");
 8001526:	4806      	ldr	r0, [pc, #24]	; (8001540 <sof_handler+0xe0>)
 8001528:	f7ff fbaa 	bl	8000c80 <chSysHalt>
 800152c:	20000ec8 	.word	0x20000ec8
 8001530:	20000950 	.word	0x20000950
 8001534:	080072fc 	.word	0x080072fc
 8001538:	080072ec 	.word	0x080072ec
 800153c:	08007c9c 	.word	0x08007c9c
 8001540:	080072e4 	.word	0x080072e4
	...

08001550 <otg_epin_handler.constprop.0>:
static void otg_epin_handler(USBDriver *usbp, usbep_t ep) {
 8001550:	e92d 47f0 	stmdb	sp!, {r4, r5, r6, r7, r8, r9, sl, lr}
  stm32_otg_t *otgp = usbp->otg;
 8001554:	4f48      	ldr	r7, [pc, #288]	; (8001678 <otg_epin_handler.constprop.0+0x128>)
 8001556:	6d7e      	ldr	r6, [r7, #84]	; 0x54
  uint32_t epint = otgp->ie[ep].DIEPINT;
 8001558:	eb06 1340 	add.w	r3, r6, r0, lsl #5
static void otg_epin_handler(USBDriver *usbp, usbep_t ep) {
 800155c:	4605      	mov	r5, r0
  uint32_t epint = otgp->ie[ep].DIEPINT;
 800155e:	f8d3 4908 	ldr.w	r4, [r3, #2312]	; 0x908
  otgp->ie[ep].DIEPINT = epint;
 8001562:	f8c3 4908 	str.w	r4, [r3, #2312]	; 0x908
  if ((epint & DIEPINT_XFRC) && (otgp->DIEPMSK & DIEPMSK_XFRCM)) {
 8001566:	07e1      	lsls	r1, r4, #31
  uint32_t epint = otgp->ie[ep].DIEPINT;
 8001568:	ea4f 1940 	mov.w	r9, r0, lsl #5
  if ((epint & DIEPINT_XFRC) && (otgp->DIEPMSK & DIEPMSK_XFRCM)) {
 800156c:	d519      	bpl.n	80015a2 <otg_epin_handler.constprop.0+0x52>
 800156e:	f8d6 3810 	ldr.w	r3, [r6, #2064]	; 0x810
 8001572:	07da      	lsls	r2, r3, #31
 8001574:	d515      	bpl.n	80015a2 <otg_epin_handler.constprop.0+0x52>
    USBInEndpointState *isp = usbp->epc[ep]->in_state;
 8001576:	eb07 0380 	add.w	r3, r7, r0, lsl #2
 800157a:	68d9      	ldr	r1, [r3, #12]
 800157c:	694b      	ldr	r3, [r1, #20]
    if (isp->txsize < isp->totsize) {
 800157e:	6818      	ldr	r0, [r3, #0]
 8001580:	68da      	ldr	r2, [r3, #12]
 8001582:	4290      	cmp	r0, r2
 8001584:	d357      	bcc.n	8001636 <otg_epin_handler.constprop.0+0xe6>
      _usb_isr_invoke_in_cb(usbp, ep);
 8001586:	893b      	ldrh	r3, [r7, #8]
 8001588:	f8d1 8008 	ldr.w	r8, [r1, #8]
 800158c:	2201      	movs	r2, #1
 800158e:	40aa      	lsls	r2, r5
 8001590:	ea23 0302 	bic.w	r3, r3, r2
 8001594:	813b      	strh	r3, [r7, #8]
 8001596:	f1b8 0f00 	cmp.w	r8, #0
 800159a:	d002      	beq.n	80015a2 <otg_epin_handler.constprop.0+0x52>
 800159c:	4629      	mov	r1, r5
 800159e:	4638      	mov	r0, r7
 80015a0:	47c0      	blx	r8
  if ((epint & DIEPINT_TXFE) &&
 80015a2:	0623      	lsls	r3, r4, #24
 80015a4:	d508      	bpl.n	80015b8 <otg_epin_handler.constprop.0+0x68>
      (otgp->DIEPEMPMSK & DIEPEMPMSK_INEPTXFEM(ep))) {
 80015a6:	f8d6 3834 	ldr.w	r3, [r6, #2100]	; 0x834
 80015aa:	f04f 0e01 	mov.w	lr, #1
 80015ae:	fa0e fe05 	lsl.w	lr, lr, r5
  if ((epint & DIEPINT_TXFE) &&
 80015b2:	ea13 0f0e 	tst.w	r3, lr
 80015b6:	d101      	bne.n	80015bc <otg_epin_handler.constprop.0+0x6c>
}
 80015b8:	e8bd 87f0 	ldmia.w	sp!, {r4, r5, r6, r7, r8, r9, sl, pc}
    if (usbp->epc[ep]->in_state->txcnt >= usbp->epc[ep]->in_state->txsize) {
 80015bc:	eb07 0385 	add.w	r3, r7, r5, lsl #2
      usbp->otg->DIEPEMPMSK &= ~DIEPEMPMSK_INEPTXFEM(ep);
 80015c0:	f8d7 8054 	ldr.w	r8, [r7, #84]	; 0x54
    if (usbp->epc[ep]->in_state->txcnt >= usbp->epc[ep]->in_state->txsize) {
 80015c4:	68d9      	ldr	r1, [r3, #12]
 80015c6:	694e      	ldr	r6, [r1, #20]
 80015c8:	e9d6 3400 	ldrd	r3, r4, [r6]
 80015cc:	429c      	cmp	r4, r3
 80015ce:	d22b      	bcs.n	8001628 <otg_epin_handler.constprop.0+0xd8>
    otg_fifo_write_from_buffer(usbp->otg->FIFO[ep],
 80015d0:	1c6a      	adds	r2, r5, #1
 80015d2:	b2d2      	uxtb	r2, r2
    if (n > usbp->epc[ep]->in_maxsize)
 80015d4:	8a0f      	ldrh	r7, [r1, #16]
    otg_fifo_write_from_buffer(usbp->otg->FIFO[ep],
 80015d6:	eb08 3202 	add.w	r2, r8, r2, lsl #12
    if (((usbp->otg->ie[ep].DTXFSTS & DTXFSTS_INEPTFSAV_MASK) * 4) < n)
 80015da:	eb08 0c09 	add.w	ip, r8, r9
    n = usbp->epc[ep]->in_state->txsize - usbp->epc[ep]->in_state->txcnt;
 80015de:	1b1b      	subs	r3, r3, r4
 80015e0:	42bb      	cmp	r3, r7
 80015e2:	bf28      	it	cs
 80015e4:	463b      	movcs	r3, r7
 80015e6:	461c      	mov	r4, r3
    if (((usbp->otg->ie[ep].DTXFSTS & DTXFSTS_INEPTFSAV_MASK) * 4) < n)
 80015e8:	f8dc 3918 	ldr.w	r3, [ip, #2328]	; 0x918
 80015ec:	b29b      	uxth	r3, r3
 80015ee:	ebb4 0f83 	cmp.w	r4, r3, lsl #2
 80015f2:	d8e1      	bhi.n	80015b8 <otg_epin_handler.constprop.0+0x68>
    otg_fifo_write_from_buffer(usbp->otg->FIFO[ep],
 80015f4:	68b5      	ldr	r5, [r6, #8]
  osalDbgAssert(n > 0, "is zero");
 80015f6:	2c00      	cmp	r4, #0
 80015f8:	d038      	beq.n	800166c <otg_epin_handler.constprop.0+0x11c>
    *fifop = *((uint32_t *)buf);
 80015fa:	682b      	ldr	r3, [r5, #0]
 80015fc:	6013      	str	r3, [r2, #0]
    if (n <= 4) {
 80015fe:	2c04      	cmp	r4, #4
 8001600:	d90a      	bls.n	8001618 <otg_epin_handler.constprop.0+0xc8>
 8001602:	1f60      	subs	r0, r4, #5
 8001604:	f020 0003 	bic.w	r0, r0, #3
 8001608:	3004      	adds	r0, #4
 800160a:	4428      	add	r0, r5
 800160c:	462b      	mov	r3, r5
    *fifop = *((uint32_t *)buf);
 800160e:	f853 1f04 	ldr.w	r1, [r3, #4]!
 8001612:	6011      	str	r1, [r2, #0]
    if (n <= 4) {
 8001614:	4298      	cmp	r0, r3
 8001616:	d1fa      	bne.n	800160e <otg_epin_handler.constprop.0+0xbe>
    usbp->epc[ep]->in_state->txcnt += n;
 8001618:	6873      	ldr	r3, [r6, #4]
    usbp->epc[ep]->in_state->txbuf += n;
 800161a:	4425      	add	r5, r4
    usbp->epc[ep]->in_state->txcnt += n;
 800161c:	441c      	add	r4, r3
    if (usbp->epc[ep]->in_state->txcnt >= usbp->epc[ep]->in_state->txsize) {
 800161e:	6833      	ldr	r3, [r6, #0]
    usbp->epc[ep]->in_state->txbuf += n;
 8001620:	60b5      	str	r5, [r6, #8]
    if (usbp->epc[ep]->in_state->txcnt >= usbp->epc[ep]->in_state->txsize) {
 8001622:	42a3      	cmp	r3, r4
    usbp->epc[ep]->in_state->txcnt += n;
 8001624:	6074      	str	r4, [r6, #4]
    if (usbp->epc[ep]->in_state->txcnt >= usbp->epc[ep]->in_state->txsize) {
 8001626:	d8da      	bhi.n	80015de <otg_epin_handler.constprop.0+0x8e>
      usbp->otg->DIEPEMPMSK &= ~DIEPEMPMSK_INEPTXFEM(ep);
 8001628:	f8d8 3834 	ldr.w	r3, [r8, #2100]	; 0x834
 800162c:	ea23 030e 	bic.w	r3, r3, lr
 8001630:	f8c8 3834 	str.w	r3, [r8, #2100]	; 0x834
      return true;
 8001634:	e7c0      	b.n	80015b8 <otg_epin_handler.constprop.0+0x68>
      isp->txsize = isp->totsize - isp->txsize;
 8001636:	1a12      	subs	r2, r2, r0
 8001638:	601a      	str	r2, [r3, #0]
      isp->txcnt  = 0;
 800163a:	2200      	movs	r2, #0
 800163c:	605a      	str	r2, [r3, #4]
 800163e:	2330      	movs	r3, #48	; 0x30
 8001640:	f383 8811 	msr	BASEPRI, r3
  if (unlikely((oip->dbg.isr_cnt <= (cnt_t)0) ||
 8001644:	f8df 8034 	ldr.w	r8, [pc, #52]	; 800167c <otg_epin_handler.constprop.0+0x12c>
 8001648:	f8d8 308c 	ldr.w	r3, [r8, #140]	; 0x8c
 800164c:	4293      	cmp	r3, r2
 800164e:	dd10      	ble.n	8001672 <otg_epin_handler.constprop.0+0x122>
 8001650:	f8d8 a090 	ldr.w	sl, [r8, #144]	; 0x90
 8001654:	f1ba 0f00 	cmp.w	sl, #0
 8001658:	d10b      	bne.n	8001672 <otg_epin_handler.constprop.0+0x122>
      usb_lld_start_in(usbp, ep);
 800165a:	4629      	mov	r1, r5
 800165c:	4638      	mov	r0, r7
 800165e:	f7ff f977 	bl	8000950 <usb_lld_start_in>
  oip->dbg.lock_cnt = (cnt_t)0;
 8001662:	f8c8 a090 	str.w	sl, [r8, #144]	; 0x90
 8001666:	f38a 8811 	msr	BASEPRI, sl
 * @special
 */
static inline void osalSysUnlockFromISR(void) {

  chSysUnlockFromISR();
}
 800166a:	e79a      	b.n	80015a2 <otg_epin_handler.constprop.0+0x52>
  osalDbgAssert(n > 0, "is zero");
 800166c:	4804      	ldr	r0, [pc, #16]	; (8001680 <otg_epin_handler.constprop.0+0x130>)
 800166e:	f7ff fb07 	bl	8000c80 <chSysHalt>
    chSysHalt("SV#6");
 8001672:	4804      	ldr	r0, [pc, #16]	; (8001684 <otg_epin_handler.constprop.0+0x134>)
 8001674:	f7ff fb04 	bl	8000c80 <chSysHalt>
 8001678:	20000de0 	.word	0x20000de0
 800167c:	20000ec8 	.word	0x20000ec8
 8001680:	08007de4 	.word	0x08007de4
 8001684:	080072ec 	.word	0x080072ec
	...

08001690 <otg_epout_handler.constprop.0>:
static void otg_epout_handler(USBDriver *usbp, usbep_t ep) {
 8001690:	e92d 41f0 	stmdb	sp!, {r4, r5, r6, r7, r8, lr}
  stm32_otg_t *otgp = usbp->otg;
 8001694:	4f2a      	ldr	r7, [pc, #168]	; (8001740 <otg_epout_handler.constprop.0+0xb0>)
 8001696:	6d7e      	ldr	r6, [r7, #84]	; 0x54
  uint32_t epint = otgp->oe[ep].DOEPINT;
 8001698:	eb06 1340 	add.w	r3, r6, r0, lsl #5
static void otg_epout_handler(USBDriver *usbp, usbep_t ep) {
 800169c:	4604      	mov	r4, r0
  uint32_t epint = otgp->oe[ep].DOEPINT;
 800169e:	f8d3 5b08 	ldr.w	r5, [r3, #2824]	; 0xb08
  otgp->oe[ep].DOEPINT = epint;
 80016a2:	f8c3 5b08 	str.w	r5, [r3, #2824]	; 0xb08
  if ((epint & DOEPINT_STUP) && (otgp->DOEPMSK & DOEPMSK_STUPM)) {
 80016a6:	0728      	lsls	r0, r5, #28
 80016a8:	d503      	bpl.n	80016b2 <otg_epout_handler.constprop.0+0x22>
 80016aa:	f8d6 3814 	ldr.w	r3, [r6, #2068]	; 0x814
 80016ae:	0719      	lsls	r1, r3, #28
 80016b0:	d43b      	bmi.n	800172a <otg_epout_handler.constprop.0+0x9a>
  if ((epint & DOEPINT_XFRC) && (otgp->DOEPMSK & DOEPMSK_XFRCM)) {
 80016b2:	07ea      	lsls	r2, r5, #31
 80016b4:	d537      	bpl.n	8001726 <otg_epout_handler.constprop.0+0x96>
 80016b6:	f8d6 3814 	ldr.w	r3, [r6, #2068]	; 0x814
 80016ba:	07db      	lsls	r3, r3, #31
 80016bc:	d533      	bpl.n	8001726 <otg_epout_handler.constprop.0+0x96>
    osp = usbp->epc[ep]->out_state;
 80016be:	eb07 0384 	add.w	r3, r7, r4, lsl #2
 80016c2:	68d9      	ldr	r1, [r3, #12]
 80016c4:	698a      	ldr	r2, [r1, #24]
    if (ep == 0) {
 80016c6:	b954      	cbnz	r4, 80016de <otg_epout_handler.constprop.0+0x4e>
      if (((osp->rxcnt % usbp->epc[ep]->out_maxsize) == 0) &&
 80016c8:	8a48      	ldrh	r0, [r1, #18]
 80016ca:	6853      	ldr	r3, [r2, #4]
 80016cc:	fbb3 f5f0 	udiv	r5, r3, r0
 80016d0:	fb00 3315 	mls	r3, r0, r5, r3
 80016d4:	b91b      	cbnz	r3, 80016de <otg_epout_handler.constprop.0+0x4e>
          (osp->rxsize < osp->totsize)) {
 80016d6:	6810      	ldr	r0, [r2, #0]
 80016d8:	68d3      	ldr	r3, [r2, #12]
      if (((osp->rxcnt % usbp->epc[ep]->out_maxsize) == 0) &&
 80016da:	4298      	cmp	r0, r3
 80016dc:	d30d      	bcc.n	80016fa <otg_epout_handler.constprop.0+0x6a>
    _usb_isr_invoke_out_cb(usbp, ep);
 80016de:	897b      	ldrh	r3, [r7, #10]
 80016e0:	68cd      	ldr	r5, [r1, #12]
 80016e2:	2201      	movs	r2, #1
 80016e4:	40a2      	lsls	r2, r4
 80016e6:	ea23 0302 	bic.w	r3, r3, r2
 80016ea:	817b      	strh	r3, [r7, #10]
 80016ec:	b1dd      	cbz	r5, 8001726 <otg_epout_handler.constprop.0+0x96>
 80016ee:	4621      	mov	r1, r4
 80016f0:	462b      	mov	r3, r5
 80016f2:	4813      	ldr	r0, [pc, #76]	; (8001740 <otg_epout_handler.constprop.0+0xb0>)
}
 80016f4:	e8bd 41f0 	ldmia.w	sp!, {r4, r5, r6, r7, r8, lr}
    _usb_isr_invoke_out_cb(usbp, ep);
 80016f8:	4718      	bx	r3
        osp->rxsize = osp->totsize - osp->rxsize;
 80016fa:	1a1b      	subs	r3, r3, r0
        osp->rxcnt  = 0;
 80016fc:	e9c2 3400 	strd	r3, r4, [r2]
 8001700:	2330      	movs	r3, #48	; 0x30
 8001702:	f383 8811 	msr	BASEPRI, r3
  if (unlikely((oip->dbg.isr_cnt <= (cnt_t)0) ||
 8001706:	4d0f      	ldr	r5, [pc, #60]	; (8001744 <otg_epout_handler.constprop.0+0xb4>)
 8001708:	f8d5 308c 	ldr.w	r3, [r5, #140]	; 0x8c
 800170c:	2b00      	cmp	r3, #0
 800170e:	dd14      	ble.n	800173a <otg_epout_handler.constprop.0+0xaa>
 8001710:	f8d5 3090 	ldr.w	r3, [r5, #144]	; 0x90
 8001714:	b98b      	cbnz	r3, 800173a <otg_epout_handler.constprop.0+0xaa>
        usb_lld_start_out(usbp, ep);
 8001716:	480a      	ldr	r0, [pc, #40]	; (8001740 <otg_epout_handler.constprop.0+0xb0>)
 8001718:	4621      	mov	r1, r4
 800171a:	f7ff f8d1 	bl	80008c0 <usb_lld_start_out>
  oip->dbg.lock_cnt = (cnt_t)0;
 800171e:	f8c5 4090 	str.w	r4, [r5, #144]	; 0x90
 8001722:	f384 8811 	msr	BASEPRI, r4
}
 8001726:	e8bd 81f0 	ldmia.w	sp!, {r4, r5, r6, r7, r8, pc}
    _usb_isr_invoke_setup_cb(usbp, ep);
 800172a:	eb07 0384 	add.w	r3, r7, r4, lsl #2
 800172e:	4621      	mov	r1, r4
 8001730:	68db      	ldr	r3, [r3, #12]
 8001732:	4638      	mov	r0, r7
 8001734:	685b      	ldr	r3, [r3, #4]
 8001736:	4798      	blx	r3
 8001738:	e7bb      	b.n	80016b2 <otg_epout_handler.constprop.0+0x22>
    chSysHalt("SV#6");
 800173a:	4803      	ldr	r0, [pc, #12]	; (8001748 <otg_epout_handler.constprop.0+0xb8>)
 800173c:	f7ff faa0 	bl	8000c80 <chSysHalt>
 8001740:	20000de0 	.word	0x20000de0
 8001744:	20000ec8 	.word	0x20000ec8
 8001748:	080072ec 	.word	0x080072ec
 800174c:	00000000 	.word	0x00000000

08001750 <_pal_lld_enablepadevent.constprop.0>:
 * @param[in] pad       pad number within the port
 * @param[in] mode      pad event mode
 *
 * @notapi
 */
void _pal_lld_enablepadevent(ioportid_t port,
 8001750:	b508      	push	{r3, lr}
  padmask = 1U << (uint32_t)pad;

  /* Multiple channel setting of the same channel not allowed, first disable
     it. This is done because on STM32 the same channel cannot be mapped on
     multiple ports.*/
  osalDbgAssert(((EXTI->RTSR1 & padmask) == 0U) &&
 8001752:	4b15      	ldr	r3, [pc, #84]	; (80017a8 <_pal_lld_enablepadevent.constprop.0+0x58>)
 8001754:	689a      	ldr	r2, [r3, #8]
 8001756:	07d1      	lsls	r1, r2, #31
 8001758:	d423      	bmi.n	80017a2 <_pal_lld_enablepadevent.constprop.0+0x52>
 800175a:	68da      	ldr	r2, [r3, #12]
 800175c:	07d2      	lsls	r2, r2, #31
 800175e:	d420      	bmi.n	80017a2 <_pal_lld_enablepadevent.constprop.0+0x52>
  /* Index and mask of the CR register to be used.*/
  cridx  = (uint32_t)pad >> 2U;
#if STM32_EXTI_HAS_CR == FALSE
  croff  = ((uint32_t)pad & 3U) * 4U;
  crmask = ~(0xFU << croff);
  SYSCFG->EXTICR[cridx] = (SYSCFG->EXTICR[cridx] & crmask) | (portidx << croff);
 8001760:	4912      	ldr	r1, [pc, #72]	; (80017ac <_pal_lld_enablepadevent.constprop.0+0x5c>)
 8001762:	688a      	ldr	r2, [r1, #8]
 8001764:	f022 020f 	bic.w	r2, r2, #15
 8001768:	608a      	str	r2, [r1, #8]
  crmask = ~(0xFFU << croff);
  EXTI->EXTICR[cridx] = (EXTI->EXTICR[cridx] & crmask) | (portidx << croff);
#endif

  /* Programming edge registers.*/
  if (mode & PAL_EVENT_MODE_RISING_EDGE)
 800176a:	2801      	cmp	r0, #1
    EXTI->RTSR1 |= padmask;
 800176c:	689a      	ldr	r2, [r3, #8]
  if (mode & PAL_EVENT_MODE_RISING_EDGE)
 800176e:	d110      	bne.n	8001792 <_pal_lld_enablepadevent.constprop.0+0x42>
    EXTI->RTSR1 |= padmask;
 8001770:	f042 0201 	orr.w	r2, r2, #1
 8001774:	609a      	str	r2, [r3, #8]
  else
    EXTI->RTSR1 &= ~padmask;
  if (mode & PAL_EVENT_MODE_FALLING_EDGE)
    EXTI->FTSR1 |= padmask;
  else
    EXTI->FTSR1 &= ~padmask;
 8001776:	68da      	ldr	r2, [r3, #12]
 8001778:	f022 0201 	bic.w	r2, r2, #1
 800177c:	60da      	str	r2, [r3, #12]
  /* Programming interrupt and event registers.*/
#if defined(STM32_EXTI_ENHANCED)
  EXTI_D1->IMR1 |= padmask;
  EXTI_D1->EMR1 &= ~padmask;
#else
  EXTI->IMR1 |= padmask;
 800177e:	4b0a      	ldr	r3, [pc, #40]	; (80017a8 <_pal_lld_enablepadevent.constprop.0+0x58>)
 8001780:	681a      	ldr	r2, [r3, #0]
 8001782:	f042 0201 	orr.w	r2, r2, #1
 8001786:	601a      	str	r2, [r3, #0]
  EXTI->EMR1 &= ~padmask;
 8001788:	685a      	ldr	r2, [r3, #4]
 800178a:	f022 0201 	bic.w	r2, r2, #1
 800178e:	605a      	str	r2, [r3, #4]
#endif
}
 8001790:	bd08      	pop	{r3, pc}
    EXTI->RTSR1 &= ~padmask;
 8001792:	f022 0201 	bic.w	r2, r2, #1
 8001796:	609a      	str	r2, [r3, #8]
    EXTI->FTSR1 |= padmask;
 8001798:	68da      	ldr	r2, [r3, #12]
 800179a:	f042 0201 	orr.w	r2, r2, #1
 800179e:	60da      	str	r2, [r3, #12]
 80017a0:	e7ed      	b.n	800177e <_pal_lld_enablepadevent.constprop.0+0x2e>
  osalDbgAssert(((EXTI->RTSR1 & padmask) == 0U) &&
 80017a2:	4803      	ldr	r0, [pc, #12]	; (80017b0 <_pal_lld_enablepadevent.constprop.0+0x60>)
 80017a4:	f7ff fa6c 	bl	8000c80 <chSysHalt>
 80017a8:	40013c00 	.word	0x40013c00
 80017ac:	40013800 	.word	0x40013800
 80017b0:	08007dcc 	.word	0x08007dcc
	...

080017c0 <vt_cb>:

/* Virtual timer. */
static virtual_timer_t vt, vt2;

/* Callback of the virtual timer. */
static void vt_cb(virtual_timer_t *vtp, void *p) { // Timer cb after 50ms (single click)
 80017c0:	b510      	push	{r4, lr}
 80017c2:	2330      	movs	r3, #48	; 0x30
 80017c4:	f383 8811 	msr	BASEPRI, r3
  if (unlikely((oip->dbg.isr_cnt <= (cnt_t)0) ||
 80017c8:	4c0f      	ldr	r4, [pc, #60]	; (8001808 <vt_cb+0x48>)
 80017ca:	f8d4 308c 	ldr.w	r3, [r4, #140]	; 0x8c
 80017ce:	2b00      	cmp	r3, #0
 80017d0:	dd16      	ble.n	8001800 <vt_cb+0x40>
 80017d2:	f8d4 3090 	ldr.w	r3, [r4, #144]	; 0x90
 80017d6:	b99b      	cbnz	r3, 8001800 <vt_cb+0x40>
  (void)vtp;
  (void)p;
  chSysLockFromISR();
  /* Enabling the event and associating the callback. */
  if (btn_second_edge) // The first edge is a negative one, the second a rising one
 80017d8:	4b0c      	ldr	r3, [pc, #48]	; (800180c <vt_cb+0x4c>)
 80017da:	781b      	ldrb	r3, [r3, #0]
  oip->dbg.lock_cnt = (cnt_t)1;
 80017dc:	2001      	movs	r0, #1
 80017de:	f8c4 0090 	str.w	r0, [r4, #144]	; 0x90
 80017e2:	b15b      	cbz	r3, 80017fc <vt_cb+0x3c>
    palEnableLineEventI(EXTBTN, PAL_EVENT_MODE_RISING_EDGE); // Prepare for release of button
  else
    palEnableLineEventI(EXTBTN, PAL_EVENT_MODE_FALLING_EDGE);
 80017e4:	f7ff ffb4 	bl	8001750 <_pal_lld_enablepadevent.constprop.0>
 * @iclass
 */
void palSetLineCallbackI(ioline_t line, palcallback_t cb, void *arg) {

  palevent_t *pep = pal_lld_get_line_event(line);
  pep->cb = cb;
 80017e8:	4a09      	ldr	r2, [pc, #36]	; (8001810 <vt_cb+0x50>)
 80017ea:	490a      	ldr	r1, [pc, #40]	; (8001814 <vt_cb+0x54>)
  pep->arg = arg;
 80017ec:	2300      	movs	r3, #0
 80017ee:	e9c2 1300 	strd	r1, r3, [r2]
  oip->dbg.lock_cnt = (cnt_t)0;
 80017f2:	f8c4 3090 	str.w	r3, [r4, #144]	; 0x90
 80017f6:	f383 8811 	msr	BASEPRI, r3
  palSetLineCallbackI(EXTBTN, button_cb, NULL);
  chSysUnlockFromISR();
}
 80017fa:	bd10      	pop	{r4, pc}
    palEnableLineEventI(EXTBTN, PAL_EVENT_MODE_FALLING_EDGE);
 80017fc:	2002      	movs	r0, #2
 80017fe:	e7f1      	b.n	80017e4 <vt_cb+0x24>
    chSysHalt("SV#6");
 8001800:	4805      	ldr	r0, [pc, #20]	; (8001818 <vt_cb+0x58>)
 8001802:	f7ff fa3d 	bl	8000c80 <chSysHalt>
 8001806:	bf00      	nop
 8001808:	20000ec8 	.word	0x20000ec8
 800180c:	20000ec1 	.word	0x20000ec1
 8001810:	20000e40 	.word	0x20000e40
 8001814:	08001921 	.word	0x08001921
 8001818:	080072ec 	.word	0x080072ec
 800181c:	00000000 	.word	0x00000000

08001820 <vt_insert_first.constprop.0>:
static void vt_insert_first(virtual_timers_list_t *vtlp,
 8001820:	b538      	push	{r3, r4, r5, lr}
  vtlp->lasttime = now;
 8001822:	4c1c      	ldr	r4, [pc, #112]	; (8001894 <vt_insert_first.constprop.0+0x74>)
  dlp->prev       = dlhp;
 8001824:	f104 0310 	add.w	r3, r4, #16
 8001828:	61e1      	str	r1, [r4, #28]
 800182a:	6043      	str	r3, [r0, #4]
  dlp->next       = dlp->prev->next;
 800182c:	6923      	ldr	r3, [r4, #16]
  dlp->delta      = delta;
 800182e:	6082      	str	r2, [r0, #8]
  dlp->next       = dlp->prev->next;
 8001830:	6003      	str	r3, [r0, #0]
  dlp->next->prev = dlp;
 8001832:	6058      	str	r0, [r3, #4]
  return (bool)((STM32_ST_TIM->DIER & STM32_TIM_DIER_CC1IE) != 0);
 8001834:	f04f 4380 	mov.w	r3, #1073741824	; 0x40000000
  dlhp->next      = dlp;
 8001838:	6120      	str	r0, [r4, #16]
 800183a:	68d8      	ldr	r0, [r3, #12]
 800183c:	2a02      	cmp	r2, #2
 800183e:	bf38      	it	cc
 8001840:	2202      	movcc	r2, #2
  osalDbgAssert(stIsAlarmActive() == false, "already active");
 8001842:	f010 0002 	ands.w	r0, r0, #2
  return systime + (systime_t)interval;
 8001846:	eb01 0502 	add.w	r5, r1, r2
 800184a:	d11c      	bne.n	8001886 <vt_insert_first.constprop.0+0x66>
  STM32_ST_TIM->CCR[0] = (uint32_t)abstime;
 800184c:	635d      	str	r5, [r3, #52]	; 0x34
  STM32_ST_TIM->SR     = 0;
 800184e:	6118      	str	r0, [r3, #16]
  STM32_ST_TIM->DIER   = STM32_TIM_DIER_CC1IE;
 8001850:	2002      	movs	r0, #2
 8001852:	60d8      	str	r0, [r3, #12]
  return (systime_t)STM32_ST_TIM->CNT;
 8001854:	6a5d      	ldr	r5, [r3, #36]	; 0x24
  return (sysinterval_t)((systime_t)(end - start));
 8001856:	eba5 0c01 	sub.w	ip, r5, r1
    if (likely(chTimeDiffX(now, newnow) < delay)) {
 800185a:	4562      	cmp	r2, ip
 800185c:	d902      	bls.n	8001864 <vt_insert_first.constprop.0+0x44>
}
 800185e:	bd38      	pop	{r3, r4, r5, pc}
 8001860:	4629      	mov	r1, r5
 8001862:	4615      	mov	r5, r2
  return (bool)((STM32_ST_TIM->DIER & STM32_TIM_DIER_CC1IE) != 0);
 8001864:	68da      	ldr	r2, [r3, #12]
    currdelta += (sysinterval_t)1;
 8001866:	3001      	adds	r0, #1
  osalDbgAssert(stIsAlarmActive() != false, "not active");
 8001868:	0792      	lsls	r2, r2, #30
  return systime + (systime_t)interval;
 800186a:	4401      	add	r1, r0
 800186c:	d50e      	bpl.n	800188c <vt_insert_first.constprop.0+0x6c>
  STM32_ST_TIM->CCR[0] = (uint32_t)abstime;
 800186e:	6359      	str	r1, [r3, #52]	; 0x34
  return (systime_t)STM32_ST_TIM->CNT;
 8001870:	6a5a      	ldr	r2, [r3, #36]	; 0x24
  return (sysinterval_t)((systime_t)(end - start));
 8001872:	1b51      	subs	r1, r2, r5
    if (likely(chTimeDiffX(now, newnow) < delay)) {
 8001874:	4281      	cmp	r1, r0
 8001876:	d2f3      	bcs.n	8001860 <vt_insert_first.constprop.0+0x40>
  if (currdelta > CH_CFG_ST_TIMEDELTA) {
 8001878:	2802      	cmp	r0, #2
 800187a:	d9f0      	bls.n	800185e <vt_insert_first.constprop.0+0x3e>
 800187c:	6b63      	ldr	r3, [r4, #52]	; 0x34
 800187e:	f043 0301 	orr.w	r3, r3, #1
 8001882:	6363      	str	r3, [r4, #52]	; 0x34
}
 8001884:	bd38      	pop	{r3, r4, r5, pc}
  osalDbgAssert(stIsAlarmActive() == false, "already active");
 8001886:	4804      	ldr	r0, [pc, #16]	; (8001898 <vt_insert_first.constprop.0+0x78>)
 8001888:	f7ff f9fa 	bl	8000c80 <chSysHalt>
  osalDbgAssert(stIsAlarmActive() != false, "not active");
 800188c:	4803      	ldr	r0, [pc, #12]	; (800189c <vt_insert_first.constprop.0+0x7c>)
 800188e:	f7ff f9f7 	bl	8000c80 <chSysHalt>
 8001892:	bf00      	nop
 8001894:	20000ec8 	.word	0x20000ec8
 8001898:	08007eac 	.word	0x08007eac
 800189c:	08007d50 	.word	0x08007d50

080018a0 <vt_enqueue.constprop.0>:
static void vt_enqueue(virtual_timers_list_t *vtlp,
 80018a0:	b5f8      	push	{r3, r4, r5, r6, r7, lr}
 80018a2:	f04f 4380 	mov.w	r3, #1073741824	; 0x40000000
  return (bool)(dlhp == dlhp->next);
 80018a6:	4f1c      	ldr	r7, [pc, #112]	; (8001918 <vt_enqueue.constprop.0+0x78>)
 80018a8:	f8d3 c024 	ldr.w	ip, [r3, #36]	; 0x24
 80018ac:	463b      	mov	r3, r7
 80018ae:	460a      	mov	r2, r1
 80018b0:	f853 5f10 	ldr.w	r5, [r3, #16]!
    if (ch_dlist_isempty(&vtlp->dlist)) {
 80018b4:	429d      	cmp	r5, r3
 80018b6:	d02a      	beq.n	800190e <vt_enqueue.constprop.0+0x6e>
 80018b8:	69fc      	ldr	r4, [r7, #28]
    if (delta < vtlp->dlist.next->delta) {
 80018ba:	68ab      	ldr	r3, [r5, #8]
 80018bc:	ebac 0404 	sub.w	r4, ip, r4
      delta = delay;
 80018c0:	190c      	adds	r4, r1, r4
 80018c2:	bf28      	it	cs
 80018c4:	460c      	movcs	r4, r1
    if (delta < vtlp->dlist.next->delta) {
 80018c6:	42a3      	cmp	r3, r4
 80018c8:	4606      	mov	r6, r0
 80018ca:	d81b      	bhi.n	8001904 <vt_enqueue.constprop.0+0x64>
  while (likely(dlp->delta < delta)) {
 80018cc:	429c      	cmp	r4, r3
 80018ce:	d909      	bls.n	80018e4 <vt_enqueue.constprop.0+0x44>
    chDbgAssert(dlp != dlep, "element already in list");
 80018d0:	42b5      	cmp	r5, r6
 80018d2:	d102      	bne.n	80018da <vt_enqueue.constprop.0+0x3a>
 80018d4:	e013      	b.n	80018fe <vt_enqueue.constprop.0+0x5e>
 80018d6:	42ae      	cmp	r6, r5
 80018d8:	d011      	beq.n	80018fe <vt_enqueue.constprop.0+0x5e>
    dlp = dlp->next;
 80018da:	682d      	ldr	r5, [r5, #0]
    delta -= dlp->delta;
 80018dc:	1ae4      	subs	r4, r4, r3
  while (likely(dlp->delta < delta)) {
 80018de:	68ab      	ldr	r3, [r5, #8]
 80018e0:	429c      	cmp	r4, r3
 80018e2:	d8f8      	bhi.n	80018d6 <vt_enqueue.constprop.0+0x36>
  dlp->prev       = dlp->next->prev;
 80018e4:	686b      	ldr	r3, [r5, #4]
  dlp->delta      = delta;
 80018e6:	60b4      	str	r4, [r6, #8]
  dlp->prev       = dlp->next->prev;
 80018e8:	e9c6 5300 	strd	r5, r3, [r6]
  dlp->prev->next = dlp;
 80018ec:	601e      	str	r6, [r3, #0]
  dlp->delta -= delta;
 80018ee:	68ab      	ldr	r3, [r5, #8]
  dlhp->prev      = dlp;
 80018f0:	606e      	str	r6, [r5, #4]
  dlp->delta -= delta;
 80018f2:	1b1b      	subs	r3, r3, r4
  dlhp->delta = (sysinterval_t)-1;
 80018f4:	f04f 32ff 	mov.w	r2, #4294967295	; 0xffffffff
  dlp->delta -= delta;
 80018f8:	60ab      	str	r3, [r5, #8]
  dlhp->delta = (sysinterval_t)-1;
 80018fa:	61ba      	str	r2, [r7, #24]
}
 80018fc:	bdf8      	pop	{r3, r4, r5, r6, r7, pc}
    chDbgAssert(dlp != dlep, "element already in list");
 80018fe:	4807      	ldr	r0, [pc, #28]	; (800191c <vt_enqueue.constprop.0+0x7c>)
 8001900:	f7ff f9be 	bl	8000c80 <chSysHalt>
      vt_set_alarm(now, delay);
 8001904:	4660      	mov	r0, ip
 8001906:	f7ff fc23 	bl	8001150 <vt_set_alarm>
  while (likely(dlp->delta < delta)) {
 800190a:	68ab      	ldr	r3, [r5, #8]
 800190c:	e7de      	b.n	80018cc <vt_enqueue.constprop.0+0x2c>
}
 800190e:	e8bd 40f8 	ldmia.w	sp!, {r3, r4, r5, r6, r7, lr}
      vt_insert_first(vtlp, vtp, now, delay);
 8001912:	4661      	mov	r1, ip
 8001914:	f7ff bf84 	b.w	8001820 <vt_insert_first.constprop.0>
 8001918:	20000ec8 	.word	0x20000ec8
 800191c:	08008004 	.word	0x08008004

08001920 <button_cb>:

  btn_cnt = 0;
  chSysUnlockFromISR();
}
/* Callback associated to the falling or rising edge of the button line. */
static void button_cb(void *arg) {
 8001920:	b570      	push	{r4, r5, r6, lr}
 8001922:	4844      	ldr	r0, [pc, #272]	; (8001a34 <button_cb+0x114>)
  }
  else{                  // very first negative going edge or Button released
    btn_second_edge = 1;
    //chMBPostI(&mb_dbg, (msg_t) (uint32_t)((1<<24) | 4)); // crashes here!!
  }
  btn_cnt++;           // count edges
 8001924:	4944      	ldr	r1, [pc, #272]	; (8001a38 <button_cb+0x118>)
  if (btn_second_edge){    // next edge
 8001926:	7803      	ldrb	r3, [r0, #0]
  btn_cnt++;           // count edges
 8001928:	780a      	ldrb	r2, [r1, #0]
  if (btn_second_edge){    // next edge
 800192a:	fab3 f383 	clz	r3, r3
 800192e:	095b      	lsrs	r3, r3, #5
  btn_cnt++;           // count edges
 8001930:	3201      	adds	r2, #1
  if (btn_second_edge){    // next edge
 8001932:	7003      	strb	r3, [r0, #0]
  btn_cnt++;           // count edges
 8001934:	700a      	strb	r2, [r1, #0]
 8001936:	2330      	movs	r3, #48	; 0x30
 8001938:	f383 8811 	msr	BASEPRI, r3
  if (unlikely((oip->dbg.isr_cnt <= (cnt_t)0) ||
 800193c:	4c3f      	ldr	r4, [pc, #252]	; (8001a3c <button_cb+0x11c>)
 800193e:	f8d4 308c 	ldr.w	r3, [r4, #140]	; 0x8c
 8001942:	2b00      	cmp	r3, #0
 8001944:	dd6c      	ble.n	8001a20 <button_cb+0x100>
 8001946:	f8d4 3090 	ldr.w	r3, [r4, #144]	; 0x90
 800194a:	2b00      	cmp	r3, #0
 800194c:	d168      	bne.n	8001a20 <button_cb+0x100>
 * @notapi
 */
void _pal_lld_disablepadevent(ioportid_t port, iopadid_t pad) {
  uint32_t padmask, rtsr1, ftsr1;

  rtsr1 = EXTI->RTSR1;
 800194e:	4b3c      	ldr	r3, [pc, #240]	; (8001a40 <button_cb+0x120>)
 8001950:	6899      	ldr	r1, [r3, #8]
  ftsr1 = EXTI->FTSR1;
 8001952:	68da      	ldr	r2, [r3, #12]

  /* Mask of the pad.*/
  padmask = 1U << (uint32_t)pad;

  /* If either RTRS1 or FTSR1 is enabled then the channel is in use.*/
  if (((rtsr1 | ftsr1) & padmask) != 0U) {
 8001954:	ea41 0002 	orr.w	r0, r1, r2
  oip->dbg.lock_cnt = (cnt_t)1;
 8001958:	2501      	movs	r5, #1
 800195a:	07c0      	lsls	r0, r0, #31
 800195c:	f8c4 5090 	str.w	r5, [r4, #144]	; 0x90
 8001960:	d516      	bpl.n	8001990 <button_cb+0x70>

    /* Index and mask of the CR register to be used.*/
    cridx  = (uint32_t)pad >> 2U;
#if STM32_EXTI_HAS_CR == FALSE
    croff  = ((uint32_t)pad & 3U) * 4U;
    crport = (SYSCFG->EXTICR[cridx] >> croff) & 0xFU;
 8001962:	4838      	ldr	r0, [pc, #224]	; (8001a44 <button_cb+0x124>)
 8001964:	6880      	ldr	r0, [r0, #8]
#else
    croff  = ((uint32_t)pad & 3U) * 8U;
    crport = (EXTI->EXTICR[cridx] >> croff) & 0xFFU;
#endif

    osalDbgAssert(crport == portidx, "channel mapped on different port");
 8001966:	f010 000f 	ands.w	r0, r0, #15
 800196a:	d15c      	bne.n	8001a26 <button_cb+0x106>
    EXTI->RTSR1     = rtsr1 & ~padmask;
    EXTI->FTSR1     = ftsr1 & ~padmask;
    EXTI_D1->PR1    = padmask;
#else
    /* Disabling channel.*/
    EXTI->IMR1  &= ~padmask;
 800196c:	681e      	ldr	r6, [r3, #0]
 800196e:	f026 0601 	bic.w	r6, r6, #1
 8001972:	601e      	str	r6, [r3, #0]
    EXTI->EMR1  &= ~padmask;
 8001974:	685e      	ldr	r6, [r3, #4]
    EXTI->RTSR1  = rtsr1 & ~padmask;
    EXTI->FTSR1  = ftsr1 & ~padmask;
 8001976:	f022 0201 	bic.w	r2, r2, #1
    EXTI->RTSR1  = rtsr1 & ~padmask;
 800197a:	f021 0101 	bic.w	r1, r1, #1
    EXTI->EMR1  &= ~padmask;
 800197e:	f026 0601 	bic.w	r6, r6, #1
 8001982:	605e      	str	r6, [r3, #4]
    EXTI->RTSR1  = rtsr1 & ~padmask;
 8001984:	6099      	str	r1, [r3, #8]
    EXTI->FTSR1  = ftsr1 & ~padmask;
 8001986:	60da      	str	r2, [r3, #12]
#endif
#endif

#if PAL_USE_CALLBACKS || PAL_USE_WAIT
  /* Callback cleared and/or thread reset.*/
  _pal_clear_event(pad);
 8001988:	4a2f      	ldr	r2, [pc, #188]	; (8001a48 <button_cb+0x128>)
    EXTI->PR1    = padmask;
 800198a:	615d      	str	r5, [r3, #20]
  _pal_clear_event(pad);
 800198c:	e9c2 0000 	strd	r0, r0, [r2]
 8001990:	4d2e      	ldr	r5, [pc, #184]	; (8001a4c <button_cb+0x12c>)
 *
 * @iclass
 */
static inline void chVTResetI(virtual_timer_t *vtp) {

  if (chVTIsArmedI(vtp)) {
 8001992:	682b      	ldr	r3, [r5, #0]
 8001994:	b153      	cbz	r3, 80019ac <button_cb+0x8c>
    chVTDoResetI(vtp);
 8001996:	4628      	mov	r0, r5
 8001998:	f7ff fc0a 	bl	80011b0 <chVTDoResetI>
  if (unlikely((oip->dbg.isr_cnt < (cnt_t)0) ||
 800199c:	f8d4 308c 	ldr.w	r3, [r4, #140]	; 0x8c
 80019a0:	2b00      	cmp	r3, #0
 80019a2:	db3a      	blt.n	8001a1a <button_cb+0xfa>
 80019a4:	f8d4 3090 	ldr.w	r3, [r4, #144]	; 0x90
 80019a8:	2b00      	cmp	r3, #0
 80019aa:	dd36      	ble.n	8001a1a <button_cb+0xfa>
  vtp->func    = vtfunc;
 80019ac:	4a28      	ldr	r2, [pc, #160]	; (8001a50 <button_cb+0x130>)
  vt_enqueue(vtlp, vtp, delay);
 80019ae:	4827      	ldr	r0, [pc, #156]	; (8001a4c <button_cb+0x12c>)
  vtp->par     = par;
 80019b0:	2300      	movs	r3, #0
  vt_enqueue(vtlp, vtp, delay);
 80019b2:	f44f 71fa 	mov.w	r1, #500	; 0x1f4
  vtp->func    = vtfunc;
 80019b6:	e9c5 2303 	strd	r2, r3, [r5, #12]
  vtp->reload  = (sysinterval_t)0;
 80019ba:	616b      	str	r3, [r5, #20]
  vt_enqueue(vtlp, vtp, delay);
 80019bc:	f7ff ff70 	bl	80018a0 <vt_enqueue.constprop.0>
 80019c0:	f8d4 308c 	ldr.w	r3, [r4, #140]	; 0x8c
 80019c4:	2b00      	cmp	r3, #0
 80019c6:	db28      	blt.n	8001a1a <button_cb+0xfa>
 80019c8:	f8d4 3090 	ldr.w	r3, [r4, #144]	; 0x90
 80019cc:	2b00      	cmp	r3, #0
 80019ce:	dd24      	ble.n	8001a1a <button_cb+0xfa>
  return (bool)(vtp->dlist.next != NULL);
 80019d0:	4d20      	ldr	r5, [pc, #128]	; (8001a54 <button_cb+0x134>)
  if (chVTIsArmedI(vtp)) {
 80019d2:	682b      	ldr	r3, [r5, #0]
 80019d4:	b153      	cbz	r3, 80019ec <button_cb+0xcc>
    chVTDoResetI(vtp);
 80019d6:	4628      	mov	r0, r5
 80019d8:	f7ff fbea 	bl	80011b0 <chVTDoResetI>
 80019dc:	f8d4 308c 	ldr.w	r3, [r4, #140]	; 0x8c
 80019e0:	2b00      	cmp	r3, #0
 80019e2:	db1a      	blt.n	8001a1a <button_cb+0xfa>
 80019e4:	f8d4 3090 	ldr.w	r3, [r4, #144]	; 0x90
 80019e8:	2b00      	cmp	r3, #0
 80019ea:	dd16      	ble.n	8001a1a <button_cb+0xfa>
  vtp->func    = vtfunc;
 80019ec:	4b1a      	ldr	r3, [pc, #104]	; (8001a58 <button_cb+0x138>)
  vt_enqueue(vtlp, vtp, delay);
 80019ee:	4819      	ldr	r0, [pc, #100]	; (8001a54 <button_cb+0x134>)
  vtp->par     = par;
 80019f0:	2600      	movs	r6, #0
  vt_enqueue(vtlp, vtp, delay);
 80019f2:	f44f 61fa 	mov.w	r1, #2000	; 0x7d0
  vtp->func    = vtfunc;
 80019f6:	e9c5 3603 	strd	r3, r6, [r5, #12]
  vtp->reload  = (sysinterval_t)0;
 80019fa:	616e      	str	r6, [r5, #20]
  vt_enqueue(vtlp, vtp, delay);
 80019fc:	f7ff ff50 	bl	80018a0 <vt_enqueue.constprop.0>
  if (unlikely((oip->dbg.isr_cnt <= (cnt_t)0) ||
 8001a00:	f8d4 308c 	ldr.w	r3, [r4, #140]	; 0x8c
 8001a04:	42b3      	cmp	r3, r6
 8001a06:	dd11      	ble.n	8001a2c <button_cb+0x10c>
 8001a08:	f8d4 3090 	ldr.w	r3, [r4, #144]	; 0x90
 8001a0c:	42b3      	cmp	r3, r6
 8001a0e:	dd0d      	ble.n	8001a2c <button_cb+0x10c>
  oip->dbg.lock_cnt = (cnt_t)0;
 8001a10:	f8c4 6090 	str.w	r6, [r4, #144]	; 0x90
 8001a14:	f386 8811 	msr	BASEPRI, r6
  chVTResetI(&vt);
  chVTDoSetI(&vt, TIME_MS2I(50), vt_cb, NULL);
  chVTResetI(&vt2);
  chVTDoSetI(&vt2, TIME_MS2I(200), vt2_cb, NULL);
  chSysUnlockFromISR();
}
 8001a18:	bd70      	pop	{r4, r5, r6, pc}
    chSysHalt("SV#10");
 8001a1a:	4810      	ldr	r0, [pc, #64]	; (8001a5c <button_cb+0x13c>)
 8001a1c:	f7ff f930 	bl	8000c80 <chSysHalt>
    chSysHalt("SV#6");
 8001a20:	480f      	ldr	r0, [pc, #60]	; (8001a60 <button_cb+0x140>)
 8001a22:	f7ff f92d 	bl	8000c80 <chSysHalt>
    osalDbgAssert(crport == portidx, "channel mapped on different port");
 8001a26:	480f      	ldr	r0, [pc, #60]	; (8001a64 <button_cb+0x144>)
 8001a28:	f7ff f92a 	bl	8000c80 <chSysHalt>
    chSysHalt("SV#7");
 8001a2c:	480e      	ldr	r0, [pc, #56]	; (8001a68 <button_cb+0x148>)
 8001a2e:	f7ff f927 	bl	8000c80 <chSysHalt>
 8001a32:	bf00      	nop
 8001a34:	20000ec1 	.word	0x20000ec1
 8001a38:	20000ec0 	.word	0x20000ec0
 8001a3c:	20000ec8 	.word	0x20000ec8
 8001a40:	40013c00 	.word	0x40013c00
 8001a44:	40013800 	.word	0x40013800
 8001a48:	20000e40 	.word	0x20000e40
 8001a4c:	20001bcc 	.word	0x20001bcc
 8001a50:	080017c1 	.word	0x080017c1
 8001a54:	20001be4 	.word	0x20001be4
 8001a58:	08001e61 	.word	0x08001e61
 8001a5c:	080072e4 	.word	0x080072e4
 8001a60:	080072ec 	.word	0x080072ec
 8001a64:	08007ce8 	.word	0x08007ce8
 8001a68:	080072fc 	.word	0x080072fc
 8001a6c:	00000000 	.word	0x00000000

08001a70 <__sch_ready_behind.isra.0>:
static thread_t *__sch_ready_behind(thread_t *tp) {
 8001a70:	b510      	push	{r4, lr}
  chDbgAssert((tp->state != CH_STATE_READY) &&
 8001a72:	f890 3028 	ldrb.w	r3, [r0, #40]	; 0x28
 8001a76:	b313      	cbz	r3, 8001abe <__sch_ready_behind.isra.0+0x4e>
 8001a78:	2b0f      	cmp	r3, #15
 8001a7a:	d020      	beq.n	8001abe <__sch_ready_behind.isra.0+0x4e>
  if ((oip->trace_buffer.suspended & CH_DBG_TRACE_MASK_READY) == 0U) {
 8001a7c:	4a11      	ldr	r2, [pc, #68]	; (8001ac4 <__sch_ready_behind.isra.0+0x54>)
 8001a7e:	f8b2 1094 	ldrh.w	r1, [r2, #148]	; 0x94
 8001a82:	07c9      	lsls	r1, r1, #31
 8001a84:	4604      	mov	r4, r0
 8001a86:	d50e      	bpl.n	8001aa6 <__sch_ready_behind.isra.0+0x36>
  tp->state = CH_STATE_READY;
 8001a88:	2200      	movs	r2, #0
  return threadref(ch_pqueue_insert_behind(&tp->owner->rlist.pqueue,
 8001a8a:	69a3      	ldr	r3, [r4, #24]
  } while (unlikely(pqp->prio >= p->prio));
 8001a8c:	68a1      	ldr	r1, [r4, #8]
  tp->state = CH_STATE_READY;
 8001a8e:	f884 2028 	strb.w	r2, [r4, #40]	; 0x28
    pqp = pqp->next;
 8001a92:	681b      	ldr	r3, [r3, #0]
  } while (unlikely(pqp->prio >= p->prio));
 8001a94:	689a      	ldr	r2, [r3, #8]
 8001a96:	428a      	cmp	r2, r1
 8001a98:	d2fb      	bcs.n	8001a92 <__sch_ready_behind.isra.0+0x22>
  p->prev       = pqp->prev;
 8001a9a:	685a      	ldr	r2, [r3, #4]
 8001a9c:	e9c4 3200 	strd	r3, r2, [r4]
  p->prev->next = p;
 8001aa0:	6014      	str	r4, [r2, #0]
  pqp->prev     = p;
 8001aa2:	605c      	str	r4, [r3, #4]
}
 8001aa4:	bd10      	pop	{r4, pc}
    oip->trace_buffer.ptr->type        = CH_TRACE_TYPE_READY;
 8001aa6:	f8d2 2098 	ldr.w	r2, [r2, #152]	; 0x98
  __trace_ready(tp, tp->u.rdymsg);
 8001aaa:	6ac1      	ldr	r1, [r0, #44]	; 0x2c
 8001aac:	00db      	lsls	r3, r3, #3
 8001aae:	f043 0301 	orr.w	r3, r3, #1
    oip->trace_buffer.ptr->u.rdy.msg   = msg;
 8001ab2:	e9c2 0102 	strd	r0, r1, [r2, #8]
    oip->trace_buffer.ptr->type        = CH_TRACE_TYPE_READY;
 8001ab6:	7013      	strb	r3, [r2, #0]
    trace_next(oip);
 8001ab8:	f7ff f8c2 	bl	8000c40 <trace_next.constprop.0>
}
 8001abc:	e7e4      	b.n	8001a88 <__sch_ready_behind.isra.0+0x18>
  chDbgAssert((tp->state != CH_STATE_READY) &&
 8001abe:	4802      	ldr	r0, [pc, #8]	; (8001ac8 <__sch_ready_behind.isra.0+0x58>)
 8001ac0:	f7ff f8de 	bl	8000c80 <chSysHalt>
 8001ac4:	20000ec8 	.word	0x20000ec8
 8001ac8:	08007f58 	.word	0x08007f58
 8001acc:	00000000 	.word	0x00000000

08001ad0 <__sch_wakeup>:
static void __sch_wakeup(virtual_timer_t *vtp, void *p) {
 8001ad0:	b510      	push	{r4, lr}
 8001ad2:	2330      	movs	r3, #48	; 0x30
 8001ad4:	f383 8811 	msr	BASEPRI, r3
  if (unlikely((oip->dbg.isr_cnt <= (cnt_t)0) ||
 8001ad8:	4c1f      	ldr	r4, [pc, #124]	; (8001b58 <__sch_wakeup+0x88>)
 8001ada:	f8d4 308c 	ldr.w	r3, [r4, #140]	; 0x8c
 8001ade:	2b00      	cmp	r3, #0
 8001ae0:	dd36      	ble.n	8001b50 <__sch_wakeup+0x80>
 8001ae2:	f8d4 3090 	ldr.w	r3, [r4, #144]	; 0x90
 8001ae6:	2b00      	cmp	r3, #0
 8001ae8:	d132      	bne.n	8001b50 <__sch_wakeup+0x80>
  oip->dbg.lock_cnt = (cnt_t)1;
 8001aea:	2301      	movs	r3, #1
 8001aec:	f8c4 3090 	str.w	r3, [r4, #144]	; 0x90
  switch (tp->state) {
 8001af0:	f891 3028 	ldrb.w	r3, [r1, #40]	; 0x28
 8001af4:	4608      	mov	r0, r1
 8001af6:	2b0c      	cmp	r3, #12
 8001af8:	d810      	bhi.n	8001b1c <__sch_wakeup+0x4c>
 8001afa:	e8df f003 	tbb	[pc, r3]
 8001afe:	0f1c      	.short	0x0f1c
 8001b00:	070b220f 	.word	0x070b220f
 8001b04:	0f0f0b0f 	.word	0x0f0f0b0f
 8001b08:	0f0f      	.short	0x0f0f
 8001b0a:	0b          	.byte	0x0b
 8001b0b:	00          	.byte	0x00
    chSemFastSignalI(tp->u.wtsemp);
 8001b0c:	6aca      	ldr	r2, [r1, #44]	; 0x2c
 */
static inline void chSemFastSignalI(semaphore_t *sp) {

  chDbgCheckClassI();

  sp->cnt++;
 8001b0e:	6893      	ldr	r3, [r2, #8]
 8001b10:	3301      	adds	r3, #1
 8001b12:	6093      	str	r3, [r2, #8]
  p->prev->next = p->next;
 8001b14:	e9d0 3200 	ldrd	r3, r2, [r0]
 8001b18:	6013      	str	r3, [r2, #0]
  p->next->prev = p->prev;
 8001b1a:	605a      	str	r2, [r3, #4]
  tp->u.rdymsg = MSG_TIMEOUT;
 8001b1c:	f04f 33ff 	mov.w	r3, #4294967295	; 0xffffffff
 8001b20:	62c3      	str	r3, [r0, #44]	; 0x2c
  (void) __sch_ready_behind(tp);
 8001b22:	f7ff ffa5 	bl	8001a70 <__sch_ready_behind.isra.0>
  if (unlikely((oip->dbg.isr_cnt <= (cnt_t)0) ||
 8001b26:	f8d4 308c 	ldr.w	r3, [r4, #140]	; 0x8c
 8001b2a:	2b00      	cmp	r3, #0
 8001b2c:	dd0d      	ble.n	8001b4a <__sch_wakeup+0x7a>
 8001b2e:	f8d4 3090 	ldr.w	r3, [r4, #144]	; 0x90
 8001b32:	2b00      	cmp	r3, #0
 8001b34:	dd09      	ble.n	8001b4a <__sch_wakeup+0x7a>
  oip->dbg.lock_cnt = (cnt_t)0;
 8001b36:	2300      	movs	r3, #0
 8001b38:	f8c4 3090 	str.w	r3, [r4, #144]	; 0x90
 8001b3c:	f383 8811 	msr	BASEPRI, r3
}
 8001b40:	bd10      	pop	{r4, pc}
    *tp->u.wttrp = NULL;
 8001b42:	6acb      	ldr	r3, [r1, #44]	; 0x2c
 8001b44:	2200      	movs	r2, #0
 8001b46:	601a      	str	r2, [r3, #0]
    break;
 8001b48:	e7e8      	b.n	8001b1c <__sch_wakeup+0x4c>
    chSysHalt("SV#7");
 8001b4a:	4804      	ldr	r0, [pc, #16]	; (8001b5c <__sch_wakeup+0x8c>)
 8001b4c:	f7ff f898 	bl	8000c80 <chSysHalt>
    chSysHalt("SV#6");
 8001b50:	4803      	ldr	r0, [pc, #12]	; (8001b60 <__sch_wakeup+0x90>)
 8001b52:	f7ff f895 	bl	8000c80 <chSysHalt>
 8001b56:	bf00      	nop
 8001b58:	20000ec8 	.word	0x20000ec8
 8001b5c:	080072fc 	.word	0x080072fc
 8001b60:	080072ec 	.word	0x080072ec
	...

08001b70 <chEvtBroadcastFlagsI>:
 * @param[in] esp       pointer to an @p event_source_t structure
 * @param[in] flags     the flags set to be added to the listener flags mask
 *
 * @iclass
 */
void chEvtBroadcastFlagsI(event_source_t *esp, eventflags_t flags) {
 8001b70:	e92d 41f0 	stmdb	sp!, {r4, r5, r6, r7, r8, lr}
  if (unlikely((oip->dbg.isr_cnt < (cnt_t)0) ||
 8001b74:	4f24      	ldr	r7, [pc, #144]	; (8001c08 <chEvtBroadcastFlagsI+0x98>)
 8001b76:	f8d7 308c 	ldr.w	r3, [r7, #140]	; 0x8c
 8001b7a:	2b00      	cmp	r3, #0
 8001b7c:	db35      	blt.n	8001bea <chEvtBroadcastFlagsI+0x7a>
 8001b7e:	f8d7 3090 	ldr.w	r3, [r7, #144]	; 0x90
 8001b82:	2b00      	cmp	r3, #0
 8001b84:	dd31      	ble.n	8001bea <chEvtBroadcastFlagsI+0x7a>
  event_listener_t *elp;

  chDbgCheckClassI();
  chDbgCheck(esp != NULL);

  elp = esp->next;
 8001b86:	6804      	ldr	r4, [r0, #0]
  /*lint -save -e9087 -e740 [11.3, 1.3] Cast required by list handling.*/
  while (elp != (event_listener_t *)esp) {
 8001b88:	42a0      	cmp	r0, r4
 8001b8a:	4606      	mov	r6, r0
 8001b8c:	d020      	beq.n	8001bd0 <chEvtBroadcastFlagsI+0x60>
 8001b8e:	460d      	mov	r5, r1
    tp->u.rdymsg = MSG_OK;
 8001b90:	f04f 0800 	mov.w	r8, #0
  /*lint -restore*/
    elp->flags |= flags;
 8001b94:	68e3      	ldr	r3, [r4, #12]
 8001b96:	432b      	orrs	r3, r5
 8001b98:	60e3      	str	r3, [r4, #12]
    /* When flags == 0 the thread will always be signaled because the
       source does not emit any flag.*/
    if ((flags == (eventflags_t)0) ||
 8001b9a:	b115      	cbz	r5, 8001ba2 <chEvtBroadcastFlagsI+0x32>
        ((flags & elp->wflags) != (eventflags_t)0)) {
 8001b9c:	6923      	ldr	r3, [r4, #16]
    if ((flags == (eventflags_t)0) ||
 8001b9e:	421d      	tst	r5, r3
 8001ba0:	d013      	beq.n	8001bca <chEvtBroadcastFlagsI+0x5a>
 8001ba2:	f8d7 208c 	ldr.w	r2, [r7, #140]	; 0x8c
 8001ba6:	2a00      	cmp	r2, #0
      chEvtSignalI(elp->listener, elp->events);
 8001ba8:	e9d4 0301 	ldrd	r0, r3, [r4, #4]
 8001bac:	db1d      	blt.n	8001bea <chEvtBroadcastFlagsI+0x7a>
 8001bae:	f8d7 2090 	ldr.w	r2, [r7, #144]	; 0x90
 8001bb2:	2a00      	cmp	r2, #0
 8001bb4:	dd19      	ble.n	8001bea <chEvtBroadcastFlagsI+0x7a>
  chDbgCheck(tp != NULL);
 8001bb6:	b318      	cbz	r0, 8001c00 <chEvtBroadcastFlagsI+0x90>
  tp->epending |= events;
 8001bb8:	6bc2      	ldr	r2, [r0, #60]	; 0x3c
 8001bba:	4313      	orrs	r3, r2
  if (((tp->state == CH_STATE_WTOREVT) &&
 8001bbc:	f890 2028 	ldrb.w	r2, [r0, #40]	; 0x28
  tp->epending |= events;
 8001bc0:	63c3      	str	r3, [r0, #60]	; 0x3c
  if (((tp->state == CH_STATE_WTOREVT) &&
 8001bc2:	2a0a      	cmp	r2, #10
 8001bc4:	d014      	beq.n	8001bf0 <chEvtBroadcastFlagsI+0x80>
       ((tp->epending & tp->u.ewmask) != (eventmask_t)0)) ||
 8001bc6:	2a0b      	cmp	r2, #11
 8001bc8:	d004      	beq.n	8001bd4 <chEvtBroadcastFlagsI+0x64>
    }
    elp = elp->next;
 8001bca:	6824      	ldr	r4, [r4, #0]
  while (elp != (event_listener_t *)esp) {
 8001bcc:	42a6      	cmp	r6, r4
 8001bce:	d1e1      	bne.n	8001b94 <chEvtBroadcastFlagsI+0x24>
  }
}
 8001bd0:	e8bd 81f0 	ldmia.w	sp!, {r4, r5, r6, r7, r8, pc}
       ((tp->epending & tp->u.ewmask) == tp->u.ewmask))) {
 8001bd4:	6ac2      	ldr	r2, [r0, #44]	; 0x2c
      ((tp->state == CH_STATE_WTANDEVT) &&
 8001bd6:	439a      	bics	r2, r3
 8001bd8:	d1f7      	bne.n	8001bca <chEvtBroadcastFlagsI+0x5a>
    tp->u.rdymsg = MSG_OK;
 8001bda:	f8c0 802c 	str.w	r8, [r0, #44]	; 0x2c
  return __sch_ready_behind(tp);
 8001bde:	f7ff ff47 	bl	8001a70 <__sch_ready_behind.isra.0>
    elp = elp->next;
 8001be2:	6824      	ldr	r4, [r4, #0]
  while (elp != (event_listener_t *)esp) {
 8001be4:	42a6      	cmp	r6, r4
 8001be6:	d1d5      	bne.n	8001b94 <chEvtBroadcastFlagsI+0x24>
 8001be8:	e7f2      	b.n	8001bd0 <chEvtBroadcastFlagsI+0x60>
    chSysHalt("SV#10");
 8001bea:	4808      	ldr	r0, [pc, #32]	; (8001c0c <chEvtBroadcastFlagsI+0x9c>)
 8001bec:	f7ff f848 	bl	8000c80 <chSysHalt>
       ((tp->epending & tp->u.ewmask) != (eventmask_t)0)) ||
 8001bf0:	6ac2      	ldr	r2, [r0, #44]	; 0x2c
  if (((tp->state == CH_STATE_WTOREVT) &&
 8001bf2:	4213      	tst	r3, r2
 8001bf4:	d0e9      	beq.n	8001bca <chEvtBroadcastFlagsI+0x5a>
    tp->u.rdymsg = MSG_OK;
 8001bf6:	f8c0 802c 	str.w	r8, [r0, #44]	; 0x2c
 8001bfa:	f7ff ff39 	bl	8001a70 <__sch_ready_behind.isra.0>
 8001bfe:	e7f0      	b.n	8001be2 <chEvtBroadcastFlagsI+0x72>
  chDbgCheck(tp != NULL);
 8001c00:	4803      	ldr	r0, [pc, #12]	; (8001c10 <chEvtBroadcastFlagsI+0xa0>)
 8001c02:	f7ff f83d 	bl	8000c80 <chSysHalt>
 8001c06:	bf00      	nop
 8001c08:	20000ec8 	.word	0x20000ec8
 8001c0c:	080072e4 	.word	0x080072e4
 8001c10:	08007f78 	.word	0x08007f78
	...

08001c20 <sduDataTransmitted>:
void sduDataTransmitted(USBDriver *usbp, usbep_t ep) {
 8001c20:	e92d 43f8 	stmdb	sp!, {r3, r4, r5, r6, r7, r8, r9, lr}
  SerialUSBDriver *sdup = usbp->in_params[ep - 1U];
 8001c24:	eb00 0381 	add.w	r3, r0, r1, lsl #2
 8001c28:	699e      	ldr	r6, [r3, #24]
  if (sdup == NULL) {
 8001c2a:	b3b6      	cbz	r6, 8001c9a <sduDataTransmitted+0x7a>
 8001c2c:	2330      	movs	r3, #48	; 0x30
 8001c2e:	f383 8811 	msr	BASEPRI, r3
  if (unlikely((oip->dbg.isr_cnt <= (cnt_t)0) ||
 8001c32:	4f42      	ldr	r7, [pc, #264]	; (8001d3c <sduDataTransmitted+0x11c>)
 8001c34:	f8d7 308c 	ldr.w	r3, [r7, #140]	; 0x8c
 8001c38:	2b00      	cmp	r3, #0
 8001c3a:	dd59      	ble.n	8001cf0 <sduDataTransmitted+0xd0>
 8001c3c:	f8d7 3090 	ldr.w	r3, [r7, #144]	; 0x90
 8001c40:	2b00      	cmp	r3, #0
 8001c42:	d155      	bne.n	8001cf0 <sduDataTransmitted+0xd0>
  oip->dbg.lock_cnt = (cnt_t)1;
 8001c44:	460d      	mov	r5, r1
 8001c46:	eb00 0985 	add.w	r9, r0, r5, lsl #2
 8001c4a:	2301      	movs	r3, #1
 8001c4c:	4604      	mov	r4, r0
 * @iclass
 */
static inline void osalEventBroadcastFlagsI(event_source_t *esp,
                                            eventflags_t flags) {

  chEvtBroadcastFlagsI(esp, flags);
 8001c4e:	2108      	movs	r1, #8
 8001c50:	1d30      	adds	r0, r6, #4
 8001c52:	f8c7 3090 	str.w	r3, [r7, #144]	; 0x90
 8001c56:	f7ff ff8b 	bl	8001b70 <chEvtBroadcastFlagsI>
  if (usbp->epc[ep]->in_state->txsize > 0U) {
 8001c5a:	f8d9 300c 	ldr.w	r3, [r9, #12]
 8001c5e:	695b      	ldr	r3, [r3, #20]
 8001c60:	681b      	ldr	r3, [r3, #0]
 8001c62:	b9e3      	cbnz	r3, 8001c9e <sduDataTransmitted+0x7e>
  if (unlikely((oip->dbg.isr_cnt < (cnt_t)0) ||
 8001c64:	f8d7 808c 	ldr.w	r8, [r7, #140]	; 0x8c
 8001c68:	f1b8 0f00 	cmp.w	r8, #0
 8001c6c:	db43      	blt.n	8001cf6 <sduDataTransmitted+0xd6>
 8001c6e:	f8d7 3090 	ldr.w	r3, [r7, #144]	; 0x90
 8001c72:	2b00      	cmp	r3, #0
 8001c74:	dd3f      	ble.n	8001cf6 <sduDataTransmitted+0xd6>
 8001c76:	6d73      	ldr	r3, [r6, #84]	; 0x54
 8001c78:	6db2      	ldr	r2, [r6, #88]	; 0x58
 8001c7a:	4293      	cmp	r3, r2
 8001c7c:	d03e      	beq.n	8001cfc <sduDataTransmitted+0xdc>
    usbStartTransmitI(usbp, ep, buf, n);
 8001c7e:	f852 3b04 	ldr.w	r3, [r2], #4
 8001c82:	4629      	mov	r1, r5
 8001c84:	4620      	mov	r0, r4
 8001c86:	f7ff f923 	bl	8000ed0 <usbStartTransmitI>
  if (unlikely((oip->dbg.isr_cnt <= (cnt_t)0) ||
 8001c8a:	f1b8 0f00 	cmp.w	r8, #0
 8001c8e:	d049      	beq.n	8001d24 <sduDataTransmitted+0x104>
  oip->dbg.lock_cnt = (cnt_t)0;
 8001c90:	2300      	movs	r3, #0
 8001c92:	f8c7 3090 	str.w	r3, [r7, #144]	; 0x90
 8001c96:	f383 8811 	msr	BASEPRI, r3
}
 8001c9a:	e8bd 83f8 	ldmia.w	sp!, {r3, r4, r5, r6, r7, r8, r9, pc}
  if (unlikely((oip->dbg.isr_cnt < (cnt_t)0) ||
 8001c9e:	f8d7 808c 	ldr.w	r8, [r7, #140]	; 0x8c
 8001ca2:	f1b8 0f00 	cmp.w	r8, #0
 8001ca6:	db26      	blt.n	8001cf6 <sduDataTransmitted+0xd6>
 8001ca8:	f8d7 3090 	ldr.w	r3, [r7, #144]	; 0x90
 8001cac:	2b00      	cmp	r3, #0
 8001cae:	dd22      	ble.n	8001cf6 <sduDataTransmitted+0xd6>
  osalDbgAssert(!obqIsEmptyI(obqp), "buffers queue empty");
 8001cb0:	e9d6 3115 	ldrd	r3, r1, [r6, #84]	; 0x54
 8001cb4:	428b      	cmp	r3, r1
 8001cb6:	d038      	beq.n	8001d2a <sduDataTransmitted+0x10a>
  obqp->bcounter++;
 8001cb8:	6d32      	ldr	r2, [r6, #80]	; 0x50
  return (bool)(qp->next != qp);
 8001cba:	6c70      	ldr	r0, [r6, #68]	; 0x44
 8001cbc:	3201      	adds	r2, #1
 8001cbe:	6532      	str	r2, [r6, #80]	; 0x50
  obqp->brdptr += obqp->bsize;
 8001cc0:	6e32      	ldr	r2, [r6, #96]	; 0x60
 8001cc2:	4411      	add	r1, r2
  if (obqp->brdptr >= obqp->btop) {
 8001cc4:	6df2      	ldr	r2, [r6, #92]	; 0x5c
  obqp->brdptr += obqp->bsize;
 8001cc6:	65b1      	str	r1, [r6, #88]	; 0x58
  if (obqp->brdptr >= obqp->btop) {
 8001cc8:	4291      	cmp	r1, r2
    obqp->brdptr = obqp->buffers;
 8001cca:	bf24      	itt	cs
 8001ccc:	6eb2      	ldrcs	r2, [r6, #104]	; 0x68
 8001cce:	65b2      	strcs	r2, [r6, #88]	; 0x58
    obqReleaseEmptyBufferI(&sdup->obqueue);
 8001cd0:	f106 0244 	add.w	r2, r6, #68	; 0x44
 *
 * @iclass
 */
void chThdDequeueNextI(threads_queue_t *tqp, msg_t msg) {

  if (ch_queue_notempty(&tqp->queue)) {
 8001cd4:	4282      	cmp	r2, r0
 8001cd6:	d0cf      	beq.n	8001c78 <sduDataTransmitted+0x58>
  qp->next       = p->next;
 8001cd8:	6803      	ldr	r3, [r0, #0]
 8001cda:	6473      	str	r3, [r6, #68]	; 0x44
  qp->next->prev = qp;
 8001cdc:	605a      	str	r2, [r3, #4]

  chDbgAssert(ch_queue_notempty(&tqp->queue), "empty queue");

  tp = threadref(ch_queue_fifo_remove(&tqp->queue));

  chDbgAssert(tp->state == CH_STATE_QUEUED, "invalid state");
 8001cde:	f890 3028 	ldrb.w	r3, [r0, #40]	; 0x28
 8001ce2:	2b04      	cmp	r3, #4
 8001ce4:	d127      	bne.n	8001d36 <sduDataTransmitted+0x116>

  tp->u.rdymsg = msg;
 8001ce6:	2300      	movs	r3, #0
 8001ce8:	62c3      	str	r3, [r0, #44]	; 0x2c
 8001cea:	f7ff fec1 	bl	8001a70 <__sch_ready_behind.isra.0>
 8001cee:	e7b9      	b.n	8001c64 <sduDataTransmitted+0x44>
    chSysHalt("SV#6");
 8001cf0:	4813      	ldr	r0, [pc, #76]	; (8001d40 <sduDataTransmitted+0x120>)
 8001cf2:	f7fe ffc5 	bl	8000c80 <chSysHalt>
    chSysHalt("SV#10");
 8001cf6:	4813      	ldr	r0, [pc, #76]	; (8001d44 <sduDataTransmitted+0x124>)
 8001cf8:	f7fe ffc2 	bl	8000c80 <chSysHalt>
  if (obqIsEmptyI(obqp)) {
 8001cfc:	6d33      	ldr	r3, [r6, #80]	; 0x50
 8001cfe:	2b00      	cmp	r3, #0
 8001d00:	d0bd      	beq.n	8001c7e <sduDataTransmitted+0x5e>
  else if ((usbp->epc[ep]->in_state->txsize > 0U) &&
 8001d02:	f8d9 300c 	ldr.w	r3, [r9, #12]
 8001d06:	695a      	ldr	r2, [r3, #20]
 8001d08:	6812      	ldr	r2, [r2, #0]
 8001d0a:	2a00      	cmp	r2, #0
 8001d0c:	d0bd      	beq.n	8001c8a <sduDataTransmitted+0x6a>
            ((size_t)usbp->epc[ep]->in_maxsize - 1U)) == 0U)) {
 8001d0e:	8a1b      	ldrh	r3, [r3, #16]
 8001d10:	3b01      	subs	r3, #1
  else if ((usbp->epc[ep]->in_state->txsize > 0U) &&
 8001d12:	4013      	ands	r3, r2
 8001d14:	d1b9      	bne.n	8001c8a <sduDataTransmitted+0x6a>
    usbStartTransmitI(usbp, ep, usbp->setup, 0);
 8001d16:	4629      	mov	r1, r5
 8001d18:	f104 0244 	add.w	r2, r4, #68	; 0x44
 8001d1c:	4620      	mov	r0, r4
 8001d1e:	f7ff f8d7 	bl	8000ed0 <usbStartTransmitI>
 8001d22:	e7b2      	b.n	8001c8a <sduDataTransmitted+0x6a>
    chSysHalt("SV#7");
 8001d24:	4808      	ldr	r0, [pc, #32]	; (8001d48 <sduDataTransmitted+0x128>)
 8001d26:	f7fe ffab 	bl	8000c80 <chSysHalt>
  osalDbgAssert(!obqIsEmptyI(obqp), "buffers queue empty");
 8001d2a:	6d32      	ldr	r2, [r6, #80]	; 0x50
 8001d2c:	2a00      	cmp	r2, #0
 8001d2e:	d0c3      	beq.n	8001cb8 <sduDataTransmitted+0x98>
 8001d30:	4806      	ldr	r0, [pc, #24]	; (8001d4c <sduDataTransmitted+0x12c>)
 8001d32:	f7fe ffa5 	bl	8000c80 <chSysHalt>
  chDbgAssert(tp->state == CH_STATE_QUEUED, "invalid state");
 8001d36:	4806      	ldr	r0, [pc, #24]	; (8001d50 <sduDataTransmitted+0x130>)
 8001d38:	f7fe ffa2 	bl	8000c80 <chSysHalt>
 8001d3c:	20000ec8 	.word	0x20000ec8
 8001d40:	080072ec 	.word	0x080072ec
 8001d44:	080072e4 	.word	0x080072e4
 8001d48:	080072fc 	.word	0x080072fc
 8001d4c:	08007f18 	.word	0x08007f18
 8001d50:	08007d3c 	.word	0x08007d3c
	...

08001d60 <chThdDequeueAllI.constprop.0>:
 * @param[in] tqp       pointer to a @p threads_queue_t structure
 * @param[in] msg       the message code
 *
 * @iclass
 */
void chThdDequeueAllI(threads_queue_t *tqp, msg_t msg) {
 8001d60:	b570      	push	{r4, r5, r6, lr}
 8001d62:	4604      	mov	r4, r0
  return (bool)(qp->next != qp);
 8001d64:	6800      	ldr	r0, [r0, #0]

  while (ch_queue_notempty(&tqp->queue)) {
 8001d66:	4284      	cmp	r4, r0
 8001d68:	d017      	beq.n	8001d9a <chThdDequeueAllI.constprop.0+0x3a>
  if (unlikely((oip->dbg.isr_cnt < (cnt_t)0) ||
 8001d6a:	4d0f      	ldr	r5, [pc, #60]	; (8001da8 <chThdDequeueAllI.constprop.0+0x48>)
  tp->u.rdymsg = msg;
 8001d6c:	f06f 0601 	mvn.w	r6, #1
  qp->next       = p->next;
 8001d70:	6803      	ldr	r3, [r0, #0]
 8001d72:	6023      	str	r3, [r4, #0]
  qp->next->prev = qp;
 8001d74:	605c      	str	r4, [r3, #4]
  chDbgAssert(tp->state == CH_STATE_QUEUED, "invalid state");
 8001d76:	f890 3028 	ldrb.w	r3, [r0, #40]	; 0x28
 8001d7a:	2b04      	cmp	r3, #4
 8001d7c:	d111      	bne.n	8001da2 <chThdDequeueAllI.constprop.0+0x42>
 8001d7e:	f8d5 308c 	ldr.w	r3, [r5, #140]	; 0x8c
  tp->u.rdymsg = msg;
 8001d82:	62c6      	str	r6, [r0, #44]	; 0x2c
 8001d84:	2b00      	cmp	r3, #0
 8001d86:	db09      	blt.n	8001d9c <chThdDequeueAllI.constprop.0+0x3c>
 8001d88:	f8d5 3090 	ldr.w	r3, [r5, #144]	; 0x90
 8001d8c:	2b00      	cmp	r3, #0
 8001d8e:	dd05      	ble.n	8001d9c <chThdDequeueAllI.constprop.0+0x3c>
 8001d90:	f7ff fe6e 	bl	8001a70 <__sch_ready_behind.isra.0>
  return (bool)(qp->next != qp);
 8001d94:	6820      	ldr	r0, [r4, #0]
 8001d96:	42a0      	cmp	r0, r4
 8001d98:	d1ea      	bne.n	8001d70 <chThdDequeueAllI.constprop.0+0x10>
    chThdDoDequeueNextI(tqp, msg);
  }
}
 8001d9a:	bd70      	pop	{r4, r5, r6, pc}
    chSysHalt("SV#10");
 8001d9c:	4803      	ldr	r0, [pc, #12]	; (8001dac <chThdDequeueAllI.constprop.0+0x4c>)
 8001d9e:	f7fe ff6f 	bl	8000c80 <chSysHalt>
  chDbgAssert(tp->state == CH_STATE_QUEUED, "invalid state");
 8001da2:	4803      	ldr	r0, [pc, #12]	; (8001db0 <chThdDequeueAllI.constprop.0+0x50>)
 8001da4:	f7fe ff6c 	bl	8000c80 <chSysHalt>
 8001da8:	20000ec8 	.word	0x20000ec8
 8001dac:	080072e4 	.word	0x080072e4
 8001db0:	08007d3c 	.word	0x08007d3c
	...

08001dc0 <chMBPostI.constprop.0.isra.0>:
  if (unlikely((oip->dbg.isr_cnt < (cnt_t)0) ||
 8001dc0:	4a1f      	ldr	r2, [pc, #124]	; (8001e40 <chMBPostI.constprop.0.isra.0+0x80>)
 8001dc2:	f8d2 308c 	ldr.w	r3, [r2, #140]	; 0x8c
 8001dc6:	2b00      	cmp	r3, #0
 * @retval MSG_TIMEOUT  if the mailbox is full and the message cannot be
 *                      posted.
 *
 * @iclass
 */
msg_t chMBPostI(mailbox_t *mbp, msg_t msg) {
 8001dc8:	b570      	push	{r4, r5, r6, lr}
 8001dca:	db32      	blt.n	8001e32 <chMBPostI.constprop.0.isra.0+0x72>
 8001dcc:	f8d2 3090 	ldr.w	r3, [r2, #144]	; 0x90
 8001dd0:	2b00      	cmp	r3, #0
 8001dd2:	dd2e      	ble.n	8001e32 <chMBPostI.constprop.0.isra.0+0x72>

  chDbgCheckClassI();
  chDbgCheck(mbp != NULL);

  /* If the mailbox is in reset state then returns immediately.*/
  if (mbp->reset) {
 8001dd4:	4b1b      	ldr	r3, [pc, #108]	; (8001e44 <chMBPostI.constprop.0.isra.0+0x84>)
 8001dd6:	7d19      	ldrb	r1, [r3, #20]
 8001dd8:	bb51      	cbnz	r1, 8001e30 <chMBPostI.constprop.0.isra.0+0x70>
 */
static inline size_t chMBGetSizeI(const mailbox_t *mbp) {

  /*lint -save -e9033 [10.8] Perfectly safe pointers
    arithmetic.*/
  return (size_t)(mbp->top - mbp->buffer);
 8001dda:	e9d3 1400 	ldrd	r1, r4, [r3]
    return MSG_RESET;
  }

  /* Is there a free message slot in queue? if so then post.*/
  if (chMBGetFreeCountI(mbp) > (size_t)0) {
 8001dde:	691d      	ldr	r5, [r3, #16]
 8001de0:	1a66      	subs	r6, r4, r1
 8001de2:	ebb5 0fa6 	cmp.w	r5, r6, asr #2
 8001de6:	d023      	beq.n	8001e30 <chMBPostI.constprop.0.isra.0+0x70>
    *mbp->wrptr++ = msg;
 8001de8:	689e      	ldr	r6, [r3, #8]
 8001dea:	1d35      	adds	r5, r6, #4
 8001dec:	609d      	str	r5, [r3, #8]
    if (mbp->wrptr >= mbp->top) {
 8001dee:	42a5      	cmp	r5, r4
    *mbp->wrptr++ = msg;
 8001df0:	6030      	str	r0, [r6, #0]
      mbp->wrptr = mbp->buffer;
 8001df2:	bf38      	it	cc
 8001df4:	6899      	ldrcc	r1, [r3, #8]
    }
    mbp->cnt++;
 8001df6:	691c      	ldr	r4, [r3, #16]
 8001df8:	6a18      	ldr	r0, [r3, #32]
 8001dfa:	6099      	str	r1, [r3, #8]
  if (ch_queue_notempty(&tqp->queue)) {
 8001dfc:	4912      	ldr	r1, [pc, #72]	; (8001e48 <chMBPostI.constprop.0.isra.0+0x88>)
 8001dfe:	3401      	adds	r4, #1
 8001e00:	4288      	cmp	r0, r1
 8001e02:	611c      	str	r4, [r3, #16]
 8001e04:	d014      	beq.n	8001e30 <chMBPostI.constprop.0.isra.0+0x70>
  qp->next       = p->next;
 8001e06:	6804      	ldr	r4, [r0, #0]
 8001e08:	621c      	str	r4, [r3, #32]
  qp->next->prev = qp;
 8001e0a:	6061      	str	r1, [r4, #4]
 8001e0c:	f890 3028 	ldrb.w	r3, [r0, #40]	; 0x28
 8001e10:	2b04      	cmp	r3, #4
 8001e12:	d111      	bne.n	8001e38 <chMBPostI.constprop.0.isra.0+0x78>
 8001e14:	f8d2 308c 	ldr.w	r3, [r2, #140]	; 0x8c
  tp->u.rdymsg = msg;
 8001e18:	2100      	movs	r1, #0
 8001e1a:	428b      	cmp	r3, r1
 8001e1c:	62c1      	str	r1, [r0, #44]	; 0x2c
 8001e1e:	db08      	blt.n	8001e32 <chMBPostI.constprop.0.isra.0+0x72>
 8001e20:	f8d2 3090 	ldr.w	r3, [r2, #144]	; 0x90
 8001e24:	428b      	cmp	r3, r1
 8001e26:	dd04      	ble.n	8001e32 <chMBPostI.constprop.0.isra.0+0x72>
    return MSG_OK;
  }

  /* No space, immediate timeout.*/
  return MSG_TIMEOUT;
}
 8001e28:	e8bd 4070 	ldmia.w	sp!, {r4, r5, r6, lr}
 8001e2c:	f7ff be20 	b.w	8001a70 <__sch_ready_behind.isra.0>
 8001e30:	bd70      	pop	{r4, r5, r6, pc}
    chSysHalt("SV#10");
 8001e32:	4806      	ldr	r0, [pc, #24]	; (8001e4c <chMBPostI.constprop.0.isra.0+0x8c>)
 8001e34:	f7fe ff24 	bl	8000c80 <chSysHalt>
  chDbgAssert(tp->state == CH_STATE_QUEUED, "invalid state");
 8001e38:	4805      	ldr	r0, [pc, #20]	; (8001e50 <chMBPostI.constprop.0.isra.0+0x90>)
 8001e3a:	f7fe ff21 	bl	8000c80 <chSysHalt>
 8001e3e:	bf00      	nop
 8001e40:	20000ec8 	.word	0x20000ec8
 8001e44:	20001b78 	.word	0x20001b78
 8001e48:	20001b98 	.word	0x20001b98
 8001e4c:	080072e4 	.word	0x080072e4
 8001e50:	08007d3c 	.word	0x08007d3c
	...

08001e60 <vt2_cb>:
static void vt2_cb(virtual_timer_t *vtp, void *p) { // Timer cb after 200ms (double click)
 8001e60:	b538      	push	{r3, r4, r5, lr}
 8001e62:	2330      	movs	r3, #48	; 0x30
 8001e64:	f383 8811 	msr	BASEPRI, r3
  if (unlikely((oip->dbg.isr_cnt <= (cnt_t)0) ||
 8001e68:	4c1d      	ldr	r4, [pc, #116]	; (8001ee0 <vt2_cb+0x80>)
 8001e6a:	f8d4 308c 	ldr.w	r3, [r4, #140]	; 0x8c
 8001e6e:	2b00      	cmp	r3, #0
 8001e70:	dd2f      	ble.n	8001ed2 <vt2_cb+0x72>
 8001e72:	f8d4 3090 	ldr.w	r3, [r4, #144]	; 0x90
 8001e76:	bb63      	cbnz	r3, 8001ed2 <vt2_cb+0x72>
  switch (btn_cnt){
 8001e78:	4d1a      	ldr	r5, [pc, #104]	; (8001ee4 <vt2_cb+0x84>)
 8001e7a:	782b      	ldrb	r3, [r5, #0]
  oip->dbg.lock_cnt = (cnt_t)1;
 8001e7c:	2201      	movs	r2, #1
 8001e7e:	4293      	cmp	r3, r2
 8001e80:	f8c4 2090 	str.w	r2, [r4, #144]	; 0x90
 8001e84:	d01a      	beq.n	8001ebc <vt2_cb+0x5c>
 8001e86:	2b02      	cmp	r3, #2
 8001e88:	d112      	bne.n	8001eb0 <vt2_cb+0x50>
    chMBPostI(&mb_dbg, (msg_t) (uint32_t)((1<<24) | 2));
 8001e8a:	4817      	ldr	r0, [pc, #92]	; (8001ee8 <vt2_cb+0x88>)
 8001e8c:	f7ff ff98 	bl	8001dc0 <chMBPostI.constprop.0.isra.0>
  if (unlikely((oip->dbg.isr_cnt <= (cnt_t)0) ||
 8001e90:	f8d4 308c 	ldr.w	r3, [r4, #140]	; 0x8c
  btn_cnt = 0;
 8001e94:	2200      	movs	r2, #0
 8001e96:	4293      	cmp	r3, r2
 8001e98:	702a      	strb	r2, [r5, #0]
 8001e9a:	dd1d      	ble.n	8001ed8 <vt2_cb+0x78>
 8001e9c:	f8d4 3090 	ldr.w	r3, [r4, #144]	; 0x90
 8001ea0:	2b00      	cmp	r3, #0
 8001ea2:	dd19      	ble.n	8001ed8 <vt2_cb+0x78>
  oip->dbg.lock_cnt = (cnt_t)0;
 8001ea4:	2300      	movs	r3, #0
 8001ea6:	f8c4 3090 	str.w	r3, [r4, #144]	; 0x90
 8001eaa:	f383 8811 	msr	BASEPRI, r3
}
 8001eae:	bd38      	pop	{r3, r4, r5, pc}
    chMBPostI(&mb_dbg, (msg_t) (uint32_t)((1<<24) | 3));
 8001eb0:	480e      	ldr	r0, [pc, #56]	; (8001eec <vt2_cb+0x8c>)
 8001eb2:	f7ff ff85 	bl	8001dc0 <chMBPostI.constprop.0.isra.0>
  if (unlikely((oip->dbg.isr_cnt <= (cnt_t)0) ||
 8001eb6:	f8d4 308c 	ldr.w	r3, [r4, #140]	; 0x8c
    break;
 8001eba:	e7eb      	b.n	8001e94 <vt2_cb+0x34>
    if (btn_second_edge){ // only for the first edge
 8001ebc:	4b0c      	ldr	r3, [pc, #48]	; (8001ef0 <vt2_cb+0x90>)
 8001ebe:	781b      	ldrb	r3, [r3, #0]
 8001ec0:	b90b      	cbnz	r3, 8001ec6 <vt2_cb+0x66>
  btn_cnt = 0;
 8001ec2:	702b      	strb	r3, [r5, #0]
 8001ec4:	e7ea      	b.n	8001e9c <vt2_cb+0x3c>
      chMBPostI(&mb_dbg, (msg_t) (uint32_t)((1<<24) | 1));
 8001ec6:	480b      	ldr	r0, [pc, #44]	; (8001ef4 <vt2_cb+0x94>)
 8001ec8:	f7ff ff7a 	bl	8001dc0 <chMBPostI.constprop.0.isra.0>
 8001ecc:	f8d4 308c 	ldr.w	r3, [r4, #140]	; 0x8c
 8001ed0:	e7e0      	b.n	8001e94 <vt2_cb+0x34>
    chSysHalt("SV#6");
 8001ed2:	4809      	ldr	r0, [pc, #36]	; (8001ef8 <vt2_cb+0x98>)
 8001ed4:	f7fe fed4 	bl	8000c80 <chSysHalt>
    chSysHalt("SV#7");
 8001ed8:	4808      	ldr	r0, [pc, #32]	; (8001efc <vt2_cb+0x9c>)
 8001eda:	f7fe fed1 	bl	8000c80 <chSysHalt>
 8001ede:	bf00      	nop
 8001ee0:	20000ec8 	.word	0x20000ec8
 8001ee4:	20000ec0 	.word	0x20000ec0
 8001ee8:	01000002 	.word	0x01000002
 8001eec:	01000003 	.word	0x01000003
 8001ef0:	20000ec1 	.word	0x20000ec1
 8001ef4:	01000001 	.word	0x01000001
 8001ef8:	080072ec 	.word	0x080072ec
 8001efc:	080072fc 	.word	0x080072fc

08001f00 <sdu_start_receive.isra.0>:
static bool sdu_start_receive(SerialUSBDriver *sdup) {
 8001f00:	b510      	push	{r4, lr}
  if ((usbGetDriverStateI(sdup->config->usbp) != USB_ACTIVE) ||
 8001f02:	f8d0 348c 	ldr.w	r3, [r0, #1164]	; 0x48c
 8001f06:	681c      	ldr	r4, [r3, #0]
 8001f08:	7822      	ldrb	r2, [r4, #0]
 8001f0a:	2a04      	cmp	r2, #4
 8001f0c:	d102      	bne.n	8001f14 <sdu_start_receive.isra.0+0x14>
 8001f0e:	7a02      	ldrb	r2, [r0, #8]
 8001f10:	2a02      	cmp	r2, #2
 8001f12:	d000      	beq.n	8001f16 <sdu_start_receive.isra.0+0x16>
}
 8001f14:	bd10      	pop	{r4, pc}
  if (usbGetReceiveStatusI(sdup->config->usbp, sdup->config->bulk_out)) {
 8001f16:	7959      	ldrb	r1, [r3, #5]
 8001f18:	8962      	ldrh	r2, [r4, #10]
 8001f1a:	2301      	movs	r3, #1
 8001f1c:	408b      	lsls	r3, r1
 8001f1e:	4213      	tst	r3, r2
 8001f20:	d1f8      	bne.n	8001f14 <sdu_start_receive.isra.0+0x14>
  if (unlikely((oip->dbg.isr_cnt < (cnt_t)0) ||
 8001f22:	4b0e      	ldr	r3, [pc, #56]	; (8001f5c <sdu_start_receive.isra.0+0x5c>)
 8001f24:	f8d3 208c 	ldr.w	r2, [r3, #140]	; 0x8c
 8001f28:	2a00      	cmp	r2, #0
 8001f2a:	db13      	blt.n	8001f54 <sdu_start_receive.isra.0+0x54>
 8001f2c:	f8d3 3090 	ldr.w	r3, [r3, #144]	; 0x90
 8001f30:	2b00      	cmp	r3, #0
 8001f32:	dd0f      	ble.n	8001f54 <sdu_start_receive.isra.0+0x54>
  if (ibqIsFullI(ibqp)) {
 8001f34:	e9d0 2307 	ldrd	r2, r3, [r0, #28]
 8001f38:	429a      	cmp	r2, r3
 8001f3a:	d007      	beq.n	8001f4c <sdu_start_receive.isra.0+0x4c>
  usbStartReceiveI(sdup->config->usbp, sdup->config->bulk_out,
 8001f3c:	4620      	mov	r0, r4
 8001f3e:	f44f 7380 	mov.w	r3, #256	; 0x100
}
 8001f42:	e8bd 4010 	ldmia.w	sp!, {r4, lr}
  usbStartReceiveI(sdup->config->usbp, sdup->config->bulk_out,
 8001f46:	3204      	adds	r2, #4
 8001f48:	f7fe bf92 	b.w	8000e70 <usbStartReceiveI>
 8001f4c:	6983      	ldr	r3, [r0, #24]
 8001f4e:	2b00      	cmp	r3, #0
 8001f50:	d0f4      	beq.n	8001f3c <sdu_start_receive.isra.0+0x3c>
}
 8001f52:	bd10      	pop	{r4, pc}
    chSysHalt("SV#10");
 8001f54:	4802      	ldr	r0, [pc, #8]	; (8001f60 <sdu_start_receive.isra.0+0x60>)
 8001f56:	f7fe fe93 	bl	8000c80 <chSysHalt>
 8001f5a:	bf00      	nop
 8001f5c:	20000ec8 	.word	0x20000ec8
 8001f60:	080072e4 	.word	0x080072e4
	...

08001f70 <ibnotify>:
  (void) sdu_start_receive(sdup);
 8001f70:	6b40      	ldr	r0, [r0, #52]	; 0x34
 8001f72:	f7ff bfc5 	b.w	8001f00 <sdu_start_receive.isra.0>
 8001f76:	bf00      	nop
	...

08001f80 <sduDataReceived>:
  SerialUSBDriver *sdup = usbp->out_params[ep - 1U];
 8001f80:	3109      	adds	r1, #9
void sduDataReceived(USBDriver *usbp, usbep_t ep) {
 8001f82:	b570      	push	{r4, r5, r6, lr}
  SerialUSBDriver *sdup = usbp->out_params[ep - 1U];
 8001f84:	f850 4021 	ldr.w	r4, [r0, r1, lsl #2]
  if (sdup == NULL) {
 8001f88:	b324      	cbz	r4, 8001fd4 <sduDataReceived+0x54>
 8001f8a:	2330      	movs	r3, #48	; 0x30
 8001f8c:	f383 8811 	msr	BASEPRI, r3
  if (unlikely((oip->dbg.isr_cnt <= (cnt_t)0) ||
 8001f90:	4d39      	ldr	r5, [pc, #228]	; (8002078 <sduDataReceived+0xf8>)
 8001f92:	f8d5 308c 	ldr.w	r3, [r5, #140]	; 0x8c
 8001f96:	2b00      	cmp	r3, #0
 8001f98:	dd5f      	ble.n	800205a <sduDataReceived+0xda>
 8001f9a:	f8d5 3090 	ldr.w	r3, [r5, #144]	; 0x90
 8001f9e:	2b00      	cmp	r3, #0
 8001fa0:	d15b      	bne.n	800205a <sduDataReceived+0xda>
  size = usbGetReceiveTransactionSizeX(sdup->config->usbp,
 8001fa2:	f8d4 248c 	ldr.w	r2, [r4, #1164]	; 0x48c
  oip->dbg.lock_cnt = (cnt_t)1;
 8001fa6:	2301      	movs	r3, #1
 8001fa8:	f8c5 3090 	str.w	r3, [r5, #144]	; 0x90
 8001fac:	6813      	ldr	r3, [r2, #0]
 8001fae:	7952      	ldrb	r2, [r2, #5]
 8001fb0:	eb03 0382 	add.w	r3, r3, r2, lsl #2
 8001fb4:	68db      	ldr	r3, [r3, #12]
 8001fb6:	699b      	ldr	r3, [r3, #24]
 8001fb8:	685e      	ldr	r6, [r3, #4]
  if (size > (size_t)0) {
 8001fba:	b966      	cbnz	r6, 8001fd6 <sduDataReceived+0x56>
  (void) sdu_start_receive(sdup);
 8001fbc:	4620      	mov	r0, r4
 8001fbe:	f7ff ff9f 	bl	8001f00 <sdu_start_receive.isra.0>
  if (unlikely((oip->dbg.isr_cnt <= (cnt_t)0) ||
 8001fc2:	f8d5 3090 	ldr.w	r3, [r5, #144]	; 0x90
 8001fc6:	2b00      	cmp	r3, #0
 8001fc8:	dd44      	ble.n	8002054 <sduDataReceived+0xd4>
  oip->dbg.lock_cnt = (cnt_t)0;
 8001fca:	2300      	movs	r3, #0
 8001fcc:	f8c5 3090 	str.w	r3, [r5, #144]	; 0x90
 8001fd0:	f383 8811 	msr	BASEPRI, r3
}
 8001fd4:	bd70      	pop	{r4, r5, r6, pc}
 8001fd6:	2104      	movs	r1, #4
 8001fd8:	1860      	adds	r0, r4, r1
 8001fda:	f7ff fdc9 	bl	8001b70 <chEvtBroadcastFlagsI>
  if (unlikely((oip->dbg.isr_cnt < (cnt_t)0) ||
 8001fde:	f8d5 308c 	ldr.w	r3, [r5, #140]	; 0x8c
 8001fe2:	2b00      	cmp	r3, #0
 8001fe4:	db45      	blt.n	8002072 <sduDataReceived+0xf2>
 8001fe6:	f8d5 3090 	ldr.w	r3, [r5, #144]	; 0x90
 8001fea:	2b00      	cmp	r3, #0
 8001fec:	dd41      	ble.n	8002072 <sduDataReceived+0xf2>
  osalDbgCheck((size > 0U) && (size <= (ibqp->bsize - sizeof (size_t))));
 8001fee:	6aa3      	ldr	r3, [r4, #40]	; 0x28
 8001ff0:	3b04      	subs	r3, #4
 8001ff2:	429e      	cmp	r6, r3
 8001ff4:	d83a      	bhi.n	800206c <sduDataReceived+0xec>
  osalDbgAssert(!ibqIsFullI(ibqp), "buffers queue full");
 8001ff6:	e9d4 3207 	ldrd	r3, r2, [r4, #28]
 8001ffa:	4293      	cmp	r3, r2
 8001ffc:	d033      	beq.n	8002066 <sduDataReceived+0xe6>
  *((size_t *)(void *)ibqp->bwrptr) = size;
 8001ffe:	601e      	str	r6, [r3, #0]
  ibqp->bwrptr += ibqp->bsize;
 8002000:	6aa1      	ldr	r1, [r4, #40]	; 0x28
  ibqp->bcounter++;
 8002002:	69a2      	ldr	r2, [r4, #24]
  return (bool)(qp->next != qp);
 8002004:	68e0      	ldr	r0, [r4, #12]
  ibqp->bwrptr += ibqp->bsize;
 8002006:	440b      	add	r3, r1
  if (ibqp->bwrptr >= ibqp->btop) {
 8002008:	6a61      	ldr	r1, [r4, #36]	; 0x24
  ibqp->bwrptr += ibqp->bsize;
 800200a:	61e3      	str	r3, [r4, #28]
  if (ibqp->bwrptr >= ibqp->btop) {
 800200c:	428b      	cmp	r3, r1
    ibqp->bwrptr = ibqp->buffers;
 800200e:	bf24      	itt	cs
 8002010:	6b23      	ldrcs	r3, [r4, #48]	; 0x30
 8002012:	61e3      	strcs	r3, [r4, #28]
    ibqPostFullBufferI(&sdup->ibqueue, size);
 8002014:	f104 030c 	add.w	r3, r4, #12
  ibqp->bcounter++;
 8002018:	3201      	adds	r2, #1
 800201a:	4283      	cmp	r3, r0
 800201c:	61a2      	str	r2, [r4, #24]
 800201e:	d012      	beq.n	8002046 <sduDataReceived+0xc6>
  qp->next       = p->next;
 8002020:	6802      	ldr	r2, [r0, #0]
 8002022:	60e2      	str	r2, [r4, #12]
  qp->next->prev = qp;
 8002024:	6053      	str	r3, [r2, #4]
 8002026:	f890 3028 	ldrb.w	r3, [r0, #40]	; 0x28
 800202a:	2b04      	cmp	r3, #4
 800202c:	d118      	bne.n	8002060 <sduDataReceived+0xe0>
 800202e:	f8d5 308c 	ldr.w	r3, [r5, #140]	; 0x8c
  tp->u.rdymsg = msg;
 8002032:	2200      	movs	r2, #0
 8002034:	4293      	cmp	r3, r2
 8002036:	62c2      	str	r2, [r0, #44]	; 0x2c
 8002038:	db1b      	blt.n	8002072 <sduDataReceived+0xf2>
 800203a:	f8d5 3090 	ldr.w	r3, [r5, #144]	; 0x90
 800203e:	4293      	cmp	r3, r2
 8002040:	dd17      	ble.n	8002072 <sduDataReceived+0xf2>
 8002042:	f7ff fd15 	bl	8001a70 <__sch_ready_behind.isra.0>
  if (unlikely((oip->dbg.isr_cnt <= (cnt_t)0) ||
 8002046:	f8d5 608c 	ldr.w	r6, [r5, #140]	; 0x8c
  (void) sdu_start_receive(sdup);
 800204a:	4620      	mov	r0, r4
 800204c:	f7ff ff58 	bl	8001f00 <sdu_start_receive.isra.0>
 8002050:	2e00      	cmp	r6, #0
 8002052:	dcb6      	bgt.n	8001fc2 <sduDataReceived+0x42>
    chSysHalt("SV#7");
 8002054:	4809      	ldr	r0, [pc, #36]	; (800207c <sduDataReceived+0xfc>)
 8002056:	f7fe fe13 	bl	8000c80 <chSysHalt>
    chSysHalt("SV#6");
 800205a:	4809      	ldr	r0, [pc, #36]	; (8002080 <sduDataReceived+0x100>)
 800205c:	f7fe fe10 	bl	8000c80 <chSysHalt>
  chDbgAssert(tp->state == CH_STATE_QUEUED, "invalid state");
 8002060:	4808      	ldr	r0, [pc, #32]	; (8002084 <sduDataReceived+0x104>)
 8002062:	f7fe fe0d 	bl	8000c80 <chSysHalt>
  osalDbgAssert(!ibqIsFullI(ibqp), "buffers queue full");
 8002066:	69a2      	ldr	r2, [r4, #24]
 8002068:	2a00      	cmp	r2, #0
 800206a:	d0c8      	beq.n	8001ffe <sduDataReceived+0x7e>
  osalDbgCheck((size > 0U) && (size <= (ibqp->bsize - sizeof (size_t))));
 800206c:	4806      	ldr	r0, [pc, #24]	; (8002088 <sduDataReceived+0x108>)
 800206e:	f7fe fe07 	bl	8000c80 <chSysHalt>
    chSysHalt("SV#10");
 8002072:	4806      	ldr	r0, [pc, #24]	; (800208c <sduDataReceived+0x10c>)
 8002074:	f7fe fe04 	bl	8000c80 <chSysHalt>
 8002078:	20000ec8 	.word	0x20000ec8
 800207c:	080072fc 	.word	0x080072fc
 8002080:	080072ec 	.word	0x080072ec
 8002084:	08007d3c 	.word	0x08007d3c
 8002088:	080080c8 	.word	0x080080c8
 800208c:	080072e4 	.word	0x080072e4

08002090 <_usb_ep0setup>:
void _usb_ep0setup(USBDriver *usbp, usbep_t ep) {
 8002090:	b5f8      	push	{r3, r4, r5, r6, r7, lr}
  if (usbp->ep0state != USB_EP0_STP_WAITING) {
 8002092:	f890 3034 	ldrb.w	r3, [r0, #52]	; 0x34
void _usb_ep0setup(USBDriver *usbp, usbep_t ep) {
 8002096:	4604      	mov	r4, r0
  if (usbp->ep0state != USB_EP0_STP_WAITING) {
 8002098:	b113      	cbz	r3, 80020a0 <_usb_ep0setup+0x10>
    usbp->ep0state = USB_EP0_STP_WAITING;
 800209a:	2300      	movs	r3, #0
 800209c:	f880 3034 	strb.w	r3, [r0, #52]	; 0x34
  memcpy(buf, usbp->epc[ep]->setup_buf, 8);
 80020a0:	eb04 0181 	add.w	r1, r4, r1, lsl #2
  if ((usbp->config->requests_hook_cb == NULL) ||
 80020a4:	6862      	ldr	r2, [r4, #4]
 80020a6:	68cb      	ldr	r3, [r1, #12]
 80020a8:	6a1b      	ldr	r3, [r3, #32]
 80020aa:	6819      	ldr	r1, [r3, #0]
 80020ac:	685b      	ldr	r3, [r3, #4]
 80020ae:	64a3      	str	r3, [r4, #72]	; 0x48
 80020b0:	6461      	str	r1, [r4, #68]	; 0x44
 80020b2:	6893      	ldr	r3, [r2, #8]
 80020b4:	b383      	cbz	r3, 8002118 <_usb_ep0setup+0x88>
      !(usbp->config->requests_hook_cb(usbp))) {
 80020b6:	4620      	mov	r0, r4
 80020b8:	4798      	blx	r3
  if ((usbp->config->requests_hook_cb == NULL) ||
 80020ba:	b368      	cbz	r0, 8002118 <_usb_ep0setup+0x88>
  if (usbp->ep0n > max) {
 80020bc:	6be3      	ldr	r3, [r4, #60]	; 0x3c
 80020be:	f894 1044 	ldrb.w	r1, [r4, #68]	; 0x44
  max = (size_t)get_hword(&usbp->setup[6]);
 80020c2:	f8b4 204a 	ldrh.w	r2, [r4, #74]	; 0x4a
  if (usbp->ep0n > max) {
 80020c6:	429a      	cmp	r2, r3
  if ((usbp->setup[0] & USB_RTYPE_DIR_MASK) == USB_RTYPE_DIR_DEV2HOST) {
 80020c8:	bf2c      	ite	cs
 80020ca:	461a      	movcs	r2, r3
    usbp->ep0n = max;
 80020cc:	63e2      	strcc	r2, [r4, #60]	; 0x3c
  if ((usbp->setup[0] & USB_RTYPE_DIR_MASK) == USB_RTYPE_DIR_DEV2HOST) {
 80020ce:	0609      	lsls	r1, r1, #24
 80020d0:	f100 80ce 	bmi.w	8002270 <_usb_ep0setup+0x1e0>
    if (usbp->ep0n != 0U) {
 80020d4:	2a00      	cmp	r2, #0
 80020d6:	f000 8107 	beq.w	80022e8 <_usb_ep0setup+0x258>
      usbp->ep0state = USB_EP0_OUT_RX;
 80020da:	2315      	movs	r3, #21
 80020dc:	f884 3034 	strb.w	r3, [r4, #52]	; 0x34
 80020e0:	2330      	movs	r3, #48	; 0x30
 80020e2:	f383 8811 	msr	BASEPRI, r3
  if (unlikely((oip->dbg.isr_cnt <= (cnt_t)0) ||
 80020e6:	4db5      	ldr	r5, [pc, #724]	; (80023bc <_usb_ep0setup+0x32c>)
 80020e8:	f8d5 308c 	ldr.w	r3, [r5, #140]	; 0x8c
 80020ec:	2b00      	cmp	r3, #0
 80020ee:	f340 80f8 	ble.w	80022e2 <_usb_ep0setup+0x252>
 80020f2:	f8d5 6090 	ldr.w	r6, [r5, #144]	; 0x90
 80020f6:	2e00      	cmp	r6, #0
 80020f8:	f040 80f3 	bne.w	80022e2 <_usb_ep0setup+0x252>
  oip->dbg.lock_cnt = (cnt_t)1;
 80020fc:	2101      	movs	r1, #1
      usbStartReceiveI(usbp, 0, (uint8_t *)usbp->ep0next, usbp->ep0n);
 80020fe:	e9d4 230e 	ldrd	r2, r3, [r4, #56]	; 0x38
 8002102:	4620      	mov	r0, r4
 8002104:	f8c5 1090 	str.w	r1, [r5, #144]	; 0x90
 8002108:	4631      	mov	r1, r6
 800210a:	f7fe feb1 	bl	8000e70 <usbStartReceiveI>
  oip->dbg.lock_cnt = (cnt_t)0;
 800210e:	f8c5 6090 	str.w	r6, [r5, #144]	; 0x90
 8002112:	f386 8811 	msr	BASEPRI, r6
}
 8002116:	bdf8      	pop	{r3, r4, r5, r6, r7, pc}
    if (((usbp->setup[0] & USB_RTYPE_TYPE_MASK) != USB_RTYPE_TYPE_STD) ||
 8002118:	f894 1044 	ldrb.w	r1, [r4, #68]	; 0x44
 800211c:	f011 0660 	ands.w	r6, r1, #96	; 0x60
 8002120:	4608      	mov	r0, r1
 8002122:	d11c      	bne.n	800215e <_usb_ep0setup+0xce>
           ((uint32_t)usbp->setup[1] << 8U))) {
 8002124:	f894 2045 	ldrb.w	r2, [r4, #69]	; 0x45
  switch ((((uint32_t)usbp->setup[0] & (USB_RTYPE_RECIPIENT_MASK |
 8002128:	f001 037f 	and.w	r3, r1, #127	; 0x7f
                                        USB_RTYPE_TYPE_MASK)) |
 800212c:	ea43 2302 	orr.w	r3, r3, r2, lsl #8
  switch ((((uint32_t)usbp->setup[0] & (USB_RTYPE_RECIPIENT_MASK |
 8002130:	f240 3202 	movw	r2, #770	; 0x302
 8002134:	4293      	cmp	r3, r2
 8002136:	f000 8124 	beq.w	8002382 <_usb_ep0setup+0x2f2>
 800213a:	d844      	bhi.n	80021c6 <_usb_ep0setup+0x136>
 800213c:	f5b3 7f80 	cmp.w	r3, #256	; 0x100
 8002140:	f000 8163 	beq.w	800240a <_usb_ep0setup+0x37a>
 8002144:	d922      	bls.n	800218c <_usb_ep0setup+0xfc>
 8002146:	f5b3 7f81 	cmp.w	r3, #258	; 0x102
 800214a:	f000 816e 	beq.w	800242a <_usb_ep0setup+0x39a>
 800214e:	f5b3 7f40 	cmp.w	r3, #768	; 0x300
 8002152:	d104      	bne.n	800215e <_usb_ep0setup+0xce>
    if (usbp->setup[2] == USB_FEATURE_DEVICE_REMOTE_WAKEUP) {
 8002154:	f894 3046 	ldrb.w	r3, [r4, #70]	; 0x46
 8002158:	2b01      	cmp	r3, #1
 800215a:	f000 80e4 	beq.w	8002326 <_usb_ep0setup+0x296>
 800215e:	6d62      	ldr	r2, [r4, #84]	; 0x54
  usbp->otg->ie[ep].DIEPCTL |= DIEPCTL_STALL;
 8002160:	f8d2 3900 	ldr.w	r3, [r2, #2304]	; 0x900
      _usb_isr_invoke_event_cb(usbp, USB_EVENT_STALLED);
 8002164:	6861      	ldr	r1, [r4, #4]
 8002166:	f443 1300 	orr.w	r3, r3, #2097152	; 0x200000
 800216a:	f8c2 3900 	str.w	r3, [r2, #2304]	; 0x900
  usbp->otg->oe[ep].DOEPCTL |= DOEPCTL_STALL;
 800216e:	f8d2 3b00 	ldr.w	r3, [r2, #2816]	; 0xb00
 8002172:	680d      	ldr	r5, [r1, #0]
 8002174:	f443 1300 	orr.w	r3, r3, #2097152	; 0x200000
 8002178:	f8c2 3b00 	str.w	r3, [r2, #2816]	; 0xb00
 800217c:	b115      	cbz	r5, 8002184 <_usb_ep0setup+0xf4>
 800217e:	2106      	movs	r1, #6
 8002180:	4620      	mov	r0, r4
 8002182:	47a8      	blx	r5
      usbp->ep0state = USB_EP0_ERROR;
 8002184:	2306      	movs	r3, #6
 8002186:	f884 3034 	strb.w	r3, [r4, #52]	; 0x34
}
 800218a:	bdf8      	pop	{r3, r4, r5, r6, r7, pc}
  switch ((((uint32_t)usbp->setup[0] & (USB_RTYPE_RECIPIENT_MASK |
 800218c:	2b01      	cmp	r3, #1
 800218e:	d04b      	beq.n	8002228 <_usb_ep0setup+0x198>
 8002190:	2b02      	cmp	r3, #2
 8002192:	d13b      	bne.n	800220c <_usb_ep0setup+0x17c>
    if ((usbp->setup[4] & 0x80U) != 0U) {
 8002194:	f994 0048 	ldrsb.w	r0, [r4, #72]	; 0x48
 8002198:	f894 2048 	ldrb.w	r2, [r4, #72]	; 0x48
 800219c:	2800      	cmp	r0, #0
  ctl = usbp->otg->ie[ep].DIEPCTL;
 800219e:	f002 000f 	and.w	r0, r2, #15
 80021a2:	f2c0 80be 	blt.w	8002322 <_usb_ep0setup+0x292>
  ctl = usbp->otg->oe[ep].DOEPCTL;
 80021a6:	3058      	adds	r0, #88	; 0x58
 80021a8:	6d62      	ldr	r2, [r4, #84]	; 0x54
 80021aa:	0140      	lsls	r0, r0, #5
 80021ac:	5810      	ldr	r0, [r2, r0]
  if (!(ctl & DOEPCTL_USBAEP))
 80021ae:	0405      	lsls	r5, r0, #16
 80021b0:	d5d6      	bpl.n	8002160 <_usb_ep0setup+0xd0>
  if (ctl & DIEPCTL_STALL)
 80021b2:	0286      	lsls	r6, r0, #10
        usbSetupTransfer(usbp, (uint8_t *)halted_status, 2, NULL);
 80021b4:	bf4c      	ite	mi
 80021b6:	4882      	ldrmi	r0, [pc, #520]	; (80023c0 <_usb_ep0setup+0x330>)
        usbSetupTransfer(usbp, (uint8_t *)active_status, 2, NULL);
 80021b8:	4882      	ldrpl	r0, [pc, #520]	; (80023c4 <_usb_ep0setup+0x334>)
 80021ba:	2202      	movs	r2, #2
 80021bc:	e9c4 020e 	strd	r0, r2, [r4, #56]	; 0x38
 80021c0:	2200      	movs	r2, #0
 80021c2:	6422      	str	r2, [r4, #64]	; 0x40
        return true;
 80021c4:	e77d      	b.n	80020c2 <_usb_ep0setup+0x32>
  switch ((((uint32_t)usbp->setup[0] & (USB_RTYPE_RECIPIENT_MASK |
 80021c6:	f5b3 6f00 	cmp.w	r3, #2048	; 0x800
 80021ca:	f000 8145 	beq.w	8002458 <_usb_ep0setup+0x3c8>
 80021ce:	d932      	bls.n	8002236 <_usb_ep0setup+0x1a6>
 80021d0:	f5b3 6f10 	cmp.w	r3, #2304	; 0x900
 80021d4:	d124      	bne.n	8002220 <_usb_ep0setup+0x190>
      if (usbp->state == USB_ACTIVE) {
 80021d6:	7823      	ldrb	r3, [r4, #0]
 80021d8:	2b04      	cmp	r3, #4
 80021da:	f000 80af 	beq.w	800233c <_usb_ep0setup+0x2ac>
 80021de:	4f77      	ldr	r7, [pc, #476]	; (80023bc <_usb_ep0setup+0x32c>)
      if (usbp->setup[2] != 0U) {
 80021e0:	f894 3046 	ldrb.w	r3, [r4, #70]	; 0x46
 80021e4:	b14b      	cbz	r3, 80021fa <_usb_ep0setup+0x16a>
        _usb_isr_invoke_event_cb(usbp, USB_EVENT_CONFIGURED);
 80021e6:	6862      	ldr	r2, [r4, #4]
        usbp->configuration = usbp->setup[2];
 80021e8:	f884 304f 	strb.w	r3, [r4, #79]	; 0x4f
        usbp->state = USB_ACTIVE;
 80021ec:	2104      	movs	r1, #4
 80021ee:	7021      	strb	r1, [r4, #0]
        _usb_isr_invoke_event_cb(usbp, USB_EVENT_CONFIGURED);
 80021f0:	6813      	ldr	r3, [r2, #0]
 80021f2:	b113      	cbz	r3, 80021fa <_usb_ep0setup+0x16a>
 80021f4:	2102      	movs	r1, #2
 80021f6:	4620      	mov	r0, r4
 80021f8:	4798      	blx	r3
    usbSetupTransfer(usbp, NULL, 0, NULL);
 80021fa:	2300      	movs	r3, #0
 80021fc:	e9c4 330e 	strd	r3, r3, [r4, #56]	; 0x38
  if ((usbp->setup[0] & USB_RTYPE_DIR_MASK) == USB_RTYPE_DIR_DEV2HOST) {
 8002200:	f894 0044 	ldrb.w	r0, [r4, #68]	; 0x44
    usbSetupTransfer(usbp, NULL, 0, NULL);
 8002204:	6423      	str	r3, [r4, #64]	; 0x40
  if ((usbp->setup[0] & USB_RTYPE_DIR_MASK) == USB_RTYPE_DIR_DEV2HOST) {
 8002206:	0603      	lsls	r3, r0, #24
 8002208:	d56f      	bpl.n	80022ea <_usb_ep0setup+0x25a>
 800220a:	e04f      	b.n	80022ac <_usb_ep0setup+0x21c>
  switch ((((uint32_t)usbp->setup[0] & (USB_RTYPE_RECIPIENT_MASK |
 800220c:	2b00      	cmp	r3, #0
 800220e:	d1a6      	bne.n	800215e <_usb_ep0setup+0xce>
    usbSetupTransfer(usbp, (uint8_t *)&usbp->status, 2, NULL);
 8002210:	2202      	movs	r2, #2
 8002212:	f104 004c 	add.w	r0, r4, #76	; 0x4c
 8002216:	6423      	str	r3, [r4, #64]	; 0x40
 8002218:	e9c4 020e 	strd	r0, r2, [r4, #56]	; 0x38
 800221c:	4613      	mov	r3, r2
 800221e:	e750      	b.n	80020c2 <_usb_ep0setup+0x32>
  switch ((((uint32_t)usbp->setup[0] & (USB_RTYPE_RECIPIENT_MASK |
 8002220:	f640 4202 	movw	r2, #3074	; 0xc02
 8002224:	4293      	cmp	r3, r2
 8002226:	d19a      	bne.n	800215e <_usb_ep0setup+0xce>
    usbSetupTransfer(usbp, (uint8_t *)zero_status, 2, NULL);
 8002228:	4867      	ldr	r0, [pc, #412]	; (80023c8 <_usb_ep0setup+0x338>)
 800222a:	2302      	movs	r3, #2
 800222c:	2200      	movs	r2, #0
 800222e:	e9c4 030e 	strd	r0, r3, [r4, #56]	; 0x38
 8002232:	6422      	str	r2, [r4, #64]	; 0x40
    return true;
 8002234:	e745      	b.n	80020c2 <_usb_ep0setup+0x32>
  switch ((((uint32_t)usbp->setup[0] & (USB_RTYPE_RECIPIENT_MASK |
 8002236:	f5b3 6fa0 	cmp.w	r3, #1280	; 0x500
 800223a:	f000 80c9 	beq.w	80023d0 <_usb_ep0setup+0x340>
 800223e:	f5a3 63c0 	sub.w	r3, r3, #1536	; 0x600
 8002242:	2b01      	cmp	r3, #1
 8002244:	d88b      	bhi.n	800215e <_usb_ep0setup+0xce>
    dp = usbp->config->get_descriptor_cb(usbp, usbp->setup[3],
 8002246:	6862      	ldr	r2, [r4, #4]
 8002248:	f8b4 3048 	ldrh.w	r3, [r4, #72]	; 0x48
 800224c:	6855      	ldr	r5, [r2, #4]
 800224e:	f894 1047 	ldrb.w	r1, [r4, #71]	; 0x47
 8002252:	f894 2046 	ldrb.w	r2, [r4, #70]	; 0x46
 8002256:	4620      	mov	r0, r4
 8002258:	47a8      	blx	r5
    if (dp == NULL) {
 800225a:	2800      	cmp	r0, #0
 800225c:	f43f af7f 	beq.w	800215e <_usb_ep0setup+0xce>
    usbSetupTransfer(usbp, (uint8_t *)dp->ud_string, dp->ud_size, NULL);
 8002260:	e9d0 3200 	ldrd	r3, r2, [r0]
 8002264:	f894 1044 	ldrb.w	r1, [r4, #68]	; 0x44
 8002268:	6426      	str	r6, [r4, #64]	; 0x40
 800226a:	e9c4 230e 	strd	r2, r3, [r4, #56]	; 0x38
    return true;
 800226e:	e728      	b.n	80020c2 <_usb_ep0setup+0x32>
    if (usbp->ep0n != 0U) {
 8002270:	b1da      	cbz	r2, 80022aa <_usb_ep0setup+0x21a>
      usbp->ep0state = USB_EP0_IN_TX;
 8002272:	2309      	movs	r3, #9
 8002274:	f884 3034 	strb.w	r3, [r4, #52]	; 0x34
 8002278:	2330      	movs	r3, #48	; 0x30
 800227a:	f383 8811 	msr	BASEPRI, r3
  if (unlikely((oip->dbg.isr_cnt <= (cnt_t)0) ||
 800227e:	4d4f      	ldr	r5, [pc, #316]	; (80023bc <_usb_ep0setup+0x32c>)
 8002280:	f8d5 308c 	ldr.w	r3, [r5, #140]	; 0x8c
 8002284:	2b00      	cmp	r3, #0
 8002286:	dd2c      	ble.n	80022e2 <_usb_ep0setup+0x252>
 8002288:	f8d5 6090 	ldr.w	r6, [r5, #144]	; 0x90
 800228c:	bb4e      	cbnz	r6, 80022e2 <_usb_ep0setup+0x252>
  oip->dbg.lock_cnt = (cnt_t)1;
 800228e:	2101      	movs	r1, #1
      usbStartTransmitI(usbp, 0, usbp->ep0next, usbp->ep0n);
 8002290:	e9d4 230e 	ldrd	r2, r3, [r4, #56]	; 0x38
 8002294:	4620      	mov	r0, r4
 8002296:	f8c5 1090 	str.w	r1, [r5, #144]	; 0x90
 800229a:	4631      	mov	r1, r6
 800229c:	f7fe fe18 	bl	8000ed0 <usbStartTransmitI>
  oip->dbg.lock_cnt = (cnt_t)0;
 80022a0:	f8c5 6090 	str.w	r6, [r5, #144]	; 0x90
 80022a4:	f386 8811 	msr	BASEPRI, r6
}
 80022a8:	bdf8      	pop	{r3, r4, r5, r6, r7, pc}
 80022aa:	4f44      	ldr	r7, [pc, #272]	; (80023bc <_usb_ep0setup+0x32c>)
      usbp->ep0state = USB_EP0_OUT_WAITING_STS;
 80022ac:	2314      	movs	r3, #20
 80022ae:	f884 3034 	strb.w	r3, [r4, #52]	; 0x34
 80022b2:	2330      	movs	r3, #48	; 0x30
 80022b4:	f383 8811 	msr	BASEPRI, r3
  if (unlikely((oip->dbg.isr_cnt <= (cnt_t)0) ||
 80022b8:	f8d7 308c 	ldr.w	r3, [r7, #140]	; 0x8c
 80022bc:	2b00      	cmp	r3, #0
 80022be:	dd10      	ble.n	80022e2 <_usb_ep0setup+0x252>
 80022c0:	f8d7 5090 	ldr.w	r5, [r7, #144]	; 0x90
 80022c4:	b96d      	cbnz	r5, 80022e2 <_usb_ep0setup+0x252>
  oip->dbg.lock_cnt = (cnt_t)1;
 80022c6:	2201      	movs	r2, #1
 80022c8:	f8c7 2090 	str.w	r2, [r7, #144]	; 0x90
      usbStartReceiveI(usbp, 0, NULL, 0);
 80022cc:	462b      	mov	r3, r5
 80022ce:	4620      	mov	r0, r4
 80022d0:	462a      	mov	r2, r5
 80022d2:	4629      	mov	r1, r5
 80022d4:	f7fe fdcc 	bl	8000e70 <usbStartReceiveI>
  oip->dbg.lock_cnt = (cnt_t)0;
 80022d8:	f8c7 5090 	str.w	r5, [r7, #144]	; 0x90
 80022dc:	f385 8811 	msr	BASEPRI, r5
}
 80022e0:	bdf8      	pop	{r3, r4, r5, r6, r7, pc}
    chSysHalt("SV#6");
 80022e2:	483a      	ldr	r0, [pc, #232]	; (80023cc <_usb_ep0setup+0x33c>)
 80022e4:	f7fe fccc 	bl	8000c80 <chSysHalt>
 80022e8:	4f34      	ldr	r7, [pc, #208]	; (80023bc <_usb_ep0setup+0x32c>)
      usbp->ep0state = USB_EP0_IN_SENDING_STS;
 80022ea:	230b      	movs	r3, #11
 80022ec:	f884 3034 	strb.w	r3, [r4, #52]	; 0x34
 80022f0:	2330      	movs	r3, #48	; 0x30
 80022f2:	f383 8811 	msr	BASEPRI, r3
  if (unlikely((oip->dbg.isr_cnt <= (cnt_t)0) ||
 80022f6:	f8d7 308c 	ldr.w	r3, [r7, #140]	; 0x8c
 80022fa:	2b00      	cmp	r3, #0
 80022fc:	ddf1      	ble.n	80022e2 <_usb_ep0setup+0x252>
 80022fe:	f8d7 5090 	ldr.w	r5, [r7, #144]	; 0x90
 8002302:	2d00      	cmp	r5, #0
 8002304:	d1ed      	bne.n	80022e2 <_usb_ep0setup+0x252>
  oip->dbg.lock_cnt = (cnt_t)1;
 8002306:	2201      	movs	r2, #1
 8002308:	f8c7 2090 	str.w	r2, [r7, #144]	; 0x90
      usbStartTransmitI(usbp, 0, NULL, 0);
 800230c:	462b      	mov	r3, r5
 800230e:	4620      	mov	r0, r4
 8002310:	462a      	mov	r2, r5
 8002312:	4629      	mov	r1, r5
 8002314:	f7fe fddc 	bl	8000ed0 <usbStartTransmitI>
  oip->dbg.lock_cnt = (cnt_t)0;
 8002318:	f8c7 5090 	str.w	r5, [r7, #144]	; 0x90
 800231c:	f385 8811 	msr	BASEPRI, r5
}
 8002320:	bdf8      	pop	{r3, r4, r5, r6, r7, pc}
  ctl = usbp->otg->ie[ep].DIEPCTL;
 8002322:	3048      	adds	r0, #72	; 0x48
 8002324:	e740      	b.n	80021a8 <_usb_ep0setup+0x118>
      usbp->status |= 2U;
 8002326:	f8b4 304c 	ldrh.w	r3, [r4, #76]	; 0x4c
 800232a:	4f24      	ldr	r7, [pc, #144]	; (80023bc <_usb_ep0setup+0x32c>)
      usbSetupTransfer(usbp, NULL, 0, NULL);
 800232c:	6426      	str	r6, [r4, #64]	; 0x40
      usbp->status |= 2U;
 800232e:	f043 0302 	orr.w	r3, r3, #2
      usbSetupTransfer(usbp, NULL, 0, NULL);
 8002332:	e9c4 660e 	strd	r6, r6, [r4, #56]	; 0x38
      usbp->status |= 2U;
 8002336:	f8a4 304c 	strh.w	r3, [r4, #76]	; 0x4c
      return true;
 800233a:	e764      	b.n	8002206 <_usb_ep0setup+0x176>
 800233c:	2330      	movs	r3, #48	; 0x30
 800233e:	f383 8811 	msr	BASEPRI, r3
  if (unlikely((oip->dbg.isr_cnt <= (cnt_t)0) ||
 8002342:	4f1e      	ldr	r7, [pc, #120]	; (80023bc <_usb_ep0setup+0x32c>)
 8002344:	f8d7 308c 	ldr.w	r3, [r7, #140]	; 0x8c
 8002348:	2b00      	cmp	r3, #0
 800234a:	ddca      	ble.n	80022e2 <_usb_ep0setup+0x252>
 800234c:	f8d7 5090 	ldr.w	r5, [r7, #144]	; 0x90
 8002350:	2d00      	cmp	r5, #0
 8002352:	d1c6      	bne.n	80022e2 <_usb_ep0setup+0x252>
  oip->dbg.lock_cnt = (cnt_t)1;
 8002354:	2301      	movs	r3, #1
        usbDisableEndpointsI(usbp);
 8002356:	4620      	mov	r0, r4
 8002358:	f8c7 3090 	str.w	r3, [r7, #144]	; 0x90
 800235c:	f7fe fd58 	bl	8000e10 <usbDisableEndpointsI>
  oip->dbg.lock_cnt = (cnt_t)0;
 8002360:	f8c7 5090 	str.w	r5, [r7, #144]	; 0x90
 8002364:	f385 8811 	msr	BASEPRI, r5
        usbp->state = USB_SELECTED;
 8002368:	2203      	movs	r2, #3
        _usb_isr_invoke_event_cb(usbp, USB_EVENT_UNCONFIGURED);
 800236a:	6863      	ldr	r3, [r4, #4]
        usbp->configuration = 0U;
 800236c:	f884 504f 	strb.w	r5, [r4, #79]	; 0x4f
        usbp->state = USB_SELECTED;
 8002370:	7022      	strb	r2, [r4, #0]
        _usb_isr_invoke_event_cb(usbp, USB_EVENT_UNCONFIGURED);
 8002372:	681b      	ldr	r3, [r3, #0]
 8002374:	2b00      	cmp	r3, #0
 8002376:	f43f af33 	beq.w	80021e0 <_usb_ep0setup+0x150>
 800237a:	4611      	mov	r1, r2
 800237c:	4620      	mov	r0, r4
 800237e:	4798      	blx	r3
 8002380:	e72e      	b.n	80021e0 <_usb_ep0setup+0x150>
    if (usbp->setup[2] != USB_FEATURE_ENDPOINT_HALT) {
 8002382:	f894 3046 	ldrb.w	r3, [r4, #70]	; 0x46
 8002386:	2b00      	cmp	r3, #0
 8002388:	f47f aee9 	bne.w	800215e <_usb_ep0setup+0xce>
    if ((usbp->setup[4] & 0x0FU) != 0U) {
 800238c:	f894 3048 	ldrb.w	r3, [r4, #72]	; 0x48
 8002390:	f013 020f 	ands.w	r2, r3, #15
 8002394:	d00b      	beq.n	80023ae <_usb_ep0setup+0x31e>
      if ((usbp->setup[4] & 0x80U) != 0U) {
 8002396:	f013 0f80 	tst.w	r3, #128	; 0x80
 800239a:	6d63      	ldr	r3, [r4, #84]	; 0x54
 800239c:	eb03 1342 	add.w	r3, r3, r2, lsl #5
 80023a0:	d161      	bne.n	8002466 <_usb_ep0setup+0x3d6>
  usbp->otg->oe[ep].DOEPCTL |= DOEPCTL_STALL;
 80023a2:	f8d3 2b00 	ldr.w	r2, [r3, #2816]	; 0xb00
 80023a6:	f442 1200 	orr.w	r2, r2, #2097152	; 0x200000
 80023aa:	f8c3 2b00 	str.w	r2, [r3, #2816]	; 0xb00
    usbSetupTransfer(usbp, NULL, 0, NULL);
 80023ae:	2300      	movs	r3, #0
 80023b0:	e9c4 330e 	strd	r3, r3, [r4, #56]	; 0x38
 80023b4:	4f01      	ldr	r7, [pc, #4]	; (80023bc <_usb_ep0setup+0x32c>)
 80023b6:	6423      	str	r3, [r4, #64]	; 0x40
    return true;
 80023b8:	e725      	b.n	8002206 <_usb_ep0setup+0x176>
 80023ba:	bf00      	nop
 80023bc:	20000ec8 	.word	0x20000ec8
 80023c0:	08008260 	.word	0x08008260
 80023c4:	080080f4 	.word	0x080080f4
 80023c8:	0800843c 	.word	0x0800843c
 80023cc:	080072ec 	.word	0x080072ec
    if ((usbp->setup[0] == USB_RTYPE_RECIPIENT_DEVICE) &&
 80023d0:	f8b4 3044 	ldrh.w	r3, [r4, #68]	; 0x44
 80023d4:	f5b3 6fa0 	cmp.w	r3, #1280	; 0x500
 80023d8:	d1e9      	bne.n	80023ae <_usb_ep0setup+0x31e>
  usbp->address = usbp->setup[2];
 80023da:	f894 1046 	ldrb.w	r1, [r4, #70]	; 0x46
 80023de:	6d62      	ldr	r2, [r4, #84]	; 0x54
 80023e0:	f884 104e 	strb.w	r1, [r4, #78]	; 0x4e
  otgp->DCFG = (otgp->DCFG & ~DCFG_DAD_MASK) | DCFG_DAD(usbp->address);
 80023e4:	f8d2 3800 	ldr.w	r3, [r2, #2048]	; 0x800
 80023e8:	f423 63fe 	bic.w	r3, r3, #2032	; 0x7f0
 80023ec:	ea43 1301 	orr.w	r3, r3, r1, lsl #4
  _usb_isr_invoke_event_cb(usbp, USB_EVENT_ADDRESS);
 80023f0:	6861      	ldr	r1, [r4, #4]
 80023f2:	f8c2 3800 	str.w	r3, [r2, #2048]	; 0x800
 80023f6:	680b      	ldr	r3, [r1, #0]
 80023f8:	b123      	cbz	r3, 8002404 <_usb_ep0setup+0x374>
 80023fa:	4620      	mov	r0, r4
 80023fc:	2101      	movs	r1, #1
 80023fe:	4798      	blx	r3
  if ((usbp->setup[0] & USB_RTYPE_DIR_MASK) == USB_RTYPE_DIR_DEV2HOST) {
 8002400:	f894 0044 	ldrb.w	r0, [r4, #68]	; 0x44
  usbp->state = USB_SELECTED;
 8002404:	2303      	movs	r3, #3
 8002406:	7023      	strb	r3, [r4, #0]
}
 8002408:	e7d1      	b.n	80023ae <_usb_ep0setup+0x31e>
    if (usbp->setup[2] == USB_FEATURE_DEVICE_REMOTE_WAKEUP) {
 800240a:	f894 3046 	ldrb.w	r3, [r4, #70]	; 0x46
 800240e:	2b01      	cmp	r3, #1
 8002410:	f47f aea5 	bne.w	800215e <_usb_ep0setup+0xce>
      usbp->status &= ~2U;
 8002414:	f8b4 304c 	ldrh.w	r3, [r4, #76]	; 0x4c
 8002418:	4f1a      	ldr	r7, [pc, #104]	; (8002484 <_usb_ep0setup+0x3f4>)
      usbSetupTransfer(usbp, NULL, 0, NULL);
 800241a:	6426      	str	r6, [r4, #64]	; 0x40
      usbp->status &= ~2U;
 800241c:	f023 0302 	bic.w	r3, r3, #2
      usbSetupTransfer(usbp, NULL, 0, NULL);
 8002420:	e9c4 660e 	strd	r6, r6, [r4, #56]	; 0x38
      usbp->status &= ~2U;
 8002424:	f8a4 304c 	strh.w	r3, [r4, #76]	; 0x4c
      return true;
 8002428:	e6ed      	b.n	8002206 <_usb_ep0setup+0x176>
    if (usbp->setup[2] != USB_FEATURE_ENDPOINT_HALT) {
 800242a:	f894 3046 	ldrb.w	r3, [r4, #70]	; 0x46
 800242e:	2b00      	cmp	r3, #0
 8002430:	f47f ae95 	bne.w	800215e <_usb_ep0setup+0xce>
    if ((usbp->setup[4] & 0x0FU) != 0U) {
 8002434:	f894 3048 	ldrb.w	r3, [r4, #72]	; 0x48
 8002438:	f013 020f 	ands.w	r2, r3, #15
 800243c:	d0b7      	beq.n	80023ae <_usb_ep0setup+0x31e>
      if ((usbp->setup[4] & 0x80U) != 0U) {
 800243e:	f013 0f80 	tst.w	r3, #128	; 0x80
 8002442:	6d63      	ldr	r3, [r4, #84]	; 0x54
 8002444:	eb03 1342 	add.w	r3, r3, r2, lsl #5
 8002448:	d114      	bne.n	8002474 <_usb_ep0setup+0x3e4>
 *
 * @notapi
 */
void usb_lld_clear_out(USBDriver *usbp, usbep_t ep) {

  usbp->otg->oe[ep].DOEPCTL &= ~DOEPCTL_STALL;
 800244a:	f8d3 2b00 	ldr.w	r2, [r3, #2816]	; 0xb00
 800244e:	f422 1200 	bic.w	r2, r2, #2097152	; 0x200000
 8002452:	f8c3 2b00 	str.w	r2, [r3, #2816]	; 0xb00
}
 8002456:	e7aa      	b.n	80023ae <_usb_ep0setup+0x31e>
    usbSetupTransfer(usbp, &usbp->configuration, 1, NULL);
 8002458:	2301      	movs	r3, #1
 800245a:	f104 024f 	add.w	r2, r4, #79	; 0x4f
 800245e:	e9c4 230e 	strd	r2, r3, [r4, #56]	; 0x38
 8002462:	6426      	str	r6, [r4, #64]	; 0x40
    return true;
 8002464:	e62d      	b.n	80020c2 <_usb_ep0setup+0x32>
  usbp->otg->ie[ep].DIEPCTL |= DIEPCTL_STALL;
 8002466:	f8d3 2900 	ldr.w	r2, [r3, #2304]	; 0x900
 800246a:	f442 1200 	orr.w	r2, r2, #2097152	; 0x200000
 800246e:	f8c3 2900 	str.w	r2, [r3, #2304]	; 0x900
}
 8002472:	e79c      	b.n	80023ae <_usb_ep0setup+0x31e>
 *
 * @notapi
 */
void usb_lld_clear_in(USBDriver *usbp, usbep_t ep) {

  usbp->otg->ie[ep].DIEPCTL &= ~DIEPCTL_STALL;
 8002474:	f8d3 2900 	ldr.w	r2, [r3, #2304]	; 0x900
 8002478:	f422 1200 	bic.w	r2, r2, #2097152	; 0x200000
 800247c:	f8c3 2900 	str.w	r2, [r3, #2304]	; 0x900
}
 8002480:	e795      	b.n	80023ae <_usb_ep0setup+0x31e>
 8002482:	bf00      	nop
 8002484:	20000ec8 	.word	0x20000ec8
	...

08002490 <usbInitEndpointI>:
                      const USBEndpointConfig *epcp) {
 8002490:	b5f8      	push	{r3, r4, r5, r6, r7, lr}
  if (unlikely((oip->dbg.isr_cnt < (cnt_t)0) ||
 8002492:	4b66      	ldr	r3, [pc, #408]	; (800262c <usbInitEndpointI+0x19c>)
 8002494:	f8d3 408c 	ldr.w	r4, [r3, #140]	; 0x8c
 8002498:	2c00      	cmp	r4, #0
 800249a:	f2c0 809c 	blt.w	80025d6 <usbInitEndpointI+0x146>
 800249e:	f8d3 3090 	ldr.w	r3, [r3, #144]	; 0x90
 80024a2:	2b00      	cmp	r3, #0
 80024a4:	f340 8097 	ble.w	80025d6 <usbInitEndpointI+0x146>
  osalDbgCheck((usbp != NULL) && (epcp != NULL));
 80024a8:	2800      	cmp	r0, #0
 80024aa:	d07d      	beq.n	80025a8 <usbInitEndpointI+0x118>
  osalDbgAssert(usbp->state == USB_ACTIVE,
 80024ac:	7803      	ldrb	r3, [r0, #0]
 80024ae:	2b04      	cmp	r3, #4
 80024b0:	d17a      	bne.n	80025a8 <usbInitEndpointI+0x118>
  osalDbgAssert(usbp->epc[ep] == NULL, "already initialized");
 80024b2:	eb00 0481 	add.w	r4, r0, r1, lsl #2
 80024b6:	b20d      	sxth	r5, r1
 80024b8:	68e3      	ldr	r3, [r4, #12]
 80024ba:	2b00      	cmp	r3, #0
 80024bc:	d174      	bne.n	80025a8 <usbInitEndpointI+0x118>
  if (epcp->in_state != NULL) {
 80024be:	6956      	ldr	r6, [r2, #20]
  usbp->epc[ep] = epcp;
 80024c0:	60e2      	str	r2, [r4, #12]
  if (epcp->in_state != NULL) {
 80024c2:	b11e      	cbz	r6, 80024cc <usbInitEndpointI+0x3c>
    memset(epcp->in_state, 0, sizeof(USBInEndpointState));
 80024c4:	6033      	str	r3, [r6, #0]
 80024c6:	6073      	str	r3, [r6, #4]
 80024c8:	60b3      	str	r3, [r6, #8]
 80024ca:	60f3      	str	r3, [r6, #12]
  if (epcp->out_state != NULL) {
 80024cc:	6993      	ldr	r3, [r2, #24]
 80024ce:	b123      	cbz	r3, 80024da <usbInitEndpointI+0x4a>
    memset(epcp->out_state, 0, sizeof(USBOutEndpointState));
 80024d0:	2200      	movs	r2, #0
 80024d2:	601a      	str	r2, [r3, #0]
 80024d4:	605a      	str	r2, [r3, #4]
 80024d6:	609a      	str	r2, [r3, #8]
 80024d8:	60da      	str	r2, [r3, #12]
  switch (usbp->epc[ep]->ep_mode & USB_EP_MODE_TYPE) {
 80024da:	68e3      	ldr	r3, [r4, #12]
  stm32_otg_t *otgp = usbp->otg;
 80024dc:	6d42      	ldr	r2, [r0, #84]	; 0x54
  switch (usbp->epc[ep]->ep_mode & USB_EP_MODE_TYPE) {
 80024de:	681c      	ldr	r4, [r3, #0]
  if (usbp->epc[ep]->out_state != NULL) {
 80024e0:	699f      	ldr	r7, [r3, #24]
  switch (usbp->epc[ep]->ep_mode & USB_EP_MODE_TYPE) {
 80024e2:	f004 0403 	and.w	r4, r4, #3
 80024e6:	1e66      	subs	r6, r4, #1
 80024e8:	2e02      	cmp	r6, #2
 80024ea:	bf98      	it	ls
 80024ec:	04a4      	lslls	r4, r4, #18
  otgp->oe[ep].DOEPTSIZ = 0;
 80024ee:	eb02 1641 	add.w	r6, r2, r1, lsl #5
 80024f2:	f04f 0c00 	mov.w	ip, #0
 80024f6:	bf98      	it	ls
 80024f8:	f104 5480 	addls.w	r4, r4, #268435456	; 0x10000000
 80024fc:	f8c6 cb10 	str.w	ip, [r6, #2832]	; 0xb10
  switch (usbp->epc[ep]->ep_mode & USB_EP_MODE_TYPE) {
 8002500:	bf8c      	ite	hi
 8002502:	4c4b      	ldrhi	r4, [pc, #300]	; (8002630 <usbInitEndpointI+0x1a0>)
 8002504:	f504 4400 	addls.w	r4, r4, #32768	; 0x8000
  otgp->oe[ep].DOEPTSIZ = 0;
 8002508:	ea4f 1c41 	mov.w	ip, r1, lsl #5
  if (usbp->epc[ep]->out_state != NULL) {
 800250c:	2f00      	cmp	r7, #0
 800250e:	d04e      	beq.n	80025ae <usbInitEndpointI+0x11e>
    otgp->oe[ep].DOEPCTL = ctl | DOEPCTL_MPSIZ(usbp->epc[ep]->out_maxsize);
 8002510:	8a5f      	ldrh	r7, [r3, #18]
 8002512:	f101 0658 	add.w	r6, r1, #88	; 0x58
 8002516:	0176      	lsls	r6, r6, #5
 8002518:	4327      	orrs	r7, r4
 800251a:	5197      	str	r7, [r2, r6]
    otgp->DAINTMSK |= DAINTMSK_OEPM(ep);
 800251c:	f101 0e10 	add.w	lr, r1, #16
 8002520:	f8d2 781c 	ldr.w	r7, [r2, #2076]	; 0x81c
 8002524:	2601      	movs	r6, #1
 8002526:	fa06 f60e 	lsl.w	r6, r6, lr
 800252a:	433e      	orrs	r6, r7
 800252c:	f8c2 681c 	str.w	r6, [r2, #2076]	; 0x81c
  otgp->ie[ep].DIEPTSIZ = 0;
 8002530:	eb02 060c 	add.w	r6, r2, ip
  if (usbp->epc[ep]->in_state != NULL) {
 8002534:	695f      	ldr	r7, [r3, #20]
  otgp->ie[ep].DIEPTSIZ = 0;
 8002536:	f04f 0c00 	mov.w	ip, #0
 800253a:	f8c6 c910 	str.w	ip, [r6, #2320]	; 0x910
  if (usbp->epc[ep]->in_state != NULL) {
 800253e:	2f00      	cmp	r7, #0
 8002540:	d04c      	beq.n	80025dc <usbInitEndpointI+0x14c>
    if (usbp->epc[ep]->in_multiplier > 1)
 8002542:	8b9d      	ldrh	r5, [r3, #28]
    fsize = usbp->epc[ep]->in_maxsize / 4;
 8002544:	f8b3 c010 	ldrh.w	ip, [r3, #16]
  next = usbp->pmnext;
 8002548:	6dc6      	ldr	r6, [r0, #92]	; 0x5c
    fsize = usbp->epc[ep]->in_maxsize / 4;
 800254a:	ea4f 039c 	mov.w	r3, ip, lsr #2
    if (usbp->epc[ep]->in_multiplier > 1)
 800254e:	2d01      	cmp	r5, #1
      fsize *= usbp->epc[ep]->in_multiplier;
 8002550:	bf88      	it	hi
 8002552:	436b      	mulhi	r3, r5
  osalDbgAssert(usbp->pmnext <= usbp->otgparams->otg_ram_size,
 8002554:	6d85      	ldr	r5, [r0, #88]	; 0x58
 8002556:	686f      	ldr	r7, [r5, #4]
    otgp->DIEPTXF[ep - 1] = DIEPTXF_INEPTXFD(fsize) |
 8002558:	041d      	lsls	r5, r3, #16
  usbp->pmnext += size;
 800255a:	4433      	add	r3, r6
  osalDbgAssert(usbp->pmnext <= usbp->otgparams->otg_ram_size,
 800255c:	42bb      	cmp	r3, r7
  usbp->pmnext += size;
 800255e:	65c3      	str	r3, [r0, #92]	; 0x5c
  osalDbgAssert(usbp->pmnext <= usbp->otgparams->otg_ram_size,
 8002560:	d861      	bhi.n	8002626 <usbInitEndpointI+0x196>
    otgp->DIEPTXF[ep - 1] = DIEPTXF_INEPTXFD(fsize) |
 8002562:	f101 033f 	add.w	r3, r1, #63	; 0x3f
 8002566:	eb02 0383 	add.w	r3, r2, r3, lsl #2
 800256a:	4335      	orrs	r5, r6
 800256c:	605d      	str	r5, [r3, #4]
  otgp->GRSTCTL = GRSTCTL_TXFNUM(fifo) | GRSTCTL_TXFFLSH;
 800256e:	018b      	lsls	r3, r1, #6
 8002570:	f043 0320 	orr.w	r3, r3, #32
 8002574:	6113      	str	r3, [r2, #16]
  while ((otgp->GRSTCTL & GRSTCTL_TXFFLSH) != 0)
 8002576:	6913      	ldr	r3, [r2, #16]
 8002578:	0698      	lsls	r0, r3, #26
 800257a:	d4fc      	bmi.n	8002576 <usbInitEndpointI+0xe6>
 800257c:	482d      	ldr	r0, [pc, #180]	; (8002634 <usbInitEndpointI+0x1a4>)
 800257e:	6845      	ldr	r5, [r0, #4]
 8002580:	6843      	ldr	r3, [r0, #4]
 *
 * @xclass
 */
bool chSysIsCounterWithinX(rtcnt_t cnt, rtcnt_t start, rtcnt_t end) {

  return (bool)(((rtcnt_t)cnt - (rtcnt_t)start) <
 8002582:	1b5b      	subs	r3, r3, r5
 */
void chSysPolledDelayX(rtcnt_t cycles) {
  rtcnt_t start = chSysGetRealtimeCounterX();
  rtcnt_t end  = start + cycles;

  while (chSysIsCounterWithinX(chSysGetRealtimeCounterX(), start, end)) {
 8002584:	2b11      	cmp	r3, #17
 8002586:	d9fb      	bls.n	8002580 <usbInitEndpointI+0xf0>
    otgp->ie[ep].DIEPCTL = ctl |
 8002588:	f101 0048 	add.w	r0, r1, #72	; 0x48
 800258c:	0140      	lsls	r0, r0, #5
                           DIEPCTL_TXFNUM(ep) |
 800258e:	ea4c 5c81 	orr.w	ip, ip, r1, lsl #22
 8002592:	ea4c 0404 	orr.w	r4, ip, r4
    otgp->ie[ep].DIEPCTL = ctl |
 8002596:	5014      	str	r4, [r2, r0]
    otgp->DAINTMSK |= DAINTMSK_IEPM(ep);
 8002598:	2301      	movs	r3, #1
 800259a:	f8d2 081c 	ldr.w	r0, [r2, #2076]	; 0x81c
 800259e:	408b      	lsls	r3, r1
 80025a0:	4303      	orrs	r3, r0
 80025a2:	f8c2 381c 	str.w	r3, [r2, #2076]	; 0x81c
}
 80025a6:	bdf8      	pop	{r3, r4, r5, r6, r7, pc}
  osalDbgCheck((usbp != NULL) && (epcp != NULL));
 80025a8:	4823      	ldr	r0, [pc, #140]	; (8002638 <usbInitEndpointI+0x1a8>)
 80025aa:	f7fe fb69 	bl	8000c80 <chSysHalt>
    otgp->oe[ep].DOEPCTL &= ~DOEPCTL_USBAEP;
 80025ae:	eb02 1645 	add.w	r6, r2, r5, lsl #5
    otgp->DAINTMSK &= ~DAINTMSK_OEPM(ep);
 80025b2:	f101 0e10 	add.w	lr, r1, #16
    otgp->oe[ep].DOEPCTL &= ~DOEPCTL_USBAEP;
 80025b6:	f8d6 7b00 	ldr.w	r7, [r6, #2816]	; 0xb00
 80025ba:	f427 4700 	bic.w	r7, r7, #32768	; 0x8000
 80025be:	f8c6 7b00 	str.w	r7, [r6, #2816]	; 0xb00
    otgp->DAINTMSK &= ~DAINTMSK_OEPM(ep);
 80025c2:	f8d2 681c 	ldr.w	r6, [r2, #2076]	; 0x81c
 80025c6:	2701      	movs	r7, #1
 80025c8:	fa07 f70e 	lsl.w	r7, r7, lr
 80025cc:	ea26 0607 	bic.w	r6, r6, r7
 80025d0:	f8c2 681c 	str.w	r6, [r2, #2076]	; 0x81c
 80025d4:	e7ac      	b.n	8002530 <usbInitEndpointI+0xa0>
    chSysHalt("SV#10");
 80025d6:	4819      	ldr	r0, [pc, #100]	; (800263c <usbInitEndpointI+0x1ac>)
 80025d8:	f7fe fb52 	bl	8000c80 <chSysHalt>
    otgp->DIEPTXF[ep - 1] = 0x02000400; /* Reset value.*/
 80025dc:	f101 033f 	add.w	r3, r1, #63	; 0x3f
 80025e0:	eb02 0383 	add.w	r3, r2, r3, lsl #2
 80025e4:	4816      	ldr	r0, [pc, #88]	; (8002640 <usbInitEndpointI+0x1b0>)
 80025e6:	6058      	str	r0, [r3, #4]
  otgp->GRSTCTL = GRSTCTL_TXFNUM(fifo) | GRSTCTL_TXFFLSH;
 80025e8:	018b      	lsls	r3, r1, #6
 80025ea:	f043 0320 	orr.w	r3, r3, #32
 80025ee:	6113      	str	r3, [r2, #16]
  while ((otgp->GRSTCTL & GRSTCTL_TXFFLSH) != 0)
 80025f0:	6913      	ldr	r3, [r2, #16]
 80025f2:	069b      	lsls	r3, r3, #26
 80025f4:	d4fc      	bmi.n	80025f0 <usbInitEndpointI+0x160>
 80025f6:	480f      	ldr	r0, [pc, #60]	; (8002634 <usbInitEndpointI+0x1a4>)
 80025f8:	6844      	ldr	r4, [r0, #4]
 80025fa:	6843      	ldr	r3, [r0, #4]
  return (bool)(((rtcnt_t)cnt - (rtcnt_t)start) <
 80025fc:	1b1b      	subs	r3, r3, r4
  while (chSysIsCounterWithinX(chSysGetRealtimeCounterX(), start, end)) {
 80025fe:	2b11      	cmp	r3, #17
 8002600:	d9fb      	bls.n	80025fa <usbInitEndpointI+0x16a>
    otgp->ie[ep].DIEPCTL &= ~DIEPCTL_USBAEP;
 8002602:	eb02 1545 	add.w	r5, r2, r5, lsl #5
    otgp->DAINTMSK &= ~DAINTMSK_IEPM(ep);
 8002606:	2301      	movs	r3, #1
    otgp->ie[ep].DIEPCTL &= ~DIEPCTL_USBAEP;
 8002608:	f8d5 0900 	ldr.w	r0, [r5, #2304]	; 0x900
 800260c:	f420 4000 	bic.w	r0, r0, #32768	; 0x8000
 8002610:	f8c5 0900 	str.w	r0, [r5, #2304]	; 0x900
    otgp->DAINTMSK &= ~DAINTMSK_IEPM(ep);
 8002614:	fa03 f101 	lsl.w	r1, r3, r1
 8002618:	f8d2 381c 	ldr.w	r3, [r2, #2076]	; 0x81c
 800261c:	ea23 0301 	bic.w	r3, r3, r1
 8002620:	f8c2 381c 	str.w	r3, [r2, #2076]	; 0x81c
}
 8002624:	bdf8      	pop	{r3, r4, r5, r6, r7, pc}
  osalDbgAssert(usbp->pmnext <= usbp->otgparams->otg_ram_size,
 8002626:	4807      	ldr	r0, [pc, #28]	; (8002644 <usbInitEndpointI+0x1b4>)
 8002628:	f7fe fb2a 	bl	8000c80 <chSysHalt>
 800262c:	20000ec8 	.word	0x20000ec8
 8002630:	10008000 	.word	0x10008000
 8002634:	e0001000 	.word	0xe0001000
 8002638:	08008078 	.word	0x08008078
 800263c:	080072e4 	.word	0x080072e4
 8002640:	02000400 	.word	0x02000400
 8002644:	08007d04 	.word	0x08007d04
	...

08002650 <usb_event>:
static void usb_event(USBDriver *usbp, usbevent_t event) {
 8002650:	b5f0      	push	{r4, r5, r6, r7, lr}
 8002652:	b083      	sub	sp, #12
  switch (event) {
 8002654:	2905      	cmp	r1, #5
 8002656:	d81e      	bhi.n	8002696 <usb_event+0x46>
 8002658:	e8df f001 	tbb	[pc, r1]
 800265c:	1f031d1f 	.word	0x1f031d1f
 8002660:	4e1f      	.short	0x4e1f
 8002662:	2330      	movs	r3, #48	; 0x30
 8002664:	f383 8811 	msr	BASEPRI, r3
  if (unlikely((oip->dbg.isr_cnt <= (cnt_t)0) ||
 8002668:	4c59      	ldr	r4, [pc, #356]	; (80027d0 <usb_event+0x180>)
 800266a:	f8d4 308c 	ldr.w	r3, [r4, #140]	; 0x8c
 800266e:	2b00      	cmp	r3, #0
 8002670:	dd65      	ble.n	800273e <usb_event+0xee>
 8002672:	f8d4 5090 	ldr.w	r5, [r4, #144]	; 0x90
 8002676:	2d00      	cmp	r5, #0
 8002678:	d161      	bne.n	800273e <usb_event+0xee>
  oip->dbg.lock_cnt = (cnt_t)1;
 800267a:	2701      	movs	r7, #1
 800267c:	f8c4 7090 	str.w	r7, [r4, #144]	; 0x90
    if (usbp->state == USB_ACTIVE) {
 8002680:	7803      	ldrb	r3, [r0, #0]
 8002682:	2b04      	cmp	r3, #4
 8002684:	d05e      	beq.n	8002744 <usb_event+0xf4>
    else if (usbp->state == USB_SELECTED) {
 8002686:	2b03      	cmp	r3, #3
 8002688:	f000 809b 	beq.w	80027c2 <usb_event+0x172>
  oip->dbg.lock_cnt = (cnt_t)0;
 800268c:	2300      	movs	r3, #0
 800268e:	f8c4 3090 	str.w	r3, [r4, #144]	; 0x90
 8002692:	f383 8811 	msr	BASEPRI, r3
}
 8002696:	b003      	add	sp, #12
 8002698:	bdf0      	pop	{r4, r5, r6, r7, pc}
 800269a:	2330      	movs	r3, #48	; 0x30
 800269c:	f383 8811 	msr	BASEPRI, r3
  if (unlikely((oip->dbg.isr_cnt <= (cnt_t)0) ||
 80026a0:	4c4b      	ldr	r4, [pc, #300]	; (80027d0 <usb_event+0x180>)
 80026a2:	f8d4 308c 	ldr.w	r3, [r4, #140]	; 0x8c
 80026a6:	2b00      	cmp	r3, #0
 80026a8:	dd49      	ble.n	800273e <usb_event+0xee>
 80026aa:	f8d4 3090 	ldr.w	r3, [r4, #144]	; 0x90
 80026ae:	2b00      	cmp	r3, #0
 80026b0:	d145      	bne.n	800273e <usb_event+0xee>
  if (bqIsSuspendedX(&sdup->ibqueue) && bqIsSuspendedX(&sdup->obqueue)) {
 80026b2:	4d48      	ldr	r5, [pc, #288]	; (80027d4 <usb_event+0x184>)
 80026b4:	7d2b      	ldrb	r3, [r5, #20]
  oip->dbg.lock_cnt = (cnt_t)1;
 80026b6:	2201      	movs	r2, #1
 80026b8:	f8c4 2090 	str.w	r2, [r4, #144]	; 0x90
 80026bc:	b11b      	cbz	r3, 80026c6 <usb_event+0x76>
 80026be:	f895 304c 	ldrb.w	r3, [r5, #76]	; 0x4c
 80026c2:	2b00      	cmp	r3, #0
 80026c4:	d1e2      	bne.n	800268c <usb_event+0x3c>
 80026c6:	2102      	movs	r1, #2
 80026c8:	4843      	ldr	r0, [pc, #268]	; (80027d8 <usb_event+0x188>)
 80026ca:	f7ff fa51 	bl	8001b70 <chEvtBroadcastFlagsI>
  bqSuspendI(&sdup->ibqueue);
 80026ce:	2601      	movs	r6, #1
  chThdDequeueAllI(tqp, msg);
 80026d0:	4842      	ldr	r0, [pc, #264]	; (80027dc <usb_event+0x18c>)
 80026d2:	752e      	strb	r6, [r5, #20]
 80026d4:	f7ff fb44 	bl	8001d60 <chThdDequeueAllI.constprop.0>
 80026d8:	4841      	ldr	r0, [pc, #260]	; (80027e0 <usb_event+0x190>)
  bqSuspendI(&sdup->obqueue);
 80026da:	f885 604c 	strb.w	r6, [r5, #76]	; 0x4c
 80026de:	f7ff fb3f 	bl	8001d60 <chThdDequeueAllI.constprop.0>
  if (unlikely((oip->dbg.isr_cnt <= (cnt_t)0) ||
 80026e2:	f8d4 308c 	ldr.w	r3, [r4, #140]	; 0x8c
 80026e6:	2b00      	cmp	r3, #0
 80026e8:	dd03      	ble.n	80026f2 <usb_event+0xa2>
 80026ea:	f8d4 3090 	ldr.w	r3, [r4, #144]	; 0x90
 80026ee:	2b00      	cmp	r3, #0
 80026f0:	dccc      	bgt.n	800268c <usb_event+0x3c>
    chSysHalt("SV#7");
 80026f2:	483c      	ldr	r0, [pc, #240]	; (80027e4 <usb_event+0x194>)
 80026f4:	f7fe fac4 	bl	8000c80 <chSysHalt>
 80026f8:	2330      	movs	r3, #48	; 0x30
 80026fa:	f383 8811 	msr	BASEPRI, r3
  if (unlikely((oip->dbg.isr_cnt <= (cnt_t)0) ||
 80026fe:	4c34      	ldr	r4, [pc, #208]	; (80027d0 <usb_event+0x180>)
 8002700:	f8d4 308c 	ldr.w	r3, [r4, #140]	; 0x8c
 8002704:	2b00      	cmp	r3, #0
 8002706:	dd1a      	ble.n	800273e <usb_event+0xee>
 8002708:	f8d4 5090 	ldr.w	r5, [r4, #144]	; 0x90
 800270c:	b9bd      	cbnz	r5, 800273e <usb_event+0xee>
  chEvtBroadcastFlagsI(esp, flags);
 800270e:	4e31      	ldr	r6, [pc, #196]	; (80027d4 <usb_event+0x184>)
  oip->dbg.lock_cnt = (cnt_t)1;
 8002710:	2101      	movs	r1, #1
 8002712:	1d30      	adds	r0, r6, #4
 8002714:	f8c4 1090 	str.w	r1, [r4, #144]	; 0x90
 8002718:	f7ff fa2a 	bl	8001b70 <chEvtBroadcastFlagsI>
  if (unlikely((oip->dbg.isr_cnt <= (cnt_t)0) ||
 800271c:	f8d4 308c 	ldr.w	r3, [r4, #140]	; 0x8c
  bqResumeX(&sdup->ibqueue);
 8002720:	7535      	strb	r5, [r6, #20]
 8002722:	2b00      	cmp	r3, #0
  bqResumeX(&sdup->obqueue);
 8002724:	f886 504c 	strb.w	r5, [r6, #76]	; 0x4c
 8002728:	dde3      	ble.n	80026f2 <usb_event+0xa2>
 800272a:	f8d4 3090 	ldr.w	r3, [r4, #144]	; 0x90
 800272e:	2b00      	cmp	r3, #0
 8002730:	dddf      	ble.n	80026f2 <usb_event+0xa2>
  oip->dbg.lock_cnt = (cnt_t)0;
 8002732:	f8c4 5090 	str.w	r5, [r4, #144]	; 0x90
 8002736:	f385 8811 	msr	BASEPRI, r5
 800273a:	b003      	add	sp, #12
 800273c:	bdf0      	pop	{r4, r5, r6, r7, pc}
    chSysHalt("SV#6");
 800273e:	482a      	ldr	r0, [pc, #168]	; (80027e8 <usb_event+0x198>)
 8002740:	f7fe fa9e 	bl	8000c80 <chSysHalt>
      usbInitEndpointI(usbp, USB_INTERRUPT_REQUEST_EP_A, &ep1config);
 8002744:	4a29      	ldr	r2, [pc, #164]	; (80027ec <usb_event+0x19c>)
 8002746:	9001      	str	r0, [sp, #4]
 8002748:	4639      	mov	r1, r7
 800274a:	f7ff fea1 	bl	8002490 <usbInitEndpointI>
      usbInitEndpointI(usbp, USB_DATA_REQUEST_EP_A, &ep2config);
 800274e:	4a28      	ldr	r2, [pc, #160]	; (80027f0 <usb_event+0x1a0>)
 8002750:	9801      	ldr	r0, [sp, #4]
 8002752:	2102      	movs	r1, #2
 8002754:	f7ff fe9c 	bl	8002490 <usbInitEndpointI>
  if (unlikely((oip->dbg.isr_cnt < (cnt_t)0) ||
 8002758:	f8d4 308c 	ldr.w	r3, [r4, #140]	; 0x8c
 800275c:	2b00      	cmp	r3, #0
 800275e:	db33      	blt.n	80027c8 <usb_event+0x178>
 8002760:	f8d4 3090 	ldr.w	r3, [r4, #144]	; 0x90
 8002764:	2b00      	cmp	r3, #0
 8002766:	dd2f      	ble.n	80027c8 <usb_event+0x178>
  ibqp->bcounter  = 0;
 8002768:	4e1a      	ldr	r6, [pc, #104]	; (80027d4 <usb_event+0x184>)
  ibqp->brdptr    = ibqp->buffers;
 800276a:	6b33      	ldr	r3, [r6, #48]	; 0x30
  ibqp->bcounter  = 0;
 800276c:	61b5      	str	r5, [r6, #24]
  ibqp->bwrptr    = ibqp->buffers;
 800276e:	e9c6 3307 	strd	r3, r3, [r6, #28]
  ibqp->top       = NULL;
 8002772:	e9c6 550d 	strd	r5, r5, [r6, #52]	; 0x34
  chThdDequeueAllI(tqp, msg);
 8002776:	f106 000c 	add.w	r0, r6, #12
 800277a:	f7ff faf1 	bl	8001d60 <chThdDequeueAllI.constprop.0>
 800277e:	f8d4 308c 	ldr.w	r3, [r4, #140]	; 0x8c
  bqResumeX(&sdup->ibqueue);
 8002782:	7535      	strb	r5, [r6, #20]
 8002784:	2b00      	cmp	r3, #0
 8002786:	db1f      	blt.n	80027c8 <usb_event+0x178>
 8002788:	f8d4 3090 	ldr.w	r3, [r4, #144]	; 0x90
 800278c:	2b00      	cmp	r3, #0
 800278e:	dd1b      	ble.n	80027c8 <usb_event+0x178>
  obqp->bcounter  = bqSizeX(obqp);
 8002790:	6e73      	ldr	r3, [r6, #100]	; 0x64
 8002792:	6533      	str	r3, [r6, #80]	; 0x50
  obqp->brdptr    = obqp->buffers;
 8002794:	6eb3      	ldr	r3, [r6, #104]	; 0x68
 8002796:	f106 0044 	add.w	r0, r6, #68	; 0x44
  obqp->bwrptr    = obqp->buffers;
 800279a:	e9c6 3315 	strd	r3, r3, [r6, #84]	; 0x54
  obqp->top       = NULL;
 800279e:	e9c6 551b 	strd	r5, r5, [r6, #108]	; 0x6c
 80027a2:	f7ff fadd 	bl	8001d60 <chThdDequeueAllI.constprop.0>
  chEvtBroadcastFlagsI(esp, flags);
 80027a6:	4639      	mov	r1, r7
 80027a8:	1d30      	adds	r0, r6, #4
  bqResumeX(&sdup->obqueue);
 80027aa:	f886 504c 	strb.w	r5, [r6, #76]	; 0x4c
 80027ae:	f7ff f9df 	bl	8001b70 <chEvtBroadcastFlagsI>
  (void) sdu_start_receive(sdup);
 80027b2:	4630      	mov	r0, r6
 80027b4:	f7ff fba4 	bl	8001f00 <sdu_start_receive.isra.0>
  if (unlikely((oip->dbg.isr_cnt <= (cnt_t)0) ||
 80027b8:	f8d4 308c 	ldr.w	r3, [r4, #140]	; 0x8c
 80027bc:	2b00      	cmp	r3, #0
 80027be:	dd98      	ble.n	80026f2 <usb_event+0xa2>
 80027c0:	e793      	b.n	80026ea <usb_event+0x9a>
      usbDisableEndpointsI(usbp);
 80027c2:	f7fe fb25 	bl	8000e10 <usbDisableEndpointsI>
 80027c6:	e761      	b.n	800268c <usb_event+0x3c>
    chSysHalt("SV#10");
 80027c8:	480a      	ldr	r0, [pc, #40]	; (80027f4 <usb_event+0x1a4>)
 80027ca:	f7fe fa59 	bl	8000c80 <chSysHalt>
 80027ce:	bf00      	nop
 80027d0:	20000ec8 	.word	0x20000ec8
 80027d4:	20000950 	.word	0x20000950
 80027d8:	20000954 	.word	0x20000954
 80027dc:	2000095c 	.word	0x2000095c
 80027e0:	20000994 	.word	0x20000994
 80027e4:	080072fc 	.word	0x080072fc
 80027e8:	080072ec 	.word	0x080072ec
 80027ec:	0800820c 	.word	0x0800820c
 80027f0:	08008230 	.word	0x08008230
 80027f4:	080072e4 	.word	0x080072e4
	...

08002800 <get_history>:
    shp->sh_end -= shp->sh_size;
  *(shp->sh_buffer + shp->sh_end) = 0;
  shp->sh_cur = 0;
}

static int get_history(ShellHistory *shp, char *line, int dir) {
 8002800:	e92d 43f8 	stmdb	sp!, {r3, r4, r5, r6, r7, r8, r9, lr}
  if (shp == NULL)
    return -1;

  /* Count the number of lines saved in the buffer */
  int idx = shp->sh_beg;
  while (idx != shp->sh_end) {
 8002804:	e9d0 4502 	ldrd	r4, r5, [r0, #8]
 8002808:	42ac      	cmp	r4, r5
static int get_history(ShellHistory *shp, char *line, int dir) {
 800280a:	4606      	mov	r6, r0
 800280c:	460f      	mov	r7, r1
  while (idx != shp->sh_end) {
 800280e:	d05d      	beq.n	80028cc <get_history+0xcc>
    idx += *(shp->sh_buffer + idx) + 1;
    if (idx >= shp->sh_size)
 8002810:	e9d0 e100 	ldrd	lr, r1, [r0]
 8002814:	4623      	mov	r3, r4
  int count=0;
 8002816:	2000      	movs	r0, #0
    idx += *(shp->sh_buffer + idx) + 1;
 8002818:	f81e c003 	ldrb.w	ip, [lr, r3]
 800281c:	f10c 0c01 	add.w	ip, ip, #1
 8002820:	4463      	add	r3, ip
    if (idx >= shp->sh_size)
 8002822:	4299      	cmp	r1, r3
      idx -= shp->sh_size;
 8002824:	bfd8      	it	le
 8002826:	1a5b      	suble	r3, r3, r1
  while (idx != shp->sh_end) {
 8002828:	42ab      	cmp	r3, r5
    count++;
 800282a:	f100 0001 	add.w	r0, r0, #1
  while (idx != shp->sh_end) {
 800282e:	d1f3      	bne.n	8002818 <get_history+0x18>
  }

  if (dir == SHELL_HIST_DIR_FW) {
 8002830:	2a01      	cmp	r2, #1
 8002832:	d043      	beq.n	80028bc <get_history+0xbc>
    if (shp->sh_cur > 0)
 8002834:	f8d6 e010 	ldr.w	lr, [r6, #16]
      shp->sh_cur -= 2;
    else
      return 0;
  }

  if (count >= shp->sh_cur) {
 8002838:	4570      	cmp	r0, lr
 800283a:	db5d      	blt.n	80028f8 <get_history+0xf8>
    idx = shp->sh_beg;
    int i = 0;
    while (idx != shp->sh_end && shp->sh_cur != (count - i - 1)) {
 800283c:	42ac      	cmp	r4, r5
 800283e:	d05e      	beq.n	80028fe <get_history+0xfe>
 8002840:	1e43      	subs	r3, r0, #1
 8002842:	4573      	cmp	r3, lr
 8002844:	d05e      	beq.n	8002904 <get_history+0x104>
      idx += *(shp->sh_buffer + idx) + 1;
      if (idx >= shp->sh_size)
 8002846:	e9d6 9800 	ldrd	r9, r8, [r6]
    int i = 0;
 800284a:	f04f 0c00 	mov.w	ip, #0
 800284e:	e001      	b.n	8002854 <get_history+0x54>
    while (idx != shp->sh_end && shp->sh_cur != (count - i - 1)) {
 8002850:	4571      	cmp	r1, lr
 8002852:	d01a      	beq.n	800288a <get_history+0x8a>
      idx += *(shp->sh_buffer + idx) + 1;
 8002854:	f819 3004 	ldrb.w	r3, [r9, r4]
 8002858:	3301      	adds	r3, #1
 800285a:	441c      	add	r4, r3
      if (idx >= shp->sh_size)
 800285c:	45a0      	cmp	r8, r4
        idx -= shp->sh_size;
      i++;
 800285e:	f10c 0c01 	add.w	ip, ip, #1
        idx -= shp->sh_size;
 8002862:	bfd8      	it	le
 8002864:	eba4 0408 	suble.w	r4, r4, r8
    while (idx != shp->sh_end && shp->sh_cur != (count - i - 1)) {
 8002868:	eba0 010c 	sub.w	r1, r0, ip
 800286c:	42ac      	cmp	r4, r5
 800286e:	f101 31ff 	add.w	r1, r1, #4294967295	; 0xffffffff
 8002872:	d1ed      	bne.n	8002850 <get_history+0x50>
    }

    int length = *(shp->sh_buffer + idx);
 8002874:	f819 4005 	ldrb.w	r4, [r9, r5]

    if (length > 0) {
 8002878:	b964      	cbnz	r4, 8002894 <get_history+0x94>
        memcpy(line, shp->sh_buffer + idx + 1, part_len);
        memcpy(line + part_len, shp->sh_buffer, length - part_len);
      }
      return length;
    }
    else if (dir == SHELL_HIST_DIR_FW) {
 800287a:	2a01      	cmp	r2, #1
 800287c:	d13c      	bne.n	80028f8 <get_history+0xf8>
      shp->sh_cur++;
 800287e:	f10e 0301 	add.w	r3, lr, #1
 8002882:	6133      	str	r3, [r6, #16]
      return 0;
    }
  }
  return -1;
}
 8002884:	4620      	mov	r0, r4
 8002886:	e8bd 83f8 	ldmia.w	sp!, {r3, r4, r5, r6, r7, r8, r9, pc}
 800288a:	4625      	mov	r5, r4
    int length = *(shp->sh_buffer + idx);
 800288c:	f819 4005 	ldrb.w	r4, [r9, r5]
    if (length > 0) {
 8002890:	2c00      	cmp	r4, #0
 8002892:	d0f2      	beq.n	800287a <get_history+0x7a>
      shp->sh_cur++;
 8002894:	f10e 0301 	add.w	r3, lr, #1
 8002898:	6133      	str	r3, [r6, #16]
      memset(line, 0, SHELL_MAX_LINE_LENGTH);
 800289a:	2240      	movs	r2, #64	; 0x40
 800289c:	2100      	movs	r1, #0
 800289e:	4638      	mov	r0, r7
 80028a0:	f004 f9d6 	bl	8006c50 <memset>
      if ((idx + length) < shp->sh_size) {
 80028a4:	6873      	ldr	r3, [r6, #4]
 80028a6:	1962      	adds	r2, r4, r5
 80028a8:	429a      	cmp	r2, r3
 80028aa:	da13      	bge.n	80028d4 <get_history+0xd4>
        memcpy(line, (shp->sh_buffer + idx + 1), length);
 80028ac:	6831      	ldr	r1, [r6, #0]
 80028ae:	3501      	adds	r5, #1
 80028b0:	4622      	mov	r2, r4
 80028b2:	4429      	add	r1, r5
 80028b4:	4638      	mov	r0, r7
 80028b6:	f7fd fea1 	bl	80005fc <memcpy>
 80028ba:	e7e3      	b.n	8002884 <get_history+0x84>
    if (shp->sh_cur > 0)
 80028bc:	6933      	ldr	r3, [r6, #16]
 80028be:	2b00      	cmp	r3, #0
 80028c0:	dd06      	ble.n	80028d0 <get_history+0xd0>
      shp->sh_cur -= 2;
 80028c2:	f1a3 0e02 	sub.w	lr, r3, #2
 80028c6:	f8c6 e010 	str.w	lr, [r6, #16]
 80028ca:	e7b5      	b.n	8002838 <get_history+0x38>
  int count=0;
 80028cc:	2000      	movs	r0, #0
 80028ce:	e7af      	b.n	8002830 <get_history+0x30>
      return 0;
 80028d0:	2400      	movs	r4, #0
 80028d2:	e7d7      	b.n	8002884 <get_history+0x84>
        int part_len = shp->sh_size - idx - 1;
 80028d4:	1b5b      	subs	r3, r3, r5
        memcpy(line, shp->sh_buffer + idx + 1, part_len);
 80028d6:	6831      	ldr	r1, [r6, #0]
        int part_len = shp->sh_size - idx - 1;
 80028d8:	f103 38ff 	add.w	r8, r3, #4294967295	; 0xffffffff
        memcpy(line, shp->sh_buffer + idx + 1, part_len);
 80028dc:	3501      	adds	r5, #1
 80028de:	4429      	add	r1, r5
 80028e0:	4642      	mov	r2, r8
 80028e2:	4638      	mov	r0, r7
 80028e4:	f7fd fe8a 	bl	80005fc <memcpy>
        memcpy(line + part_len, shp->sh_buffer, length - part_len);
 80028e8:	6831      	ldr	r1, [r6, #0]
 80028ea:	eba4 0208 	sub.w	r2, r4, r8
 80028ee:	eb07 0008 	add.w	r0, r7, r8
 80028f2:	f7fd fe83 	bl	80005fc <memcpy>
 80028f6:	e7c5      	b.n	8002884 <get_history+0x84>
  return -1;
 80028f8:	f04f 34ff 	mov.w	r4, #4294967295	; 0xffffffff
 80028fc:	e7c2      	b.n	8002884 <get_history+0x84>
      idx += *(shp->sh_buffer + idx) + 1;
 80028fe:	f8d6 9000 	ldr.w	r9, [r6]
 8002902:	e7b7      	b.n	8002874 <get_history+0x74>
 8002904:	f8d6 9000 	ldr.w	r9, [r6]
 8002908:	4625      	mov	r5, r4
 800290a:	e7b3      	b.n	8002874 <get_history+0x74>
 800290c:	0000      	movs	r0, r0
	...

08002910 <chSchGoSleepS>:
void chSchGoSleepS(tstate_t newstate) {
 8002910:	b538      	push	{r3, r4, r5, lr}
  if (unlikely((oip->dbg.isr_cnt != (cnt_t)0) ||
 8002912:	4b26      	ldr	r3, [pc, #152]	; (80029ac <chSchGoSleepS+0x9c>)
 8002914:	f8d3 208c 	ldr.w	r2, [r3, #140]	; 0x8c
 8002918:	2a00      	cmp	r2, #0
 800291a:	d13d      	bne.n	8002998 <chSchGoSleepS+0x88>
 800291c:	f8d3 2090 	ldr.w	r2, [r3, #144]	; 0x90
 8002920:	2a00      	cmp	r2, #0
 8002922:	dd39      	ble.n	8002998 <chSchGoSleepS+0x88>
  thread_t *tp = threadref(currcore->rlist.pqueue.prev);
 8002924:	685a      	ldr	r2, [r3, #4]
  chDbgAssert(tp->hdr.pqueue.prio == IDLEPRIO, "not idle thread");
 8002926:	6891      	ldr	r1, [r2, #8]
 8002928:	2901      	cmp	r1, #1
 800292a:	d13b      	bne.n	80029a4 <chSchGoSleepS+0x94>
  thread_t *otp = __instance_get_currthread(oip);
 800292c:	68dc      	ldr	r4, [r3, #12]
  chDbgAssert(otp != chSysGetIdleThreadX(), "sleeping in idle thread");
 800292e:	4294      	cmp	r4, r2
 8002930:	d035      	beq.n	800299e <chSchGoSleepS+0x8e>
  chDbgAssert(otp->owner == oip, "invalid core");
 8002932:	69a2      	ldr	r2, [r4, #24]
 8002934:	429a      	cmp	r2, r3
 8002936:	d132      	bne.n	800299e <chSchGoSleepS+0x8e>
  ch_priority_queue_t *p = pqp->next;
 8002938:	6815      	ldr	r5, [r2, #0]
  otp->state = newstate;
 800293a:	f884 0028 	strb.w	r0, [r4, #40]	; 0x28
  pqp->next       = p->next;
 800293e:	682b      	ldr	r3, [r5, #0]
 8002940:	6013      	str	r3, [r2, #0]
  pqp->next->prev = pqp;
 8002942:	605a      	str	r2, [r3, #4]
  ntp->state = CH_STATE_CURRENT;
 8002944:	f885 1028 	strb.w	r1, [r5, #40]	; 0x28
  if ((oip->trace_buffer.suspended & CH_DBG_TRACE_MASK_SWITCH) == 0U) {
 8002948:	f8b2 3094 	ldrh.w	r3, [r2, #148]	; 0x94
  __instance_set_currthread(oip, ntp);
 800294c:	60d5      	str	r5, [r2, #12]
 800294e:	079b      	lsls	r3, r3, #30
 8002950:	d50e      	bpl.n	8002970 <chSchGoSleepS+0x60>
  __ASM volatile ("MRS %0, psp"  : "=r" (result) );
 8002952:	f3ef 8309 	mrs	r3, PSP
  chSysSwitch(ntp, otp);
 8002956:	6a22      	ldr	r2, [r4, #32]
 8002958:	3b24      	subs	r3, #36	; 0x24
 800295a:	429a      	cmp	r2, r3
 800295c:	d805      	bhi.n	800296a <chSchGoSleepS+0x5a>
 800295e:	4621      	mov	r1, r4
 8002960:	4628      	mov	r0, r5
}
 8002962:	e8bd 4038 	ldmia.w	sp!, {r3, r4, r5, lr}
  chSysSwitch(ntp, otp);
 8002966:	f7fd bcbb 	b.w	80002e0 <__port_switch>
 800296a:	4811      	ldr	r0, [pc, #68]	; (80029b0 <chSchGoSleepS+0xa0>)
 800296c:	f7fe f988 	bl	8000c80 <chSysHalt>
    oip->trace_buffer.ptr->type        = CH_TRACE_TYPE_SWITCH;
 8002970:	f894 3028 	ldrb.w	r3, [r4, #40]	; 0x28
 8002974:	f8d2 2098 	ldr.w	r2, [r2, #152]	; 0x98
 8002978:	6ae1      	ldr	r1, [r4, #44]	; 0x2c
    oip->trace_buffer.ptr->u.sw.wtobjp = otp->u.wtobjp;
 800297a:	60d1      	str	r1, [r2, #12]
    oip->trace_buffer.ptr->type        = CH_TRACE_TYPE_SWITCH;
 800297c:	00db      	lsls	r3, r3, #3
 800297e:	f043 0302 	orr.w	r3, r3, #2
 8002982:	7013      	strb	r3, [r2, #0]
    oip->trace_buffer.ptr->u.sw.ntp    = ntp;
 8002984:	6095      	str	r5, [r2, #8]
    trace_next(oip);
 8002986:	f7fe f95b 	bl	8000c40 <trace_next.constprop.0>
 800298a:	f3ef 8309 	mrs	r3, PSP
 800298e:	6a22      	ldr	r2, [r4, #32]
 8002990:	3b24      	subs	r3, #36	; 0x24
 8002992:	429a      	cmp	r2, r3
 8002994:	d9e3      	bls.n	800295e <chSchGoSleepS+0x4e>
 8002996:	e7e8      	b.n	800296a <chSchGoSleepS+0x5a>
    chSysHalt("SV#11");
 8002998:	4806      	ldr	r0, [pc, #24]	; (80029b4 <chSchGoSleepS+0xa4>)
 800299a:	f7fe f971 	bl	8000c80 <chSysHalt>
  chDbgAssert(otp != chSysGetIdleThreadX(), "sleeping in idle thread");
 800299e:	4806      	ldr	r0, [pc, #24]	; (80029b8 <chSchGoSleepS+0xa8>)
 80029a0:	f7fe f96e 	bl	8000c80 <chSysHalt>
 80029a4:	4805      	ldr	r0, [pc, #20]	; (80029bc <chSchGoSleepS+0xac>)
 80029a6:	f7fe f96b 	bl	8000c80 <chSysHalt>
 80029aa:	bf00      	nop
 80029ac:	20000ec8 	.word	0x20000ec8
 80029b0:	08007304 	.word	0x08007304
 80029b4:	080072dc 	.word	0x080072dc
 80029b8:	08007efc 	.word	0x08007efc
 80029bc:	08007d14 	.word	0x08007d14

080029c0 <chSchGoSleepTimeoutS>:
msg_t chSchGoSleepTimeoutS(tstate_t newstate, sysinterval_t timeout) {
 80029c0:	b570      	push	{r4, r5, r6, lr}
  if (unlikely((oip->dbg.isr_cnt != (cnt_t)0) ||
 80029c2:	4c1b      	ldr	r4, [pc, #108]	; (8002a30 <chSchGoSleepTimeoutS+0x70>)
 80029c4:	f8d4 208c 	ldr.w	r2, [r4, #140]	; 0x8c
 80029c8:	b086      	sub	sp, #24
 80029ca:	bb52      	cbnz	r2, 8002a22 <chSchGoSleepTimeoutS+0x62>
 80029cc:	f8d4 6090 	ldr.w	r6, [r4, #144]	; 0x90
 80029d0:	2e00      	cmp	r6, #0
 80029d2:	dd26      	ble.n	8002a22 <chSchGoSleepTimeoutS+0x62>
  if (TIME_INFINITE != timeout) {
 80029d4:	1c4d      	adds	r5, r1, #1
  thread_t *tp = __instance_get_currthread(currcore);
 80029d6:	68e6      	ldr	r6, [r4, #12]
  if (TIME_INFINITE != timeout) {
 80029d8:	d01b      	beq.n	8002a12 <chSchGoSleepTimeoutS+0x52>
  chDbgCheck((vtp != NULL) && (vtfunc != NULL) && (delay != TIME_IMMEDIATE));
 80029da:	b1f9      	cbz	r1, 8002a1c <chSchGoSleepTimeoutS+0x5c>
  vtp->func    = vtfunc;
 80029dc:	4b15      	ldr	r3, [pc, #84]	; (8002a34 <chSchGoSleepTimeoutS+0x74>)
 80029de:	9303      	str	r3, [sp, #12]
 80029e0:	4605      	mov	r5, r0
  vt_enqueue(vtlp, vtp, delay);
 80029e2:	4668      	mov	r0, sp
  vtp->par     = par;
 80029e4:	e9cd 6204 	strd	r6, r2, [sp, #16]
  vt_enqueue(vtlp, vtp, delay);
 80029e8:	f7fe ff5a 	bl	80018a0 <vt_enqueue.constprop.0>
    chSchGoSleepS(newstate);
 80029ec:	4628      	mov	r0, r5
 80029ee:	f7ff ff8f 	bl	8002910 <chSchGoSleepS>
  if (unlikely((oip->dbg.isr_cnt < (cnt_t)0) ||
 80029f2:	f8d4 308c 	ldr.w	r3, [r4, #140]	; 0x8c
 80029f6:	2b00      	cmp	r3, #0
 80029f8:	db16      	blt.n	8002a28 <chSchGoSleepTimeoutS+0x68>
 80029fa:	f8d4 3090 	ldr.w	r3, [r4, #144]	; 0x90
 80029fe:	2b00      	cmp	r3, #0
 8002a00:	dd12      	ble.n	8002a28 <chSchGoSleepTimeoutS+0x68>
    if (chVTIsArmedI(&vt)) {
 8002a02:	9b00      	ldr	r3, [sp, #0]
 8002a04:	b113      	cbz	r3, 8002a0c <chSchGoSleepTimeoutS+0x4c>
      chVTDoResetI(&vt);
 8002a06:	4668      	mov	r0, sp
 8002a08:	f7fe fbd2 	bl	80011b0 <chVTDoResetI>
}
 8002a0c:	6af0      	ldr	r0, [r6, #44]	; 0x2c
 8002a0e:	b006      	add	sp, #24
 8002a10:	bd70      	pop	{r4, r5, r6, pc}
    chSchGoSleepS(newstate);
 8002a12:	f7ff ff7d 	bl	8002910 <chSchGoSleepS>
}
 8002a16:	6af0      	ldr	r0, [r6, #44]	; 0x2c
 8002a18:	b006      	add	sp, #24
 8002a1a:	bd70      	pop	{r4, r5, r6, pc}
  chDbgCheck((vtp != NULL) && (vtfunc != NULL) && (delay != TIME_IMMEDIATE));
 8002a1c:	4806      	ldr	r0, [pc, #24]	; (8002a38 <chSchGoSleepTimeoutS+0x78>)
 8002a1e:	f7fe f92f 	bl	8000c80 <chSysHalt>
    chSysHalt("SV#11");
 8002a22:	4806      	ldr	r0, [pc, #24]	; (8002a3c <chSchGoSleepTimeoutS+0x7c>)
 8002a24:	f7fe f92c 	bl	8000c80 <chSysHalt>
    chSysHalt("SV#10");
 8002a28:	4805      	ldr	r0, [pc, #20]	; (8002a40 <chSchGoSleepTimeoutS+0x80>)
 8002a2a:	f7fe f929 	bl	8000c80 <chSysHalt>
 8002a2e:	bf00      	nop
 8002a30:	20000ec8 	.word	0x20000ec8
 8002a34:	08001ad1 	.word	0x08001ad1
 8002a38:	08008050 	.word	0x08008050
 8002a3c:	080072dc 	.word	0x080072dc
 8002a40:	080072e4 	.word	0x080072e4
	...

08002a50 <ibqGetFullBufferTimeoutS>:
                                 sysinterval_t timeout) {
 8002a50:	b5f8      	push	{r3, r4, r5, r6, r7, lr}
  if (unlikely((oip->dbg.isr_cnt != (cnt_t)0) ||
 8002a52:	4e1b      	ldr	r6, [pc, #108]	; (8002ac0 <ibqGetFullBufferTimeoutS+0x70>)
 8002a54:	f8d6 708c 	ldr.w	r7, [r6, #140]	; 0x8c
 8002a58:	bb57      	cbnz	r7, 8002ab0 <ibqGetFullBufferTimeoutS+0x60>
 8002a5a:	f8d6 3090 	ldr.w	r3, [r6, #144]	; 0x90
 8002a5e:	2b00      	cmp	r3, #0
 8002a60:	4604      	mov	r4, r0
 8002a62:	460d      	mov	r5, r1
 8002a64:	dc0b      	bgt.n	8002a7e <ibqGetFullBufferTimeoutS+0x2e>
 8002a66:	e023      	b.n	8002ab0 <ibqGetFullBufferTimeoutS+0x60>
  p->prev       = qp->prev;
 8002a68:	6862      	ldr	r2, [r4, #4]
  return chSchGoSleepTimeoutS(CH_STATE_QUEUED, timeout);
 8002a6a:	4629      	mov	r1, r5
 8002a6c:	e9c3 4200 	strd	r4, r2, [r3]
 8002a70:	2004      	movs	r0, #4
  p->prev->next = p;
 8002a72:	6013      	str	r3, [r2, #0]
  qp->prev      = p;
 8002a74:	6063      	str	r3, [r4, #4]
 8002a76:	f7ff ffa3 	bl	80029c0 <chSchGoSleepTimeoutS>
    if (msg < MSG_OK) {
 8002a7a:	2800      	cmp	r0, #0
 8002a7c:	db1b      	blt.n	8002ab6 <ibqGetFullBufferTimeoutS+0x66>
  while (ibqIsEmptyI(ibqp)) {
 8002a7e:	68e3      	ldr	r3, [r4, #12]
 8002a80:	b943      	cbnz	r3, 8002a94 <ibqGetFullBufferTimeoutS+0x44>
    if (ibqp->suspended) {
 8002a82:	7a23      	ldrb	r3, [r4, #8]
 8002a84:	b983      	cbnz	r3, 8002aa8 <ibqGetFullBufferTimeoutS+0x58>
  return __sch_get_currthread();
 8002a86:	68f3      	ldr	r3, [r6, #12]
  if (unlikely(TIME_IMMEDIATE == timeout)) {
 8002a88:	2d00      	cmp	r5, #0
 8002a8a:	d1ed      	bne.n	8002a68 <ibqGetFullBufferTimeoutS+0x18>
    return MSG_TIMEOUT;
 8002a8c:	f04f 37ff 	mov.w	r7, #4294967295	; 0xffffffff
}
 8002a90:	4638      	mov	r0, r7
 8002a92:	bdf8      	pop	{r3, r4, r5, r6, r7, pc}
  osalDbgAssert(!ibqIsEmptyI(ibqp), "still empty");
 8002a94:	68e3      	ldr	r3, [r4, #12]
 8002a96:	b183      	cbz	r3, 8002aba <ibqGetFullBufferTimeoutS+0x6a>
  ibqp->ptr = ibqp->brdptr + sizeof (size_t);
 8002a98:	6963      	ldr	r3, [r4, #20]
  ibqp->top = ibqp->ptr + *((size_t *)(void *)ibqp->brdptr);
 8002a9a:	681a      	ldr	r2, [r3, #0]
  ibqp->ptr = ibqp->brdptr + sizeof (size_t);
 8002a9c:	3304      	adds	r3, #4
  ibqp->top = ibqp->ptr + *((size_t *)(void *)ibqp->brdptr);
 8002a9e:	441a      	add	r2, r3
 8002aa0:	e9c4 320a 	strd	r3, r2, [r4, #40]	; 0x28
}
 8002aa4:	4638      	mov	r0, r7
 8002aa6:	bdf8      	pop	{r3, r4, r5, r6, r7, pc}
      return MSG_RESET;
 8002aa8:	f06f 0701 	mvn.w	r7, #1
}
 8002aac:	4638      	mov	r0, r7
 8002aae:	bdf8      	pop	{r3, r4, r5, r6, r7, pc}
    chSysHalt("SV#11");
 8002ab0:	4804      	ldr	r0, [pc, #16]	; (8002ac4 <ibqGetFullBufferTimeoutS+0x74>)
 8002ab2:	f7fe f8e5 	bl	8000c80 <chSysHalt>
 8002ab6:	4607      	mov	r7, r0
 8002ab8:	e7ea      	b.n	8002a90 <ibqGetFullBufferTimeoutS+0x40>
  osalDbgAssert(!ibqIsEmptyI(ibqp), "still empty");
 8002aba:	4803      	ldr	r0, [pc, #12]	; (8002ac8 <ibqGetFullBufferTimeoutS+0x78>)
 8002abc:	f7fe f8e0 	bl	8000c80 <chSysHalt>
 8002ac0:	20000ec8 	.word	0x20000ec8
 8002ac4:	080072dc 	.word	0x080072dc
 8002ac8:	0800805c 	.word	0x0800805c
 8002acc:	00000000 	.word	0x00000000

08002ad0 <ibqReadTimeout>:
                      size_t n, sysinterval_t timeout) {
 8002ad0:	e92d 4ff0 	stmdb	sp!, {r4, r5, r6, r7, r8, r9, sl, fp, lr}
 8002ad4:	b083      	sub	sp, #12
 8002ad6:	9301      	str	r3, [sp, #4]
  osalDbgCheck(n > 0U);
 8002ad8:	2a00      	cmp	r2, #0
 8002ada:	d07b      	beq.n	8002bd4 <ibqReadTimeout+0x104>
  __ASM volatile ("MSR basepri, %0" : : "r" (basePri) : "memory");
 8002adc:	4692      	mov	sl, r2
 8002ade:	2230      	movs	r2, #48	; 0x30
 8002ae0:	f382 8811 	msr	BASEPRI, r2
  if (unlikely((oip->dbg.isr_cnt != (cnt_t)0) ||
 8002ae4:	4c4a      	ldr	r4, [pc, #296]	; (8002c10 <ibqReadTimeout+0x140>)
 8002ae6:	e9d4 6323 	ldrd	r6, r3, [r4, #140]	; 0x8c
 8002aea:	431e      	orrs	r6, r3
 8002aec:	d14a      	bne.n	8002b84 <ibqReadTimeout+0xb4>
 8002aee:	4605      	mov	r5, r0
 8002af0:	460f      	mov	r7, r1
 8002af2:	9200      	str	r2, [sp, #0]
  oip->dbg.lock_cnt = (cnt_t)1;
 8002af4:	f04f 0801 	mov.w	r8, #1
 8002af8:	46b1      	mov	r9, r6
    if (ibqp->ptr == NULL) {
 8002afa:	6aa9      	ldr	r1, [r5, #40]	; 0x28
 8002afc:	f8c4 8090 	str.w	r8, [r4, #144]	; 0x90
 8002b00:	2900      	cmp	r1, #0
 8002b02:	d058      	beq.n	8002bb6 <ibqReadTimeout+0xe6>
    size = (size_t)ibqp->top - (size_t)ibqp->ptr;
 8002b04:	6aea      	ldr	r2, [r5, #44]	; 0x2c
    if (size > (n - r)) {
 8002b06:	ebaa 0306 	sub.w	r3, sl, r6
    size = (size_t)ibqp->top - (size_t)ibqp->ptr;
 8002b0a:	eba2 0b01 	sub.w	fp, r2, r1
 8002b0e:	459b      	cmp	fp, r3
 8002b10:	bf28      	it	cs
 8002b12:	469b      	movcs	fp, r3
    if (size > (size_t)BUFFERS_CHUNKS_SIZE) {
 8002b14:	f1bb 0f40 	cmp.w	fp, #64	; 0x40
 8002b18:	d937      	bls.n	8002b8a <ibqReadTimeout+0xba>
      memcpy(bp, ibqp->ptr, BUFFERS_CHUNKS_SIZE);
 8002b1a:	463b      	mov	r3, r7
 8002b1c:	f101 0b40 	add.w	fp, r1, #64	; 0x40
 8002b20:	f8d1 c000 	ldr.w	ip, [r1]
 8002b24:	6848      	ldr	r0, [r1, #4]
 8002b26:	688a      	ldr	r2, [r1, #8]
 8002b28:	f8d1 e00c 	ldr.w	lr, [r1, #12]
 8002b2c:	f8c3 e00c 	str.w	lr, [r3, #12]
 8002b30:	3110      	adds	r1, #16
 8002b32:	4559      	cmp	r1, fp
 8002b34:	f8c3 c000 	str.w	ip, [r3]
 8002b38:	6058      	str	r0, [r3, #4]
 8002b3a:	609a      	str	r2, [r3, #8]
 8002b3c:	f103 0310 	add.w	r3, r3, #16
 8002b40:	d1ee      	bne.n	8002b20 <ibqReadTimeout+0x50>
      ibqp->ptr += (size_t)BUFFERS_CHUNKS_SIZE;
 8002b42:	6aab      	ldr	r3, [r5, #40]	; 0x28
    if (ibqp->ptr >= ibqp->top) {
 8002b44:	6aea      	ldr	r2, [r5, #44]	; 0x2c
      ibqp->ptr += (size_t)BUFFERS_CHUNKS_SIZE;
 8002b46:	3340      	adds	r3, #64	; 0x40
    if (ibqp->ptr >= ibqp->top) {
 8002b48:	429a      	cmp	r2, r3
      bp        += (size_t)BUFFERS_CHUNKS_SIZE;
 8002b4a:	f107 0740 	add.w	r7, r7, #64	; 0x40
      r         += (size_t)BUFFERS_CHUNKS_SIZE;
 8002b4e:	f106 0640 	add.w	r6, r6, #64	; 0x40
      ibqp->ptr += (size_t)BUFFERS_CHUNKS_SIZE;
 8002b52:	62ab      	str	r3, [r5, #40]	; 0x28
    if (ibqp->ptr >= ibqp->top) {
 8002b54:	d925      	bls.n	8002ba2 <ibqReadTimeout+0xd2>
  if (unlikely((oip->dbg.isr_cnt != (cnt_t)0) ||
 8002b56:	f8d4 308c 	ldr.w	r3, [r4, #140]	; 0x8c
 8002b5a:	bb4b      	cbnz	r3, 8002bb0 <ibqReadTimeout+0xe0>
 8002b5c:	f8d4 2090 	ldr.w	r2, [r4, #144]	; 0x90
 8002b60:	2a00      	cmp	r2, #0
 8002b62:	dd25      	ble.n	8002bb0 <ibqReadTimeout+0xe0>
  oip->dbg.lock_cnt = (cnt_t)0;
 8002b64:	f8c4 3090 	str.w	r3, [r4, #144]	; 0x90
 8002b68:	6823      	ldr	r3, [r4, #0]
 8002b6a:	42a3      	cmp	r3, r4
 8002b6c:	d12a      	bne.n	8002bc4 <ibqReadTimeout+0xf4>
 8002b6e:	f389 8811 	msr	BASEPRI, r9
    if (r >= n) {
 8002b72:	4556      	cmp	r6, sl
 8002b74:	d241      	bcs.n	8002bfa <ibqReadTimeout+0x12a>
 8002b76:	9b00      	ldr	r3, [sp, #0]
 8002b78:	f383 8811 	msr	BASEPRI, r3
  if (unlikely((oip->dbg.isr_cnt != (cnt_t)0) ||
 8002b7c:	e9d4 3223 	ldrd	r3, r2, [r4, #140]	; 0x8c
 8002b80:	4313      	orrs	r3, r2
 8002b82:	d0ba      	beq.n	8002afa <ibqReadTimeout+0x2a>
    chSysHalt("SV#4");
 8002b84:	4823      	ldr	r0, [pc, #140]	; (8002c14 <ibqReadTimeout+0x144>)
 8002b86:	f7fe f87b 	bl	8000c80 <chSysHalt>
      memcpy(bp, ibqp->ptr, size);
 8002b8a:	4638      	mov	r0, r7
 8002b8c:	465a      	mov	r2, fp
 8002b8e:	f7fd fd35 	bl	80005fc <memcpy>
      ibqp->ptr += size;
 8002b92:	6aab      	ldr	r3, [r5, #40]	; 0x28
    if (ibqp->ptr >= ibqp->top) {
 8002b94:	6aea      	ldr	r2, [r5, #44]	; 0x2c
      ibqp->ptr += size;
 8002b96:	445b      	add	r3, fp
    if (ibqp->ptr >= ibqp->top) {
 8002b98:	429a      	cmp	r2, r3
      r         += size;
 8002b9a:	445e      	add	r6, fp
      bp        += size;
 8002b9c:	445f      	add	r7, fp
      ibqp->ptr += (size_t)BUFFERS_CHUNKS_SIZE;
 8002b9e:	62ab      	str	r3, [r5, #40]	; 0x28
    if (ibqp->ptr >= ibqp->top) {
 8002ba0:	d8d9      	bhi.n	8002b56 <ibqReadTimeout+0x86>
      ibqReleaseEmptyBufferS(ibqp);
 8002ba2:	4628      	mov	r0, r5
 8002ba4:	f7fe f8bc 	bl	8000d20 <ibqReleaseEmptyBufferS>
  if (unlikely((oip->dbg.isr_cnt != (cnt_t)0) ||
 8002ba8:	f8d4 308c 	ldr.w	r3, [r4, #140]	; 0x8c
 8002bac:	2b00      	cmp	r3, #0
 8002bae:	d0d5      	beq.n	8002b5c <ibqReadTimeout+0x8c>
    chSysHalt("SV#5");
 8002bb0:	4819      	ldr	r0, [pc, #100]	; (8002c18 <ibqReadTimeout+0x148>)
 8002bb2:	f7fe f865 	bl	8000c80 <chSysHalt>
      msg = ibqGetFullBufferTimeoutS(ibqp, timeout);
 8002bb6:	9901      	ldr	r1, [sp, #4]
 8002bb8:	4628      	mov	r0, r5
 8002bba:	f7ff ff49 	bl	8002a50 <ibqGetFullBufferTimeoutS>
      if (msg != MSG_OK) {
 8002bbe:	b960      	cbnz	r0, 8002bda <ibqReadTimeout+0x10a>
    size = (size_t)ibqp->top - (size_t)ibqp->ptr;
 8002bc0:	6aa9      	ldr	r1, [r5, #40]	; 0x28
 8002bc2:	e79f      	b.n	8002b04 <ibqReadTimeout+0x34>
 8002bc4:	68e2      	ldr	r2, [r4, #12]
 8002bc6:	689b      	ldr	r3, [r3, #8]
 8002bc8:	6892      	ldr	r2, [r2, #8]
 8002bca:	429a      	cmp	r2, r3
 8002bcc:	d2cf      	bcs.n	8002b6e <ibqReadTimeout+0x9e>
 8002bce:	4813      	ldr	r0, [pc, #76]	; (8002c1c <ibqReadTimeout+0x14c>)
 8002bd0:	f7fe f856 	bl	8000c80 <chSysHalt>
  osalDbgCheck(n > 0U);
 8002bd4:	4812      	ldr	r0, [pc, #72]	; (8002c20 <ibqReadTimeout+0x150>)
 8002bd6:	f7fe f853 	bl	8000c80 <chSysHalt>
  if (unlikely((oip->dbg.isr_cnt != (cnt_t)0) ||
 8002bda:	f8d4 308c 	ldr.w	r3, [r4, #140]	; 0x8c
 8002bde:	2b00      	cmp	r3, #0
 8002be0:	d1e6      	bne.n	8002bb0 <ibqReadTimeout+0xe0>
 8002be2:	f8d4 2090 	ldr.w	r2, [r4, #144]	; 0x90
 8002be6:	2a00      	cmp	r2, #0
 8002be8:	dde2      	ble.n	8002bb0 <ibqReadTimeout+0xe0>
 8002bea:	6822      	ldr	r2, [r4, #0]
  oip->dbg.lock_cnt = (cnt_t)0;
 8002bec:	f8c4 3090 	str.w	r3, [r4, #144]	; 0x90
 8002bf0:	42a2      	cmp	r2, r4
 8002bf2:	d106      	bne.n	8002c02 <ibqReadTimeout+0x132>
 8002bf4:	2300      	movs	r3, #0
 8002bf6:	f383 8811 	msr	BASEPRI, r3
}
 8002bfa:	4630      	mov	r0, r6
 8002bfc:	b003      	add	sp, #12
 8002bfe:	e8bd 8ff0 	ldmia.w	sp!, {r4, r5, r6, r7, r8, r9, sl, fp, pc}
 8002c02:	68e1      	ldr	r1, [r4, #12]
 8002c04:	6893      	ldr	r3, [r2, #8]
 8002c06:	688a      	ldr	r2, [r1, #8]
 8002c08:	429a      	cmp	r2, r3
 8002c0a:	d2f3      	bcs.n	8002bf4 <ibqReadTimeout+0x124>
 8002c0c:	e7df      	b.n	8002bce <ibqReadTimeout+0xfe>
 8002c0e:	bf00      	nop
 8002c10:	20000ec8 	.word	0x20000ec8
 8002c14:	080072f4 	.word	0x080072f4
 8002c18:	08007314 	.word	0x08007314
 8002c1c:	080080b0 	.word	0x080080b0
 8002c20:	08007fc8 	.word	0x08007fc8
	...

08002c30 <_read>:
  return ibqReadTimeout(&((SerialUSBDriver *)ip)->ibqueue, bp,
 8002c30:	f04f 33ff 	mov.w	r3, #4294967295	; 0xffffffff
 8002c34:	300c      	adds	r0, #12
 8002c36:	f7ff bf4b 	b.w	8002ad0 <ibqReadTimeout>
 8002c3a:	bf00      	nop
 8002c3c:	0000      	movs	r0, r0
	...

08002c40 <_readt>:
  return ibqReadTimeout(&((SerialUSBDriver *)ip)->ibqueue, bp, n, timeout);
 8002c40:	300c      	adds	r0, #12
 8002c42:	f7ff bf45 	b.w	8002ad0 <ibqReadTimeout>
 8002c46:	bf00      	nop
	...

08002c50 <_get>:
static msg_t _get(void *ip) {
 8002c50:	b5f8      	push	{r3, r4, r5, r6, r7, lr}
 8002c52:	2330      	movs	r3, #48	; 0x30
 8002c54:	f383 8811 	msr	BASEPRI, r3
  if (unlikely((oip->dbg.isr_cnt != (cnt_t)0) ||
 8002c58:	4c1f      	ldr	r4, [pc, #124]	; (8002cd8 <_get+0x88>)
 8002c5a:	e9d4 3223 	ldrd	r3, r2, [r4, #140]	; 0x8c
 8002c5e:	4313      	orrs	r3, r2
 8002c60:	d122      	bne.n	8002ca8 <_get+0x58>
  if (ibqp->ptr == NULL) {
 8002c62:	6b43      	ldr	r3, [r0, #52]	; 0x34
  oip->dbg.lock_cnt = (cnt_t)1;
 8002c64:	2201      	movs	r2, #1
 8002c66:	4605      	mov	r5, r0
 8002c68:	f100 070c 	add.w	r7, r0, #12
 8002c6c:	f8c4 2090 	str.w	r2, [r4, #144]	; 0x90
 8002c70:	b303      	cbz	r3, 8002cb4 <_get+0x64>
  msg = (msg_t)*ibqp->ptr;
 8002c72:	f813 6b01 	ldrb.w	r6, [r3], #1
  if (ibqp->ptr >= ibqp->top) {
 8002c76:	6baa      	ldr	r2, [r5, #56]	; 0x38
  ibqp->ptr++;
 8002c78:	636b      	str	r3, [r5, #52]	; 0x34
  if (ibqp->ptr >= ibqp->top) {
 8002c7a:	4293      	cmp	r3, r2
 8002c7c:	d210      	bcs.n	8002ca0 <_get+0x50>
  if (unlikely((oip->dbg.isr_cnt != (cnt_t)0) ||
 8002c7e:	f8d4 308c 	ldr.w	r3, [r4, #140]	; 0x8c
 8002c82:	b9a3      	cbnz	r3, 8002cae <_get+0x5e>
 8002c84:	f8d4 2090 	ldr.w	r2, [r4, #144]	; 0x90
 8002c88:	2a00      	cmp	r2, #0
 8002c8a:	dd10      	ble.n	8002cae <_get+0x5e>
 8002c8c:	6822      	ldr	r2, [r4, #0]
  oip->dbg.lock_cnt = (cnt_t)0;
 8002c8e:	f8c4 3090 	str.w	r3, [r4, #144]	; 0x90
 8002c92:	42a2      	cmp	r2, r4
 8002c94:	d118      	bne.n	8002cc8 <_get+0x78>
 8002c96:	2300      	movs	r3, #0
 8002c98:	f383 8811 	msr	BASEPRI, r3
}
 8002c9c:	4630      	mov	r0, r6
 8002c9e:	bdf8      	pop	{r3, r4, r5, r6, r7, pc}
    ibqReleaseEmptyBufferS(ibqp);
 8002ca0:	4638      	mov	r0, r7
 8002ca2:	f7fe f83d 	bl	8000d20 <ibqReleaseEmptyBufferS>
 8002ca6:	e7ea      	b.n	8002c7e <_get+0x2e>
    chSysHalt("SV#4");
 8002ca8:	480c      	ldr	r0, [pc, #48]	; (8002cdc <_get+0x8c>)
 8002caa:	f7fd ffe9 	bl	8000c80 <chSysHalt>
    chSysHalt("SV#5");
 8002cae:	480c      	ldr	r0, [pc, #48]	; (8002ce0 <_get+0x90>)
 8002cb0:	f7fd ffe6 	bl	8000c80 <chSysHalt>
    msg = ibqGetFullBufferTimeoutS(ibqp, timeout);
 8002cb4:	f04f 31ff 	mov.w	r1, #4294967295	; 0xffffffff
 8002cb8:	4638      	mov	r0, r7
 8002cba:	f7ff fec9 	bl	8002a50 <ibqGetFullBufferTimeoutS>
    if (msg != MSG_OK) {
 8002cbe:	4606      	mov	r6, r0
 8002cc0:	2800      	cmp	r0, #0
 8002cc2:	d1dc      	bne.n	8002c7e <_get+0x2e>
  msg = (msg_t)*ibqp->ptr;
 8002cc4:	6b6b      	ldr	r3, [r5, #52]	; 0x34
 8002cc6:	e7d4      	b.n	8002c72 <_get+0x22>
 8002cc8:	68e1      	ldr	r1, [r4, #12]
 8002cca:	6893      	ldr	r3, [r2, #8]
 8002ccc:	688a      	ldr	r2, [r1, #8]
 8002cce:	429a      	cmp	r2, r3
 8002cd0:	d2e1      	bcs.n	8002c96 <_get+0x46>
 8002cd2:	4804      	ldr	r0, [pc, #16]	; (8002ce4 <_get+0x94>)
 8002cd4:	f7fd ffd4 	bl	8000c80 <chSysHalt>
 8002cd8:	20000ec8 	.word	0x20000ec8
 8002cdc:	080072f4 	.word	0x080072f4
 8002ce0:	08007314 	.word	0x08007314
 8002ce4:	080080b0 	.word	0x080080b0
	...

08002cf0 <_gett>:
static msg_t _gett(void *ip, sysinterval_t timeout) {
 8002cf0:	b5f8      	push	{r3, r4, r5, r6, r7, lr}
 8002cf2:	2330      	movs	r3, #48	; 0x30
 8002cf4:	f383 8811 	msr	BASEPRI, r3
  if (unlikely((oip->dbg.isr_cnt != (cnt_t)0) ||
 8002cf8:	4c1e      	ldr	r4, [pc, #120]	; (8002d74 <_gett+0x84>)
 8002cfa:	e9d4 3223 	ldrd	r3, r2, [r4, #140]	; 0x8c
 8002cfe:	4313      	orrs	r3, r2
 8002d00:	d122      	bne.n	8002d48 <_gett+0x58>
  oip->dbg.lock_cnt = (cnt_t)1;
 8002d02:	2301      	movs	r3, #1
 8002d04:	f8c4 3090 	str.w	r3, [r4, #144]	; 0x90
  if (ibqp->ptr == NULL) {
 8002d08:	6b43      	ldr	r3, [r0, #52]	; 0x34
 8002d0a:	4605      	mov	r5, r0
 8002d0c:	f100 070c 	add.w	r7, r0, #12
 8002d10:	b303      	cbz	r3, 8002d54 <_gett+0x64>
  msg = (msg_t)*ibqp->ptr;
 8002d12:	f813 6b01 	ldrb.w	r6, [r3], #1
  if (ibqp->ptr >= ibqp->top) {
 8002d16:	6baa      	ldr	r2, [r5, #56]	; 0x38
  ibqp->ptr++;
 8002d18:	636b      	str	r3, [r5, #52]	; 0x34
  if (ibqp->ptr >= ibqp->top) {
 8002d1a:	4293      	cmp	r3, r2
 8002d1c:	d210      	bcs.n	8002d40 <_gett+0x50>
  if (unlikely((oip->dbg.isr_cnt != (cnt_t)0) ||
 8002d1e:	f8d4 308c 	ldr.w	r3, [r4, #140]	; 0x8c
 8002d22:	b9a3      	cbnz	r3, 8002d4e <_gett+0x5e>
 8002d24:	f8d4 2090 	ldr.w	r2, [r4, #144]	; 0x90
 8002d28:	2a00      	cmp	r2, #0
 8002d2a:	dd10      	ble.n	8002d4e <_gett+0x5e>
 8002d2c:	6822      	ldr	r2, [r4, #0]
  oip->dbg.lock_cnt = (cnt_t)0;
 8002d2e:	f8c4 3090 	str.w	r3, [r4, #144]	; 0x90
 8002d32:	42a2      	cmp	r2, r4
 8002d34:	d116      	bne.n	8002d64 <_gett+0x74>
 8002d36:	2300      	movs	r3, #0
 8002d38:	f383 8811 	msr	BASEPRI, r3
}
 8002d3c:	4630      	mov	r0, r6
 8002d3e:	bdf8      	pop	{r3, r4, r5, r6, r7, pc}
    ibqReleaseEmptyBufferS(ibqp);
 8002d40:	4638      	mov	r0, r7
 8002d42:	f7fd ffed 	bl	8000d20 <ibqReleaseEmptyBufferS>
 8002d46:	e7ea      	b.n	8002d1e <_gett+0x2e>
    chSysHalt("SV#4");
 8002d48:	480b      	ldr	r0, [pc, #44]	; (8002d78 <_gett+0x88>)
 8002d4a:	f7fd ff99 	bl	8000c80 <chSysHalt>
    chSysHalt("SV#5");
 8002d4e:	480b      	ldr	r0, [pc, #44]	; (8002d7c <_gett+0x8c>)
 8002d50:	f7fd ff96 	bl	8000c80 <chSysHalt>
    msg = ibqGetFullBufferTimeoutS(ibqp, timeout);
 8002d54:	4638      	mov	r0, r7
 8002d56:	f7ff fe7b 	bl	8002a50 <ibqGetFullBufferTimeoutS>
    if (msg != MSG_OK) {
 8002d5a:	4606      	mov	r6, r0
 8002d5c:	2800      	cmp	r0, #0
 8002d5e:	d1de      	bne.n	8002d1e <_gett+0x2e>
  msg = (msg_t)*ibqp->ptr;
 8002d60:	6b6b      	ldr	r3, [r5, #52]	; 0x34
 8002d62:	e7d6      	b.n	8002d12 <_gett+0x22>
 8002d64:	68e1      	ldr	r1, [r4, #12]
 8002d66:	6893      	ldr	r3, [r2, #8]
 8002d68:	688a      	ldr	r2, [r1, #8]
 8002d6a:	429a      	cmp	r2, r3
 8002d6c:	d2e3      	bcs.n	8002d36 <_gett+0x46>
 8002d6e:	4804      	ldr	r0, [pc, #16]	; (8002d80 <_gett+0x90>)
 8002d70:	f7fd ff86 	bl	8000c80 <chSysHalt>
 8002d74:	20000ec8 	.word	0x20000ec8
 8002d78:	080072f4 	.word	0x080072f4
 8002d7c:	08007314 	.word	0x08007314
 8002d80:	080080b0 	.word	0x080080b0
	...

08002d90 <obqGetEmptyBufferTimeoutS>:
                                sysinterval_t timeout) {
 8002d90:	b5f8      	push	{r3, r4, r5, r6, r7, lr}
  if (unlikely((oip->dbg.isr_cnt != (cnt_t)0) ||
 8002d92:	4e1b      	ldr	r6, [pc, #108]	; (8002e00 <obqGetEmptyBufferTimeoutS+0x70>)
 8002d94:	f8d6 708c 	ldr.w	r7, [r6, #140]	; 0x8c
 8002d98:	bb57      	cbnz	r7, 8002df0 <obqGetEmptyBufferTimeoutS+0x60>
 8002d9a:	f8d6 3090 	ldr.w	r3, [r6, #144]	; 0x90
 8002d9e:	2b00      	cmp	r3, #0
 8002da0:	4604      	mov	r4, r0
 8002da2:	460d      	mov	r5, r1
 8002da4:	dc0b      	bgt.n	8002dbe <obqGetEmptyBufferTimeoutS+0x2e>
 8002da6:	e023      	b.n	8002df0 <obqGetEmptyBufferTimeoutS+0x60>
  p->prev       = qp->prev;
 8002da8:	6862      	ldr	r2, [r4, #4]
  return chSchGoSleepTimeoutS(CH_STATE_QUEUED, timeout);
 8002daa:	4629      	mov	r1, r5
 8002dac:	e9c3 4200 	strd	r4, r2, [r3]
 8002db0:	2004      	movs	r0, #4
  p->prev->next = p;
 8002db2:	6013      	str	r3, [r2, #0]
  qp->prev      = p;
 8002db4:	6063      	str	r3, [r4, #4]
 8002db6:	f7ff fe03 	bl	80029c0 <chSchGoSleepTimeoutS>
    if (msg < MSG_OK) {
 8002dba:	2800      	cmp	r0, #0
 8002dbc:	db1b      	blt.n	8002df6 <obqGetEmptyBufferTimeoutS+0x66>
  while (obqIsFullI(obqp)) {
 8002dbe:	68e3      	ldr	r3, [r4, #12]
 8002dc0:	b943      	cbnz	r3, 8002dd4 <obqGetEmptyBufferTimeoutS+0x44>
    if (obqp->suspended) {
 8002dc2:	7a23      	ldrb	r3, [r4, #8]
 8002dc4:	b983      	cbnz	r3, 8002de8 <obqGetEmptyBufferTimeoutS+0x58>
 8002dc6:	68f3      	ldr	r3, [r6, #12]
  if (unlikely(TIME_IMMEDIATE == timeout)) {
 8002dc8:	2d00      	cmp	r5, #0
 8002dca:	d1ed      	bne.n	8002da8 <obqGetEmptyBufferTimeoutS+0x18>
    return MSG_TIMEOUT;
 8002dcc:	f04f 37ff 	mov.w	r7, #4294967295	; 0xffffffff
}
 8002dd0:	4638      	mov	r0, r7
 8002dd2:	bdf8      	pop	{r3, r4, r5, r6, r7, pc}
  osalDbgAssert(!obqIsFullI(obqp), "still full");
 8002dd4:	68e3      	ldr	r3, [r4, #12]
 8002dd6:	b183      	cbz	r3, 8002dfa <obqGetEmptyBufferTimeoutS+0x6a>
  obqp->ptr = obqp->bwrptr + sizeof (size_t);
 8002dd8:	6923      	ldr	r3, [r4, #16]
  obqp->top = obqp->bwrptr + obqp->bsize;
 8002dda:	69e1      	ldr	r1, [r4, #28]
  obqp->ptr = obqp->bwrptr + sizeof (size_t);
 8002ddc:	1d1a      	adds	r2, r3, #4
  obqp->top = obqp->bwrptr + obqp->bsize;
 8002dde:	440b      	add	r3, r1
 8002de0:	e9c4 230a 	strd	r2, r3, [r4, #40]	; 0x28
}
 8002de4:	4638      	mov	r0, r7
 8002de6:	bdf8      	pop	{r3, r4, r5, r6, r7, pc}
      return MSG_RESET;
 8002de8:	f06f 0701 	mvn.w	r7, #1
}
 8002dec:	4638      	mov	r0, r7
 8002dee:	bdf8      	pop	{r3, r4, r5, r6, r7, pc}
    chSysHalt("SV#11");
 8002df0:	4804      	ldr	r0, [pc, #16]	; (8002e04 <obqGetEmptyBufferTimeoutS+0x74>)
 8002df2:	f7fd ff45 	bl	8000c80 <chSysHalt>
 8002df6:	4607      	mov	r7, r0
 8002df8:	e7ea      	b.n	8002dd0 <obqGetEmptyBufferTimeoutS+0x40>
  osalDbgAssert(!obqIsFullI(obqp), "still full");
 8002dfa:	4803      	ldr	r0, [pc, #12]	; (8002e08 <obqGetEmptyBufferTimeoutS+0x78>)
 8002dfc:	f7fd ff40 	bl	8000c80 <chSysHalt>
 8002e00:	20000ec8 	.word	0x20000ec8
 8002e04:	080072dc 	.word	0x080072dc
 8002e08:	08007ebc 	.word	0x08007ebc
 8002e0c:	00000000 	.word	0x00000000

08002e10 <obqWriteTimeout>:
                       size_t n, sysinterval_t timeout) {
 8002e10:	e92d 4ff0 	stmdb	sp!, {r4, r5, r6, r7, r8, r9, sl, fp, lr}
 8002e14:	b083      	sub	sp, #12
 8002e16:	9301      	str	r3, [sp, #4]
  osalDbgCheck(n > 0U);
 8002e18:	2a00      	cmp	r2, #0
 8002e1a:	d079      	beq.n	8002f10 <obqWriteTimeout+0x100>
 8002e1c:	2730      	movs	r7, #48	; 0x30
 8002e1e:	f387 8811 	msr	BASEPRI, r7
  if (unlikely((oip->dbg.isr_cnt != (cnt_t)0) ||
 8002e22:	4c4a      	ldr	r4, [pc, #296]	; (8002f4c <obqWriteTimeout+0x13c>)
 8002e24:	e9d4 6323 	ldrd	r6, r3, [r4, #140]	; 0x8c
 8002e28:	431e      	orrs	r6, r3
 8002e2a:	d146      	bne.n	8002eba <obqWriteTimeout+0xaa>
 8002e2c:	4605      	mov	r5, r0
 8002e2e:	468b      	mov	fp, r1
 8002e30:	4692      	mov	sl, r2
  oip->dbg.lock_cnt = (cnt_t)1;
 8002e32:	f04f 0801 	mov.w	r8, #1
 8002e36:	46b1      	mov	r9, r6
    if (obqp->ptr == NULL) {
 8002e38:	6aa8      	ldr	r0, [r5, #40]	; 0x28
 8002e3a:	f8c4 8090 	str.w	r8, [r4, #144]	; 0x90
 8002e3e:	2800      	cmp	r0, #0
 8002e40:	d057      	beq.n	8002ef2 <obqWriteTimeout+0xe2>
    size = (size_t)obqp->top - (size_t)obqp->ptr;
 8002e42:	6aea      	ldr	r2, [r5, #44]	; 0x2c
    if (size > (n - w)) {
 8002e44:	ebaa 0306 	sub.w	r3, sl, r6
    size = (size_t)obqp->top - (size_t)obqp->ptr;
 8002e48:	1a12      	subs	r2, r2, r0
 8002e4a:	429a      	cmp	r2, r3
 8002e4c:	bf28      	it	cs
 8002e4e:	461a      	movcs	r2, r3
    if (size > (size_t)BUFFERS_CHUNKS_SIZE) {
 8002e50:	2a40      	cmp	r2, #64	; 0x40
 8002e52:	d935      	bls.n	8002ec0 <obqWriteTimeout+0xb0>
      memcpy(obqp->ptr, bp, (size_t)BUFFERS_CHUNKS_SIZE);
 8002e54:	4659      	mov	r1, fp
 8002e56:	f10b 0b40 	add.w	fp, fp, #64	; 0x40
 8002e5a:	f8d1 c000 	ldr.w	ip, [r1]
 8002e5e:	684a      	ldr	r2, [r1, #4]
 8002e60:	688b      	ldr	r3, [r1, #8]
 8002e62:	f8d1 e00c 	ldr.w	lr, [r1, #12]
 8002e66:	f8c0 e00c 	str.w	lr, [r0, #12]
 8002e6a:	3110      	adds	r1, #16
 8002e6c:	4559      	cmp	r1, fp
 8002e6e:	f8c0 c000 	str.w	ip, [r0]
 8002e72:	6042      	str	r2, [r0, #4]
 8002e74:	6083      	str	r3, [r0, #8]
 8002e76:	f100 0010 	add.w	r0, r0, #16
 8002e7a:	d1ee      	bne.n	8002e5a <obqWriteTimeout+0x4a>
      obqp->ptr += (size_t)BUFFERS_CHUNKS_SIZE;
 8002e7c:	6aab      	ldr	r3, [r5, #40]	; 0x28
    if (obqp->ptr >= obqp->top) {
 8002e7e:	6aea      	ldr	r2, [r5, #44]	; 0x2c
      obqp->ptr += (size_t)BUFFERS_CHUNKS_SIZE;
 8002e80:	3340      	adds	r3, #64	; 0x40
    if (obqp->ptr >= obqp->top) {
 8002e82:	429a      	cmp	r2, r3
      bp        += (size_t)BUFFERS_CHUNKS_SIZE;
 8002e84:	468b      	mov	fp, r1
      w         += (size_t)BUFFERS_CHUNKS_SIZE;
 8002e86:	f106 0640 	add.w	r6, r6, #64	; 0x40
      obqp->ptr += (size_t)BUFFERS_CHUNKS_SIZE;
 8002e8a:	62ab      	str	r3, [r5, #40]	; 0x28
    if (obqp->ptr >= obqp->top) {
 8002e8c:	d925      	bls.n	8002eda <obqWriteTimeout+0xca>
  if (unlikely((oip->dbg.isr_cnt != (cnt_t)0) ||
 8002e8e:	f8d4 308c 	ldr.w	r3, [r4, #140]	; 0x8c
 8002e92:	bb5b      	cbnz	r3, 8002eec <obqWriteTimeout+0xdc>
 8002e94:	f8d4 2090 	ldr.w	r2, [r4, #144]	; 0x90
 8002e98:	2a00      	cmp	r2, #0
 8002e9a:	dd27      	ble.n	8002eec <obqWriteTimeout+0xdc>
  oip->dbg.lock_cnt = (cnt_t)0;
 8002e9c:	f8c4 3090 	str.w	r3, [r4, #144]	; 0x90
 8002ea0:	6823      	ldr	r3, [r4, #0]
 8002ea2:	42a3      	cmp	r3, r4
 8002ea4:	d12c      	bne.n	8002f00 <obqWriteTimeout+0xf0>
 8002ea6:	f389 8811 	msr	BASEPRI, r9
    if (w >= n) {
 8002eaa:	4556      	cmp	r6, sl
 8002eac:	d243      	bcs.n	8002f36 <obqWriteTimeout+0x126>
 8002eae:	f387 8811 	msr	BASEPRI, r7
  if (unlikely((oip->dbg.isr_cnt != (cnt_t)0) ||
 8002eb2:	e9d4 3223 	ldrd	r3, r2, [r4, #140]	; 0x8c
 8002eb6:	4313      	orrs	r3, r2
 8002eb8:	d0be      	beq.n	8002e38 <obqWriteTimeout+0x28>
    chSysHalt("SV#4");
 8002eba:	4825      	ldr	r0, [pc, #148]	; (8002f50 <obqWriteTimeout+0x140>)
 8002ebc:	f7fd fee0 	bl	8000c80 <chSysHalt>
      memcpy(obqp->ptr, bp, size);
 8002ec0:	4659      	mov	r1, fp
      w         += size;
 8002ec2:	4416      	add	r6, r2
      bp        += size;
 8002ec4:	4493      	add	fp, r2
      memcpy(obqp->ptr, bp, size);
 8002ec6:	9200      	str	r2, [sp, #0]
 8002ec8:	f7fd fb98 	bl	80005fc <memcpy>
      obqp->ptr += size;
 8002ecc:	6aab      	ldr	r3, [r5, #40]	; 0x28
 8002ece:	9a00      	ldr	r2, [sp, #0]
 8002ed0:	4413      	add	r3, r2
    if (obqp->ptr >= obqp->top) {
 8002ed2:	6aea      	ldr	r2, [r5, #44]	; 0x2c
      obqp->ptr += (size_t)BUFFERS_CHUNKS_SIZE;
 8002ed4:	62ab      	str	r3, [r5, #40]	; 0x28
    if (obqp->ptr >= obqp->top) {
 8002ed6:	429a      	cmp	r2, r3
 8002ed8:	d8d9      	bhi.n	8002e8e <obqWriteTimeout+0x7e>
      obqPostFullBufferS(obqp, obqp->bsize - sizeof (size_t));
 8002eda:	69e9      	ldr	r1, [r5, #28]
 8002edc:	4628      	mov	r0, r5
 8002ede:	3904      	subs	r1, #4
 8002ee0:	f7fd ff4e 	bl	8000d80 <obqPostFullBufferS>
  if (unlikely((oip->dbg.isr_cnt != (cnt_t)0) ||
 8002ee4:	f8d4 308c 	ldr.w	r3, [r4, #140]	; 0x8c
 8002ee8:	2b00      	cmp	r3, #0
 8002eea:	d0d3      	beq.n	8002e94 <obqWriteTimeout+0x84>
    chSysHalt("SV#5");
 8002eec:	4819      	ldr	r0, [pc, #100]	; (8002f54 <obqWriteTimeout+0x144>)
 8002eee:	f7fd fec7 	bl	8000c80 <chSysHalt>
      msg = obqGetEmptyBufferTimeoutS(obqp, timeout);
 8002ef2:	9901      	ldr	r1, [sp, #4]
 8002ef4:	4628      	mov	r0, r5
 8002ef6:	f7ff ff4b 	bl	8002d90 <obqGetEmptyBufferTimeoutS>
      if (msg != MSG_OK) {
 8002efa:	b960      	cbnz	r0, 8002f16 <obqWriteTimeout+0x106>
    size = (size_t)obqp->top - (size_t)obqp->ptr;
 8002efc:	6aa8      	ldr	r0, [r5, #40]	; 0x28
 8002efe:	e7a0      	b.n	8002e42 <obqWriteTimeout+0x32>
 8002f00:	68e2      	ldr	r2, [r4, #12]
 8002f02:	689b      	ldr	r3, [r3, #8]
 8002f04:	6892      	ldr	r2, [r2, #8]
 8002f06:	429a      	cmp	r2, r3
 8002f08:	d2cd      	bcs.n	8002ea6 <obqWriteTimeout+0x96>
 8002f0a:	4813      	ldr	r0, [pc, #76]	; (8002f58 <obqWriteTimeout+0x148>)
 8002f0c:	f7fd feb8 	bl	8000c80 <chSysHalt>
  osalDbgCheck(n > 0U);
 8002f10:	4812      	ldr	r0, [pc, #72]	; (8002f5c <obqWriteTimeout+0x14c>)
 8002f12:	f7fd feb5 	bl	8000c80 <chSysHalt>
  if (unlikely((oip->dbg.isr_cnt != (cnt_t)0) ||
 8002f16:	f8d4 308c 	ldr.w	r3, [r4, #140]	; 0x8c
 8002f1a:	2b00      	cmp	r3, #0
 8002f1c:	d1e6      	bne.n	8002eec <obqWriteTimeout+0xdc>
 8002f1e:	f8d4 2090 	ldr.w	r2, [r4, #144]	; 0x90
 8002f22:	2a00      	cmp	r2, #0
 8002f24:	dde2      	ble.n	8002eec <obqWriteTimeout+0xdc>
 8002f26:	6822      	ldr	r2, [r4, #0]
  oip->dbg.lock_cnt = (cnt_t)0;
 8002f28:	f8c4 3090 	str.w	r3, [r4, #144]	; 0x90
 8002f2c:	42a2      	cmp	r2, r4
 8002f2e:	d106      	bne.n	8002f3e <obqWriteTimeout+0x12e>
 8002f30:	2300      	movs	r3, #0
 8002f32:	f383 8811 	msr	BASEPRI, r3
}
 8002f36:	4630      	mov	r0, r6
 8002f38:	b003      	add	sp, #12
 8002f3a:	e8bd 8ff0 	ldmia.w	sp!, {r4, r5, r6, r7, r8, r9, sl, fp, pc}
 8002f3e:	68e1      	ldr	r1, [r4, #12]
 8002f40:	6893      	ldr	r3, [r2, #8]
 8002f42:	688a      	ldr	r2, [r1, #8]
 8002f44:	429a      	cmp	r2, r3
 8002f46:	d2f3      	bcs.n	8002f30 <obqWriteTimeout+0x120>
 8002f48:	e7df      	b.n	8002f0a <obqWriteTimeout+0xfa>
 8002f4a:	bf00      	nop
 8002f4c:	20000ec8 	.word	0x20000ec8
 8002f50:	080072f4 	.word	0x080072f4
 8002f54:	08007314 	.word	0x08007314
 8002f58:	080080b0 	.word	0x080080b0
 8002f5c:	08007c8c 	.word	0x08007c8c

08002f60 <_write>:
  return obqWriteTimeout(&((SerialUSBDriver *)ip)->obqueue, bp,
 8002f60:	f04f 33ff 	mov.w	r3, #4294967295	; 0xffffffff
 8002f64:	3044      	adds	r0, #68	; 0x44
 8002f66:	f7ff bf53 	b.w	8002e10 <obqWriteTimeout>
 8002f6a:	bf00      	nop
 8002f6c:	0000      	movs	r0, r0
	...

08002f70 <_writet>:
  return obqWriteTimeout(&((SerialUSBDriver *)ip)->obqueue, bp, n, timeout);
 8002f70:	3044      	adds	r0, #68	; 0x44
 8002f72:	f7ff bf4d 	b.w	8002e10 <obqWriteTimeout>
 8002f76:	bf00      	nop
	...

08002f80 <_put>:
static msg_t _put(void *ip, uint8_t b) {
 8002f80:	b5f8      	push	{r3, r4, r5, r6, r7, lr}
 8002f82:	2330      	movs	r3, #48	; 0x30
 8002f84:	f383 8811 	msr	BASEPRI, r3
  if (unlikely((oip->dbg.isr_cnt != (cnt_t)0) ||
 8002f88:	4d29      	ldr	r5, [pc, #164]	; (8003030 <_put+0xb0>)
 8002f8a:	e9d5 3223 	ldrd	r3, r2, [r5, #140]	; 0x8c
 8002f8e:	4313      	orrs	r3, r2
 8002f90:	d125      	bne.n	8002fde <_put+0x5e>
  oip->dbg.lock_cnt = (cnt_t)1;
 8002f92:	2301      	movs	r3, #1
 8002f94:	f8c5 3090 	str.w	r3, [r5, #144]	; 0x90
  if (obqp->ptr == NULL) {
 8002f98:	6ec3      	ldr	r3, [r0, #108]	; 0x6c
 8002f9a:	4604      	mov	r4, r0
 8002f9c:	460f      	mov	r7, r1
 8002f9e:	f100 0644 	add.w	r6, r0, #68	; 0x44
 8002fa2:	b313      	cbz	r3, 8002fea <_put+0x6a>
  *obqp->ptr = b;
 8002fa4:	701f      	strb	r7, [r3, #0]
  if (obqp->ptr >= obqp->top) {
 8002fa6:	e9d4 321b 	ldrd	r3, r2, [r4, #108]	; 0x6c
  obqp->ptr++;
 8002faa:	3301      	adds	r3, #1
  if (obqp->ptr >= obqp->top) {
 8002fac:	4293      	cmp	r3, r2
  obqp->ptr++;
 8002fae:	66e3      	str	r3, [r4, #108]	; 0x6c
  if (obqp->ptr >= obqp->top) {
 8002fb0:	d20f      	bcs.n	8002fd2 <_put+0x52>
  if (unlikely((oip->dbg.isr_cnt != (cnt_t)0) ||
 8002fb2:	f8d5 008c 	ldr.w	r0, [r5, #140]	; 0x8c
 8002fb6:	b9a8      	cbnz	r0, 8002fe4 <_put+0x64>
 8002fb8:	f8d5 3090 	ldr.w	r3, [r5, #144]	; 0x90
 8002fbc:	2b00      	cmp	r3, #0
 8002fbe:	dd11      	ble.n	8002fe4 <_put+0x64>
 8002fc0:	682b      	ldr	r3, [r5, #0]
  oip->dbg.lock_cnt = (cnt_t)0;
 8002fc2:	f8c5 0090 	str.w	r0, [r5, #144]	; 0x90
 8002fc6:	42ab      	cmp	r3, r5
 8002fc8:	d117      	bne.n	8002ffa <_put+0x7a>
 8002fca:	2300      	movs	r3, #0
 8002fcc:	f383 8811 	msr	BASEPRI, r3
}
 8002fd0:	bdf8      	pop	{r3, r4, r5, r6, r7, pc}
    obqPostFullBufferS(obqp, obqp->bsize - sizeof (size_t));
 8002fd2:	6e21      	ldr	r1, [r4, #96]	; 0x60
 8002fd4:	4630      	mov	r0, r6
 8002fd6:	3904      	subs	r1, #4
 8002fd8:	f7fd fed2 	bl	8000d80 <obqPostFullBufferS>
 8002fdc:	e7e9      	b.n	8002fb2 <_put+0x32>
    chSysHalt("SV#4");
 8002fde:	4815      	ldr	r0, [pc, #84]	; (8003034 <_put+0xb4>)
 8002fe0:	f7fd fe4e 	bl	8000c80 <chSysHalt>
    chSysHalt("SV#5");
 8002fe4:	4814      	ldr	r0, [pc, #80]	; (8003038 <_put+0xb8>)
 8002fe6:	f7fd fe4b 	bl	8000c80 <chSysHalt>
    msg = obqGetEmptyBufferTimeoutS(obqp, timeout);
 8002fea:	f04f 31ff 	mov.w	r1, #4294967295	; 0xffffffff
 8002fee:	4630      	mov	r0, r6
 8002ff0:	f7ff fece 	bl	8002d90 <obqGetEmptyBufferTimeoutS>
    if (msg != MSG_OK) {
 8002ff4:	b948      	cbnz	r0, 800300a <_put+0x8a>
  *obqp->ptr = b;
 8002ff6:	6ee3      	ldr	r3, [r4, #108]	; 0x6c
 8002ff8:	e7d4      	b.n	8002fa4 <_put+0x24>
 8002ffa:	68ea      	ldr	r2, [r5, #12]
 8002ffc:	689b      	ldr	r3, [r3, #8]
 8002ffe:	6892      	ldr	r2, [r2, #8]
 8003000:	429a      	cmp	r2, r3
 8003002:	d2e2      	bcs.n	8002fca <_put+0x4a>
 8003004:	480d      	ldr	r0, [pc, #52]	; (800303c <_put+0xbc>)
 8003006:	f7fd fe3b 	bl	8000c80 <chSysHalt>
  if (unlikely((oip->dbg.isr_cnt != (cnt_t)0) ||
 800300a:	f8d5 308c 	ldr.w	r3, [r5, #140]	; 0x8c
 800300e:	2b00      	cmp	r3, #0
 8003010:	d1e8      	bne.n	8002fe4 <_put+0x64>
 8003012:	f8d5 2090 	ldr.w	r2, [r5, #144]	; 0x90
 8003016:	2a00      	cmp	r2, #0
 8003018:	dde4      	ble.n	8002fe4 <_put+0x64>
 800301a:	682a      	ldr	r2, [r5, #0]
  oip->dbg.lock_cnt = (cnt_t)0;
 800301c:	f8c5 3090 	str.w	r3, [r5, #144]	; 0x90
 8003020:	42aa      	cmp	r2, r5
 8003022:	d0d2      	beq.n	8002fca <_put+0x4a>
 8003024:	68e9      	ldr	r1, [r5, #12]
 8003026:	6893      	ldr	r3, [r2, #8]
 8003028:	688a      	ldr	r2, [r1, #8]
 800302a:	429a      	cmp	r2, r3
 800302c:	d2cd      	bcs.n	8002fca <_put+0x4a>
 800302e:	e7e9      	b.n	8003004 <_put+0x84>
 8003030:	20000ec8 	.word	0x20000ec8
 8003034:	080072f4 	.word	0x080072f4
 8003038:	08007314 	.word	0x08007314
 800303c:	080080b0 	.word	0x080080b0

08003040 <_putt>:
static msg_t _putt(void *ip, uint8_t b, sysinterval_t timeout) {
 8003040:	b5f8      	push	{r3, r4, r5, r6, r7, lr}
 8003042:	460e      	mov	r6, r1
 8003044:	2330      	movs	r3, #48	; 0x30
 8003046:	f383 8811 	msr	BASEPRI, r3
  if (unlikely((oip->dbg.isr_cnt != (cnt_t)0) ||
 800304a:	4d29      	ldr	r5, [pc, #164]	; (80030f0 <_putt+0xb0>)
 800304c:	e9d5 3123 	ldrd	r3, r1, [r5, #140]	; 0x8c
 8003050:	430b      	orrs	r3, r1
 8003052:	d124      	bne.n	800309e <_putt+0x5e>
  if (obqp->ptr == NULL) {
 8003054:	6ec3      	ldr	r3, [r0, #108]	; 0x6c
  oip->dbg.lock_cnt = (cnt_t)1;
 8003056:	2101      	movs	r1, #1
 8003058:	4604      	mov	r4, r0
 800305a:	f100 0744 	add.w	r7, r0, #68	; 0x44
 800305e:	f8c5 1090 	str.w	r1, [r5, #144]	; 0x90
 8003062:	b313      	cbz	r3, 80030aa <_putt+0x6a>
  *obqp->ptr = b;
 8003064:	701e      	strb	r6, [r3, #0]
  if (obqp->ptr >= obqp->top) {
 8003066:	e9d4 321b 	ldrd	r3, r2, [r4, #108]	; 0x6c
  obqp->ptr++;
 800306a:	3301      	adds	r3, #1
  if (obqp->ptr >= obqp->top) {
 800306c:	4293      	cmp	r3, r2
  obqp->ptr++;
 800306e:	66e3      	str	r3, [r4, #108]	; 0x6c
  if (obqp->ptr >= obqp->top) {
 8003070:	d20f      	bcs.n	8003092 <_putt+0x52>
  if (unlikely((oip->dbg.isr_cnt != (cnt_t)0) ||
 8003072:	f8d5 008c 	ldr.w	r0, [r5, #140]	; 0x8c
 8003076:	b9a8      	cbnz	r0, 80030a4 <_putt+0x64>
 8003078:	f8d5 3090 	ldr.w	r3, [r5, #144]	; 0x90
 800307c:	2b00      	cmp	r3, #0
 800307e:	dd11      	ble.n	80030a4 <_putt+0x64>
 8003080:	682b      	ldr	r3, [r5, #0]
  oip->dbg.lock_cnt = (cnt_t)0;
 8003082:	f8c5 0090 	str.w	r0, [r5, #144]	; 0x90
 8003086:	42ab      	cmp	r3, r5
 8003088:	d116      	bne.n	80030b8 <_putt+0x78>
 800308a:	2300      	movs	r3, #0
 800308c:	f383 8811 	msr	BASEPRI, r3
}
 8003090:	bdf8      	pop	{r3, r4, r5, r6, r7, pc}
    obqPostFullBufferS(obqp, obqp->bsize - sizeof (size_t));
 8003092:	6e21      	ldr	r1, [r4, #96]	; 0x60
 8003094:	4638      	mov	r0, r7
 8003096:	3904      	subs	r1, #4
 8003098:	f7fd fe72 	bl	8000d80 <obqPostFullBufferS>
 800309c:	e7e9      	b.n	8003072 <_putt+0x32>
    chSysHalt("SV#4");
 800309e:	4815      	ldr	r0, [pc, #84]	; (80030f4 <_putt+0xb4>)
 80030a0:	f7fd fdee 	bl	8000c80 <chSysHalt>
    chSysHalt("SV#5");
 80030a4:	4814      	ldr	r0, [pc, #80]	; (80030f8 <_putt+0xb8>)
 80030a6:	f7fd fdeb 	bl	8000c80 <chSysHalt>
    msg = obqGetEmptyBufferTimeoutS(obqp, timeout);
 80030aa:	4611      	mov	r1, r2
 80030ac:	4638      	mov	r0, r7
 80030ae:	f7ff fe6f 	bl	8002d90 <obqGetEmptyBufferTimeoutS>
    if (msg != MSG_OK) {
 80030b2:	b948      	cbnz	r0, 80030c8 <_putt+0x88>
  *obqp->ptr = b;
 80030b4:	6ee3      	ldr	r3, [r4, #108]	; 0x6c
 80030b6:	e7d5      	b.n	8003064 <_putt+0x24>
 80030b8:	68ea      	ldr	r2, [r5, #12]
 80030ba:	689b      	ldr	r3, [r3, #8]
 80030bc:	6892      	ldr	r2, [r2, #8]
 80030be:	429a      	cmp	r2, r3
 80030c0:	d2e3      	bcs.n	800308a <_putt+0x4a>
 80030c2:	480e      	ldr	r0, [pc, #56]	; (80030fc <_putt+0xbc>)
 80030c4:	f7fd fddc 	bl	8000c80 <chSysHalt>
  if (unlikely((oip->dbg.isr_cnt != (cnt_t)0) ||
 80030c8:	f8d5 308c 	ldr.w	r3, [r5, #140]	; 0x8c
 80030cc:	2b00      	cmp	r3, #0
 80030ce:	d1e9      	bne.n	80030a4 <_putt+0x64>
 80030d0:	f8d5 2090 	ldr.w	r2, [r5, #144]	; 0x90
 80030d4:	2a00      	cmp	r2, #0
 80030d6:	dde5      	ble.n	80030a4 <_putt+0x64>
 80030d8:	682a      	ldr	r2, [r5, #0]
  oip->dbg.lock_cnt = (cnt_t)0;
 80030da:	f8c5 3090 	str.w	r3, [r5, #144]	; 0x90
 80030de:	42aa      	cmp	r2, r5
 80030e0:	d0d3      	beq.n	800308a <_putt+0x4a>
 80030e2:	68e9      	ldr	r1, [r5, #12]
 80030e4:	6893      	ldr	r3, [r2, #8]
 80030e6:	688a      	ldr	r2, [r1, #8]
 80030e8:	429a      	cmp	r2, r3
 80030ea:	d2ce      	bcs.n	800308a <_putt+0x4a>
 80030ec:	e7e9      	b.n	80030c2 <_putt+0x82>
 80030ee:	bf00      	nop
 80030f0:	20000ec8 	.word	0x20000ec8
 80030f4:	080072f4 	.word	0x080072f4
 80030f8:	08007314 	.word	0x08007314
 80030fc:	080080b0 	.word	0x080080b0

08003100 <chThdSleep>:
void chThdSleep(sysinterval_t time) {
 8003100:	b510      	push	{r4, lr}
 8003102:	2330      	movs	r3, #48	; 0x30
 8003104:	f383 8811 	msr	BASEPRI, r3
  if (unlikely((oip->dbg.isr_cnt != (cnt_t)0) ||
 8003108:	4c14      	ldr	r4, [pc, #80]	; (800315c <chThdSleep+0x5c>)
 800310a:	e9d4 3223 	ldrd	r3, r2, [r4, #140]	; 0x8c
 800310e:	4313      	orrs	r3, r2
 8003110:	d116      	bne.n	8003140 <chThdSleep+0x40>
  oip->dbg.lock_cnt = (cnt_t)1;
 8003112:	2301      	movs	r3, #1
 8003114:	4601      	mov	r1, r0
  (void) chSchGoSleepTimeoutS(CH_STATE_SLEEPING, ticks);
 8003116:	2008      	movs	r0, #8
 8003118:	f8c4 3090 	str.w	r3, [r4, #144]	; 0x90
 800311c:	f7ff fc50 	bl	80029c0 <chSchGoSleepTimeoutS>
  if (unlikely((oip->dbg.isr_cnt != (cnt_t)0) ||
 8003120:	f8d4 308c 	ldr.w	r3, [r4, #140]	; 0x8c
 8003124:	b97b      	cbnz	r3, 8003146 <chThdSleep+0x46>
 8003126:	f8d4 2090 	ldr.w	r2, [r4, #144]	; 0x90
 800312a:	2a00      	cmp	r2, #0
 800312c:	dd0b      	ble.n	8003146 <chThdSleep+0x46>
 800312e:	6822      	ldr	r2, [r4, #0]
  oip->dbg.lock_cnt = (cnt_t)0;
 8003130:	f8c4 3090 	str.w	r3, [r4, #144]	; 0x90
 8003134:	42a2      	cmp	r2, r4
 8003136:	d109      	bne.n	800314c <chThdSleep+0x4c>
 8003138:	2300      	movs	r3, #0
 800313a:	f383 8811 	msr	BASEPRI, r3
}
 800313e:	bd10      	pop	{r4, pc}
    chSysHalt("SV#4");
 8003140:	4807      	ldr	r0, [pc, #28]	; (8003160 <chThdSleep+0x60>)
 8003142:	f7fd fd9d 	bl	8000c80 <chSysHalt>
    chSysHalt("SV#5");
 8003146:	4807      	ldr	r0, [pc, #28]	; (8003164 <chThdSleep+0x64>)
 8003148:	f7fd fd9a 	bl	8000c80 <chSysHalt>
 800314c:	68e1      	ldr	r1, [r4, #12]
 800314e:	6893      	ldr	r3, [r2, #8]
 8003150:	688a      	ldr	r2, [r1, #8]
 8003152:	429a      	cmp	r2, r3
 8003154:	d2f0      	bcs.n	8003138 <chThdSleep+0x38>
 8003156:	4804      	ldr	r0, [pc, #16]	; (8003168 <chThdSleep+0x68>)
 8003158:	f7fd fd92 	bl	8000c80 <chSysHalt>
 800315c:	20000ec8 	.word	0x20000ec8
 8003160:	080072f4 	.word	0x080072f4
 8003164:	08007314 	.word	0x08007314
 8003168:	08007e88 	.word	0x08007e88
 800316c:	00000000 	.word	0x00000000

08003170 <GPIB_Thread>:
 * @api
 */
static inline void chRegSetThreadName(const char *name) {

#if CH_CFG_USE_REGISTRY == TRUE
  __sch_get_currthread()->name = name;
 8003170:	4c1c      	ldr	r4, [pc, #112]	; (80031e4 <GPIB_Thread+0x74>)
 8003172:	491d      	ldr	r1, [pc, #116]	; (80031e8 <GPIB_Thread+0x78>)
 8003174:	68e2      	ldr	r2, [r4, #12]
uint8_t input(uint32_t line);
uint8_t srq_state(void);

THD_WORKING_AREA(waGPIB_Thread, 128);

THD_FUNCTION(GPIB_Thread, arg) {
 8003176:	b508      	push	{r3, lr}
 8003178:	2330      	movs	r3, #48	; 0x30
 800317a:	61d1      	str	r1, [r2, #28]
 800317c:	f383 8811 	msr	BASEPRI, r3
  if (unlikely((oip->dbg.isr_cnt != (cnt_t)0) ||
 8003180:	f8d4 308c 	ldr.w	r3, [r4, #140]	; 0x8c
 8003184:	bb03      	cbnz	r3, 80031c8 <GPIB_Thread+0x58>
  oip->dbg.lock_cnt = (cnt_t)1;
 8003186:	2501      	movs	r5, #1
  if (unlikely((oip->dbg.isr_cnt != (cnt_t)0) ||
 8003188:	f8d4 3090 	ldr.w	r3, [r4, #144]	; 0x90
 800318c:	b9e3      	cbnz	r3, 80031c8 <GPIB_Thread+0x58>
 800318e:	f44f 71fa 	mov.w	r1, #500	; 0x1f4
 8003192:	2008      	movs	r0, #8
  oip->dbg.lock_cnt = (cnt_t)1;
 8003194:	f8c4 5090 	str.w	r5, [r4, #144]	; 0x90
 8003198:	f7ff fc12 	bl	80029c0 <chSchGoSleepTimeoutS>
  if (unlikely((oip->dbg.isr_cnt != (cnt_t)0) ||
 800319c:	f8d4 308c 	ldr.w	r3, [r4, #140]	; 0x8c
 80031a0:	b9ab      	cbnz	r3, 80031ce <GPIB_Thread+0x5e>
 80031a2:	f8d4 2090 	ldr.w	r2, [r4, #144]	; 0x90
 80031a6:	2a00      	cmp	r2, #0
 80031a8:	dd11      	ble.n	80031ce <GPIB_Thread+0x5e>
 80031aa:	6822      	ldr	r2, [r4, #0]
  oip->dbg.lock_cnt = (cnt_t)0;
 80031ac:	f8c4 3090 	str.w	r3, [r4, #144]	; 0x90
 80031b0:	42a2      	cmp	r2, r4
 80031b2:	d10f      	bne.n	80031d4 <GPIB_Thread+0x64>
 80031b4:	2300      	movs	r3, #0
 80031b6:	f383 8811 	msr	BASEPRI, r3
 80031ba:	2330      	movs	r3, #48	; 0x30
 80031bc:	f383 8811 	msr	BASEPRI, r3
  if (unlikely((oip->dbg.isr_cnt != (cnt_t)0) ||
 80031c0:	f8d4 308c 	ldr.w	r3, [r4, #140]	; 0x8c
 80031c4:	2b00      	cmp	r3, #0
 80031c6:	d0df      	beq.n	8003188 <GPIB_Thread+0x18>
    chSysHalt("SV#4");
 80031c8:	4808      	ldr	r0, [pc, #32]	; (80031ec <GPIB_Thread+0x7c>)
 80031ca:	f7fd fd59 	bl	8000c80 <chSysHalt>
    chSysHalt("SV#5");
 80031ce:	4808      	ldr	r0, [pc, #32]	; (80031f0 <GPIB_Thread+0x80>)
 80031d0:	f7fd fd56 	bl	8000c80 <chSysHalt>
 80031d4:	68e1      	ldr	r1, [r4, #12]
 80031d6:	6893      	ldr	r3, [r2, #8]
 80031d8:	688a      	ldr	r2, [r1, #8]
 80031da:	429a      	cmp	r2, r3
 80031dc:	d2ea      	bcs.n	80031b4 <GPIB_Thread+0x44>
 80031de:	4805      	ldr	r0, [pc, #20]	; (80031f4 <GPIB_Thread+0x84>)
 80031e0:	f7fd fd4e 	bl	8000c80 <chSysHalt>
 80031e4:	20000ec8 	.word	0x20000ec8
 80031e8:	0800731c 	.word	0x0800731c
 80031ec:	080072f4 	.word	0x080072f4
 80031f0:	08007314 	.word	0x08007314
 80031f4:	08007e88 	.word	0x08007e88
	...

08003200 <Thread1>:
 8003200:	4c33      	ldr	r4, [pc, #204]	; (80032d0 <Thread1+0xd0>)
 8003202:	4a34      	ldr	r2, [pc, #208]	; (80032d4 <Thread1+0xd4>)
 8003204:	f8df a0d0 	ldr.w	sl, [pc, #208]	; 80032d8 <Thread1+0xd8>
  (void)arg;
  chRegSetThreadName("blinker");
  while (true) {
    systime_t time;
    time = serusbcfg1.usbp->state == USB_ACTIVE ? 250 : 500;
    palClearLine(LED);
 8003208:	4d34      	ldr	r5, [pc, #208]	; (80032dc <Thread1+0xdc>)
static THD_FUNCTION(Thread1, arg) {
 800320a:	e92d 4888 	stmdb	sp!, {r3, r7, fp, lr}
 800320e:	68e3      	ldr	r3, [r4, #12]
    palClearLine(LED);
 8003210:	f44f 5600 	mov.w	r6, #8192	; 0x2000
 8003214:	61da      	str	r2, [r3, #28]
    time = serusbcfg1.usbp->state == USB_ACTIVE ? 250 : 500;
 8003216:	f640 19c4 	movw	r9, #2500	; 0x9c4
 800321a:	f241 3888 	movw	r8, #5000	; 0x1388
    palClearLine(LED);
 800321e:	4637      	mov	r7, r6
    time = serusbcfg1.usbp->state == USB_ACTIVE ? 250 : 500;
 8003220:	f89a 3000 	ldrb.w	r3, [sl]
    palClearLine(LED);
 8003224:	836f      	strh	r7, [r5, #26]
    time = serusbcfg1.usbp->state == USB_ACTIVE ? 250 : 500;
 8003226:	2b04      	cmp	r3, #4
 8003228:	bf0c      	ite	eq
 800322a:	46cb      	moveq	fp, r9
 800322c:	46c3      	movne	fp, r8
 800322e:	2330      	movs	r3, #48	; 0x30
 8003230:	f383 8811 	msr	BASEPRI, r3
  if (unlikely((oip->dbg.isr_cnt != (cnt_t)0) ||
 8003234:	e9d4 3223 	ldrd	r3, r2, [r4, #140]	; 0x8c
 8003238:	4313      	orrs	r3, r2
 800323a:	d134      	bne.n	80032a6 <Thread1+0xa6>
  oip->dbg.lock_cnt = (cnt_t)1;
 800323c:	2301      	movs	r3, #1
 800323e:	4659      	mov	r1, fp
 8003240:	2008      	movs	r0, #8
 8003242:	f8c4 3090 	str.w	r3, [r4, #144]	; 0x90
 8003246:	f7ff fbbb 	bl	80029c0 <chSchGoSleepTimeoutS>
  if (unlikely((oip->dbg.isr_cnt != (cnt_t)0) ||
 800324a:	f8d4 308c 	ldr.w	r3, [r4, #140]	; 0x8c
 800324e:	bb6b      	cbnz	r3, 80032ac <Thread1+0xac>
 8003250:	f8d4 2090 	ldr.w	r2, [r4, #144]	; 0x90
 8003254:	2a00      	cmp	r2, #0
 8003256:	dd29      	ble.n	80032ac <Thread1+0xac>
  oip->dbg.lock_cnt = (cnt_t)0;
 8003258:	f8c4 3090 	str.w	r3, [r4, #144]	; 0x90
 800325c:	6823      	ldr	r3, [r4, #0]
 800325e:	42a3      	cmp	r3, r4
 8003260:	d12f      	bne.n	80032c2 <Thread1+0xc2>
 8003262:	2300      	movs	r3, #0
 8003264:	f383 8811 	msr	BASEPRI, r3
 8003268:	2330      	movs	r3, #48	; 0x30
    chThdSleepMilliseconds(time);
    palSetLine(LED);
 800326a:	832e      	strh	r6, [r5, #24]
 800326c:	f383 8811 	msr	BASEPRI, r3
  if (unlikely((oip->dbg.isr_cnt != (cnt_t)0) ||
 8003270:	e9d4 3223 	ldrd	r3, r2, [r4, #140]	; 0x8c
 8003274:	4313      	orrs	r3, r2
 8003276:	d116      	bne.n	80032a6 <Thread1+0xa6>
  oip->dbg.lock_cnt = (cnt_t)1;
 8003278:	2301      	movs	r3, #1
 800327a:	4659      	mov	r1, fp
 800327c:	2008      	movs	r0, #8
 800327e:	f8c4 3090 	str.w	r3, [r4, #144]	; 0x90
 8003282:	f7ff fb9d 	bl	80029c0 <chSchGoSleepTimeoutS>
  if (unlikely((oip->dbg.isr_cnt != (cnt_t)0) ||
 8003286:	f8d4 308c 	ldr.w	r3, [r4, #140]	; 0x8c
 800328a:	b97b      	cbnz	r3, 80032ac <Thread1+0xac>
 800328c:	f8d4 2090 	ldr.w	r2, [r4, #144]	; 0x90
 8003290:	2a00      	cmp	r2, #0
 8003292:	dd0b      	ble.n	80032ac <Thread1+0xac>
  oip->dbg.lock_cnt = (cnt_t)0;
 8003294:	f8c4 3090 	str.w	r3, [r4, #144]	; 0x90
 8003298:	6823      	ldr	r3, [r4, #0]
 800329a:	42a3      	cmp	r3, r4
 800329c:	d109      	bne.n	80032b2 <Thread1+0xb2>
 800329e:	2300      	movs	r3, #0
 80032a0:	f383 8811 	msr	BASEPRI, r3
              (currcore->rlist.current->hdr.pqueue.prio >= currcore->rlist.pqueue.next->prio),
              "priority order violation");

  port_unlock();
}
 80032a4:	e7bc      	b.n	8003220 <Thread1+0x20>
    chSysHalt("SV#4");
 80032a6:	480e      	ldr	r0, [pc, #56]	; (80032e0 <Thread1+0xe0>)
 80032a8:	f7fd fcea 	bl	8000c80 <chSysHalt>
    chSysHalt("SV#5");
 80032ac:	480d      	ldr	r0, [pc, #52]	; (80032e4 <Thread1+0xe4>)
 80032ae:	f7fd fce7 	bl	8000c80 <chSysHalt>
  chDbgAssert((currcore->rlist.pqueue.next == &currcore->rlist.pqueue) ||
 80032b2:	68e2      	ldr	r2, [r4, #12]
 80032b4:	689b      	ldr	r3, [r3, #8]
 80032b6:	6892      	ldr	r2, [r2, #8]
 80032b8:	429a      	cmp	r2, r3
 80032ba:	d2f0      	bcs.n	800329e <Thread1+0x9e>
 80032bc:	480a      	ldr	r0, [pc, #40]	; (80032e8 <Thread1+0xe8>)
 80032be:	f7fd fcdf 	bl	8000c80 <chSysHalt>
 80032c2:	68e2      	ldr	r2, [r4, #12]
 80032c4:	689b      	ldr	r3, [r3, #8]
 80032c6:	6892      	ldr	r2, [r2, #8]
 80032c8:	429a      	cmp	r2, r3
 80032ca:	d2ca      	bcs.n	8003262 <Thread1+0x62>
 80032cc:	e7f6      	b.n	80032bc <Thread1+0xbc>
 80032ce:	bf00      	nop
 80032d0:	20000ec8 	.word	0x20000ec8
 80032d4:	08007328 	.word	0x08007328
 80032d8:	20000de0 	.word	0x20000de0
 80032dc:	40020800 	.word	0x40020800
 80032e0:	080072f4 	.word	0x080072f4
 80032e4:	08007314 	.word	0x08007314
 80032e8:	08007e88 	.word	0x08007e88
 80032ec:	00000000 	.word	0x00000000

080032f0 <chThdExitS>:
  return __sch_get_currthread();
 80032f0:	4d17      	ldr	r5, [pc, #92]	; (8003350 <chThdExitS+0x60>)
 80032f2:	68ec      	ldr	r4, [r5, #12]
void chThdExitS(msg_t msg) {
 80032f4:	b508      	push	{r3, lr}
  return (bool)(lp->next != lp);
 80032f6:	6b23      	ldr	r3, [r4, #48]	; 0x30
  currtp->u.exitcode = msg;
 80032f8:	62e0      	str	r0, [r4, #44]	; 0x2c
  while (unlikely(ch_list_notempty(&currtp->waiting))) {
 80032fa:	f104 0630 	add.w	r6, r4, #48	; 0x30
 80032fe:	429e      	cmp	r6, r3
 8003300:	d108      	bne.n	8003314 <chThdExitS+0x24>
  if (unlikely(currtp->refs == (trefs_t)0)) {
 8003302:	f894 302a 	ldrb.w	r3, [r4, #42]	; 0x2a
 8003306:	b1b3      	cbz	r3, 8003336 <chThdExitS+0x46>
  chSchGoSleepS(CH_STATE_FINAL);
 8003308:	200f      	movs	r0, #15
 800330a:	f7ff fb01 	bl	8002910 <chSchGoSleepS>
  chDbgAssert(false, "zombies apocalypse");
 800330e:	4811      	ldr	r0, [pc, #68]	; (8003354 <chThdExitS+0x64>)
 8003310:	f7fd fcb6 	bl	8000c80 <chSysHalt>
  lp->next = p->next;
 8003314:	681a      	ldr	r2, [r3, #0]
 8003316:	6322      	str	r2, [r4, #48]	; 0x30
  if (unlikely((oip->dbg.isr_cnt < (cnt_t)0) ||
 8003318:	f8d5 208c 	ldr.w	r2, [r5, #140]	; 0x8c
 800331c:	2a00      	cmp	r2, #0
 800331e:	db13      	blt.n	8003348 <chThdExitS+0x58>
 8003320:	f8d5 2090 	ldr.w	r2, [r5, #144]	; 0x90
 8003324:	2a00      	cmp	r2, #0
 8003326:	dd0f      	ble.n	8003348 <chThdExitS+0x58>
  return __sch_ready_behind(tp);
 8003328:	4618      	mov	r0, r3
 800332a:	f7fe fba1 	bl	8001a70 <__sch_ready_behind.isra.0>
  return (bool)(lp->next != lp);
 800332e:	6b23      	ldr	r3, [r4, #48]	; 0x30
  while (unlikely(ch_list_notempty(&currtp->waiting))) {
 8003330:	429e      	cmp	r6, r3
 8003332:	d0e6      	beq.n	8003302 <chThdExitS+0x12>
 8003334:	e7ee      	b.n	8003314 <chThdExitS+0x24>
    if (unlikely(((currtp->flags & CH_FLAG_MODE_MASK) == CH_FLAG_MODE_STATIC))) {
 8003336:	f894 3029 	ldrb.w	r3, [r4, #41]	; 0x29
 800333a:	079b      	lsls	r3, r3, #30
 800333c:	d1e4      	bne.n	8003308 <chThdExitS+0x18>
  p->prev->next = p->next;
 800333e:	e9d4 3204 	ldrd	r3, r2, [r4, #16]
 8003342:	6013      	str	r3, [r2, #0]
  p->next->prev = p->prev;
 8003344:	605a      	str	r2, [r3, #4]
  return p;
 8003346:	e7df      	b.n	8003308 <chThdExitS+0x18>
    chSysHalt("SV#10");
 8003348:	4803      	ldr	r0, [pc, #12]	; (8003358 <chThdExitS+0x68>)
 800334a:	f7fd fc99 	bl	8000c80 <chSysHalt>
 800334e:	bf00      	nop
 8003350:	20000ec8 	.word	0x20000ec8
 8003354:	08007e4c 	.word	0x08007e4c
 8003358:	080072e4 	.word	0x080072e4
 800335c:	00000000 	.word	0x00000000

08003360 <chMtxLockS>:
  if (unlikely((oip->dbg.isr_cnt != (cnt_t)0) ||
 8003360:	4b3c      	ldr	r3, [pc, #240]	; (8003454 <chMtxLockS+0xf4>)
 8003362:	f8d3 208c 	ldr.w	r2, [r3, #140]	; 0x8c
 *
 * @param[in] mp        pointer to the @p mutex_t structure
 *
 * @sclass
 */
void chMtxLockS(mutex_t *mp) {
 8003366:	b570      	push	{r4, r5, r6, lr}
 8003368:	2a00      	cmp	r2, #0
 800336a:	d170      	bne.n	800344e <chMtxLockS+0xee>
 800336c:	f8d3 2090 	ldr.w	r2, [r3, #144]	; 0x90
 8003370:	2a00      	cmp	r2, #0
 8003372:	dd6c      	ble.n	800344e <chMtxLockS+0xee>
 8003374:	4604      	mov	r4, r0

  chDbgCheckClassS();
  chDbgCheck(mp != NULL);

  /* Is the mutex already locked? */
  if (mp->owner != NULL) {
 8003376:	6880      	ldr	r0, [r0, #8]
 8003378:	68dd      	ldr	r5, [r3, #12]
 800337a:	b320      	cbz	r0, 80033c6 <chMtxLockS+0x66>
         priority of the running thread requesting the mutex.*/
      thread_t *tp = mp->owner;

      /* Does the running thread have higher priority than the mutex
         owning thread? */
      while (tp->hdr.pqueue.prio < currtp->hdr.pqueue.prio) {
 800337c:	68aa      	ldr	r2, [r5, #8]
 800337e:	6883      	ldr	r3, [r0, #8]
 8003380:	429a      	cmp	r2, r3
 8003382:	d907      	bls.n	8003394 <chMtxLockS+0x34>
        /* Make priority of thread tp match the running thread's priority.*/
        tp->hdr.pqueue.prio = currtp->hdr.pqueue.prio;

        /* The following states need priority queues reordering.*/
        switch (tp->state) {
 8003384:	f890 3028 	ldrb.w	r3, [r0, #40]	; 0x28
        tp->hdr.pqueue.prio = currtp->hdr.pqueue.prio;
 8003388:	6082      	str	r2, [r0, #8]
        switch (tp->state) {
 800338a:	2b06      	cmp	r3, #6
 800338c:	d03e      	beq.n	800340c <chMtxLockS+0xac>
 800338e:	2b07      	cmp	r3, #7
 8003390:	d028      	beq.n	80033e4 <chMtxLockS+0x84>
 8003392:	b1eb      	cbz	r3, 80033d0 <chMtxLockS+0x70>
/* If the performance code path has been chosen then all the following
   functions are inlined into the various kernel modules.*/
#if CH_CFG_OPTIMIZE_SPEED == TRUE
static inline void ch_sch_prio_insert(ch_queue_t *qp, ch_queue_t *tp) {

  ch_queue_t *cp = qp;
 8003394:	4623      	mov	r3, r4
 8003396:	e003      	b.n	80033a0 <chMtxLockS+0x40>
  do {
    cp = cp->next;
  } while ((cp != qp) &&
 8003398:	6899      	ldr	r1, [r3, #8]
 800339a:	68aa      	ldr	r2, [r5, #8]
 800339c:	4291      	cmp	r1, r2
 800339e:	d302      	bcc.n	80033a6 <chMtxLockS+0x46>
    cp = cp->next;
 80033a0:	681b      	ldr	r3, [r3, #0]
  } while ((cp != qp) &&
 80033a2:	429c      	cmp	r4, r3
 80033a4:	d1f8      	bne.n	8003398 <chMtxLockS+0x38>
           (threadref(cp)->hdr.pqueue.prio >= threadref(tp)->hdr.pqueue.prio));
  tp->next       = cp;
  tp->prev       = cp->prev;
 80033a6:	685a      	ldr	r2, [r3, #4]
      }

      /* Sleep on the mutex.*/
      ch_sch_prio_insert(&mp->queue, &currtp->hdr.queue);
      currtp->u.wtmtxp = mp;
      chSchGoSleepS(CH_STATE_WTMTX);
 80033a8:	2006      	movs	r0, #6
 80033aa:	e9c5 3200 	strd	r3, r2, [r5]
  tp->prev->next = tp;
 80033ae:	6015      	str	r5, [r2, #0]
  cp->prev       = tp;
 80033b0:	605d      	str	r5, [r3, #4]
      currtp->u.wtmtxp = mp;
 80033b2:	62ec      	str	r4, [r5, #44]	; 0x2c
      chSchGoSleepS(CH_STATE_WTMTX);
 80033b4:	f7ff faac 	bl	8002910 <chSchGoSleepS>

      /* It is assumed that the thread performing the unlock operation assigns
         the mutex to this thread.*/
      chDbgAssert(mp->owner == currtp, "not owner");
 80033b8:	68a3      	ldr	r3, [r4, #8]
 80033ba:	42ab      	cmp	r3, r5
 80033bc:	d144      	bne.n	8003448 <chMtxLockS+0xe8>
      chDbgAssert(currtp->mtxlist == mp, "not owned");
 80033be:	6c2b      	ldr	r3, [r5, #64]	; 0x40
 80033c0:	42a3      	cmp	r3, r4
 80033c2:	d141      	bne.n	8003448 <chMtxLockS+0xe8>
    /* It was not owned, inserted in the owned mutexes list.*/
    mp->owner = currtp;
    mp->next = currtp->mtxlist;
    currtp->mtxlist = mp;
  }
}
 80033c4:	bd70      	pop	{r4, r5, r6, pc}
    mp->next = currtp->mtxlist;
 80033c6:	6c2b      	ldr	r3, [r5, #64]	; 0x40
 80033c8:	e9c4 5302 	strd	r5, r3, [r4, #8]
    currtp->mtxlist = mp;
 80033cc:	642c      	str	r4, [r5, #64]	; 0x40
}
 80033ce:	bd70      	pop	{r4, r5, r6, pc}
  p->prev->next = p->next;
 80033d0:	e9d0 3200 	ldrd	r3, r2, [r0]
          tp->state = CH_STATE_CURRENT;
 80033d4:	2101      	movs	r1, #1
 80033d6:	f880 1028 	strb.w	r1, [r0, #40]	; 0x28
 80033da:	6013      	str	r3, [r2, #0]
  p->next->prev = p->prev;
 80033dc:	605a      	str	r2, [r3, #4]
 80033de:	f7fe fb47 	bl	8001a70 <__sch_ready_behind.isra.0>
 80033e2:	e7d7      	b.n	8003394 <chMtxLockS+0x34>
  p->prev->next = p->next;
 80033e4:	e9d0 3200 	ldrd	r3, r2, [r0]
          ch_sch_prio_insert(&tp->u.wtmtxp->queue,
 80033e8:	6ac6      	ldr	r6, [r0, #44]	; 0x2c
 80033ea:	6013      	str	r3, [r2, #0]
  p->next->prev = p->prev;
 80033ec:	605a      	str	r2, [r3, #4]
  ch_queue_t *cp = qp;
 80033ee:	4633      	mov	r3, r6
 80033f0:	e003      	b.n	80033fa <chMtxLockS+0x9a>
  } while ((cp != qp) &&
 80033f2:	6899      	ldr	r1, [r3, #8]
 80033f4:	6882      	ldr	r2, [r0, #8]
 80033f6:	4291      	cmp	r1, r2
 80033f8:	d302      	bcc.n	8003400 <chMtxLockS+0xa0>
    cp = cp->next;
 80033fa:	681b      	ldr	r3, [r3, #0]
  } while ((cp != qp) &&
 80033fc:	429e      	cmp	r6, r3
 80033fe:	d1f8      	bne.n	80033f2 <chMtxLockS+0x92>
  tp->prev       = cp->prev;
 8003400:	685a      	ldr	r2, [r3, #4]
 8003402:	e9c0 3200 	strd	r3, r2, [r0]
  tp->prev->next = tp;
 8003406:	6010      	str	r0, [r2, #0]
  cp->prev       = tp;
 8003408:	6058      	str	r0, [r3, #4]
}
 800340a:	e7c3      	b.n	8003394 <chMtxLockS+0x34>
  p->prev->next = p->next;
 800340c:	e9d0 3200 	ldrd	r3, r2, [r0]
          ch_sch_prio_insert(&tp->u.wtmtxp->queue,
 8003410:	6ac6      	ldr	r6, [r0, #44]	; 0x2c
 8003412:	6013      	str	r3, [r2, #0]
  p->next->prev = p->prev;
 8003414:	605a      	str	r2, [r3, #4]
  ch_queue_t *cp = qp;
 8003416:	4633      	mov	r3, r6
 8003418:	e003      	b.n	8003422 <chMtxLockS+0xc2>
  } while ((cp != qp) &&
 800341a:	6899      	ldr	r1, [r3, #8]
 800341c:	6882      	ldr	r2, [r0, #8]
 800341e:	4291      	cmp	r1, r2
 8003420:	d302      	bcc.n	8003428 <chMtxLockS+0xc8>
    cp = cp->next;
 8003422:	681b      	ldr	r3, [r3, #0]
  } while ((cp != qp) &&
 8003424:	429e      	cmp	r6, r3
 8003426:	d1f8      	bne.n	800341a <chMtxLockS+0xba>
  tp->prev       = cp->prev;
 8003428:	685a      	ldr	r2, [r3, #4]
  tp->next       = cp;
 800342a:	6003      	str	r3, [r0, #0]
  tp->prev       = cp->prev;
 800342c:	6042      	str	r2, [r0, #4]
  tp->prev->next = tp;
 800342e:	6010      	str	r0, [r2, #0]
  cp->prev       = tp;
 8003430:	6058      	str	r0, [r3, #4]
          tp = tp->u.wtmtxp->owner;
 8003432:	68b0      	ldr	r0, [r6, #8]
      while (tp->hdr.pqueue.prio < currtp->hdr.pqueue.prio) {
 8003434:	68aa      	ldr	r2, [r5, #8]
 8003436:	6883      	ldr	r3, [r0, #8]
 8003438:	4293      	cmp	r3, r2
 800343a:	d2ab      	bcs.n	8003394 <chMtxLockS+0x34>
        switch (tp->state) {
 800343c:	f890 3028 	ldrb.w	r3, [r0, #40]	; 0x28
        tp->hdr.pqueue.prio = currtp->hdr.pqueue.prio;
 8003440:	6082      	str	r2, [r0, #8]
        switch (tp->state) {
 8003442:	2b06      	cmp	r3, #6
 8003444:	d1a3      	bne.n	800338e <chMtxLockS+0x2e>
 8003446:	e7e1      	b.n	800340c <chMtxLockS+0xac>
      chDbgAssert(mp->owner == currtp, "not owner");
 8003448:	4803      	ldr	r0, [pc, #12]	; (8003458 <chMtxLockS+0xf8>)
 800344a:	f7fd fc19 	bl	8000c80 <chSysHalt>
    chSysHalt("SV#11");
 800344e:	4803      	ldr	r0, [pc, #12]	; (800345c <chMtxLockS+0xfc>)
 8003450:	f7fd fc16 	bl	8000c80 <chSysHalt>
 8003454:	20000ec8 	.word	0x20000ec8
 8003458:	08007f6c 	.word	0x08007f6c
 800345c:	080072dc 	.word	0x080072dc

08003460 <chSchWakeupS.constprop.0>:
void chSchWakeupS(thread_t *ntp, msg_t msg) {
 8003460:	b570      	push	{r4, r5, r6, lr}
  if (unlikely((oip->dbg.isr_cnt != (cnt_t)0) ||
 8003462:	4c28      	ldr	r4, [pc, #160]	; (8003504 <chSchWakeupS.constprop.0+0xa4>)
 8003464:	f8d4 308c 	ldr.w	r3, [r4, #140]	; 0x8c
 8003468:	2b00      	cmp	r3, #0
 800346a:	d13c      	bne.n	80034e6 <chSchWakeupS.constprop.0+0x86>
 800346c:	f8d4 3090 	ldr.w	r3, [r4, #144]	; 0x90
 8003470:	2b00      	cmp	r3, #0
 8003472:	dd38      	ble.n	80034e6 <chSchWakeupS.constprop.0+0x86>
  chDbgAssert((oip->rlist.pqueue.next == &oip->rlist.pqueue) ||
 8003474:	6823      	ldr	r3, [r4, #0]
 8003476:	4605      	mov	r5, r0
  thread_t *otp = __instance_get_currthread(oip);
 8003478:	68e0      	ldr	r0, [r4, #12]
  chDbgAssert((oip->rlist.pqueue.next == &oip->rlist.pqueue) ||
 800347a:	42a3      	cmp	r3, r4
 800347c:	6882      	ldr	r2, [r0, #8]
 800347e:	d135      	bne.n	80034ec <chSchWakeupS.constprop.0+0x8c>
  ntp->u.rdymsg = msg;
 8003480:	2300      	movs	r3, #0
 8003482:	62eb      	str	r3, [r5, #44]	; 0x2c
  if (unlikely(ntp->hdr.pqueue.prio <= otp->hdr.pqueue.prio)) {
 8003484:	68ab      	ldr	r3, [r5, #8]
 8003486:	4293      	cmp	r3, r2
 8003488:	d936      	bls.n	80034f8 <chSchWakeupS.constprop.0+0x98>
    otp = __sch_ready_ahead(otp);
 800348a:	f7fd fed9 	bl	8001240 <__sch_ready_ahead>
    ntp->state = CH_STATE_CURRENT;
 800348e:	2301      	movs	r3, #1
 8003490:	f885 3028 	strb.w	r3, [r5, #40]	; 0x28
  if ((oip->trace_buffer.suspended & CH_DBG_TRACE_MASK_SWITCH) == 0U) {
 8003494:	f8b4 3094 	ldrh.w	r3, [r4, #148]	; 0x94
    __instance_set_currthread(oip, ntp);
 8003498:	60e5      	str	r5, [r4, #12]
 800349a:	079b      	lsls	r3, r3, #30
    otp = __sch_ready_ahead(otp);
 800349c:	4606      	mov	r6, r0
 800349e:	d50e      	bpl.n	80034be <chSchWakeupS.constprop.0+0x5e>
  __ASM volatile ("MRS %0, psp"  : "=r" (result) );
 80034a0:	f3ef 8309 	mrs	r3, PSP
    chSysSwitch(ntp, otp);
 80034a4:	6a32      	ldr	r2, [r6, #32]
 80034a6:	3b24      	subs	r3, #36	; 0x24
 80034a8:	429a      	cmp	r2, r3
 80034aa:	d805      	bhi.n	80034b8 <chSchWakeupS.constprop.0+0x58>
 80034ac:	4631      	mov	r1, r6
 80034ae:	4628      	mov	r0, r5
}
 80034b0:	e8bd 4070 	ldmia.w	sp!, {r4, r5, r6, lr}
    chSysSwitch(ntp, otp);
 80034b4:	f7fc bf14 	b.w	80002e0 <__port_switch>
 80034b8:	4813      	ldr	r0, [pc, #76]	; (8003508 <chSchWakeupS.constprop.0+0xa8>)
 80034ba:	f7fd fbe1 	bl	8000c80 <chSysHalt>
    oip->trace_buffer.ptr->type        = CH_TRACE_TYPE_SWITCH;
 80034be:	f890 3028 	ldrb.w	r3, [r0, #40]	; 0x28
 80034c2:	f8d4 2098 	ldr.w	r2, [r4, #152]	; 0x98
 80034c6:	6ac1      	ldr	r1, [r0, #44]	; 0x2c
    oip->trace_buffer.ptr->u.sw.wtobjp = otp->u.wtobjp;
 80034c8:	60d1      	str	r1, [r2, #12]
    oip->trace_buffer.ptr->type        = CH_TRACE_TYPE_SWITCH;
 80034ca:	00db      	lsls	r3, r3, #3
 80034cc:	f043 0302 	orr.w	r3, r3, #2
 80034d0:	7013      	strb	r3, [r2, #0]
    oip->trace_buffer.ptr->u.sw.ntp    = ntp;
 80034d2:	6095      	str	r5, [r2, #8]
    trace_next(oip);
 80034d4:	f7fd fbb4 	bl	8000c40 <trace_next.constprop.0>
 80034d8:	f3ef 8309 	mrs	r3, PSP
 80034dc:	6a32      	ldr	r2, [r6, #32]
 80034de:	3b24      	subs	r3, #36	; 0x24
 80034e0:	429a      	cmp	r2, r3
 80034e2:	d9e3      	bls.n	80034ac <chSchWakeupS.constprop.0+0x4c>
 80034e4:	e7e8      	b.n	80034b8 <chSchWakeupS.constprop.0+0x58>
    chSysHalt("SV#11");
 80034e6:	4809      	ldr	r0, [pc, #36]	; (800350c <chSchWakeupS.constprop.0+0xac>)
 80034e8:	f7fd fbca 	bl	8000c80 <chSysHalt>
  chDbgAssert((oip->rlist.pqueue.next == &oip->rlist.pqueue) ||
 80034ec:	689b      	ldr	r3, [r3, #8]
 80034ee:	429a      	cmp	r2, r3
 80034f0:	d2c6      	bcs.n	8003480 <chSchWakeupS.constprop.0+0x20>
 80034f2:	4807      	ldr	r0, [pc, #28]	; (8003510 <chSchWakeupS.constprop.0+0xb0>)
 80034f4:	f7fd fbc4 	bl	8000c80 <chSysHalt>
    (void) __sch_ready_behind(ntp);
 80034f8:	4628      	mov	r0, r5
}
 80034fa:	e8bd 4070 	ldmia.w	sp!, {r4, r5, r6, lr}
    (void) __sch_ready_behind(ntp);
 80034fe:	f7fe bab7 	b.w	8001a70 <__sch_ready_behind.isra.0>
 8003502:	bf00      	nop
 8003504:	20000ec8 	.word	0x20000ec8
 8003508:	08007304 	.word	0x08007304
 800350c:	080072dc 	.word	0x080072dc
 8003510:	08007e18 	.word	0x08007e18
	...

08003520 <chprintf>:
 * @return              The number of bytes that would have been
 *                      written to @p chp if no stream error occurs
 *
 * @api
 */
int chprintf(BaseSequentialStream *chp, const char *fmt, ...) {
 8003520:	b40e      	push	{r1, r2, r3}
 8003522:	e92d 4ff0 	stmdb	sp!, {r4, r5, r6, r7, r8, r9, sl, fp, lr}
 8003526:	b086      	sub	sp, #24
 8003528:	ab0f      	add	r3, sp, #60	; 0x3c
 800352a:	f853 6b04 	ldr.w	r6, [r3], #4
  va_list ap;
  int formatted_bytes;

  va_start(ap, fmt);
 800352e:	9302      	str	r3, [sp, #8]
    c = *fmt++;
 8003530:	4635      	mov	r5, r6
 8003532:	9301      	str	r3, [sp, #4]
 8003534:	f815 1b01 	ldrb.w	r1, [r5], #1
    if (c == 0) {
 8003538:	2900      	cmp	r1, #0
 800353a:	f000 8201 	beq.w	8003940 <chprintf+0x420>
 800353e:	4604      	mov	r4, r0
  int n = 0;
 8003540:	f04f 0900 	mov.w	r9, #0
 8003544:	e00c      	b.n	8003560 <chprintf+0x40>
      streamPut(chp, (uint8_t)c);
 8003546:	6823      	ldr	r3, [r4, #0]
 8003548:	4620      	mov	r0, r4
 800354a:	68db      	ldr	r3, [r3, #12]
 800354c:	4798      	blx	r3
      n++;
 800354e:	f109 0901 	add.w	r9, r9, #1
      continue;
 8003552:	462e      	mov	r6, r5
    c = *fmt++;
 8003554:	4635      	mov	r5, r6
 8003556:	f815 1b01 	ldrb.w	r1, [r5], #1
    if (c == 0) {
 800355a:	2900      	cmp	r1, #0
 800355c:	f000 80d9 	beq.w	8003712 <chprintf+0x1f2>
    if (c != '%') {
 8003560:	2925      	cmp	r1, #37	; 0x25
 8003562:	d1f0      	bne.n	8003546 <chprintf+0x26>
    if (*fmt == '-') {
 8003564:	7873      	ldrb	r3, [r6, #1]
 8003566:	2b2d      	cmp	r3, #45	; 0x2d
      fmt++;
 8003568:	bf04      	itt	eq
 800356a:	1cb5      	addeq	r5, r6, #2
      left_align = true;
 800356c:	f04f 0c01 	moveq.w	ip, #1
    if (*fmt == '+') {
 8003570:	782b      	ldrb	r3, [r5, #0]
    left_align = false;
 8003572:	bf18      	it	ne
 8003574:	f04f 0c00 	movne.w	ip, #0
    if (*fmt == '+') {
 8003578:	2b2b      	cmp	r3, #43	; 0x2b
    if (*fmt == '0') {
 800357a:	bf03      	ittte	eq
 800357c:	786b      	ldrbeq	r3, [r5, #1]
      do_sign = true;
 800357e:	f04f 0e01 	moveq.w	lr, #1
      fmt++;
 8003582:	3501      	addeq	r5, #1
    do_sign = false;
 8003584:	f04f 0e00 	movne.w	lr, #0
    if (*fmt == '0') {
 8003588:	2b30      	cmp	r3, #48	; 0x30
      fmt++;
 800358a:	bf03      	ittte	eq
 800358c:	3501      	addeq	r5, #1
      filler = '0';
 800358e:	461f      	moveq	r7, r3
    if ( *fmt == '*') {
 8003590:	782b      	ldrbeq	r3, [r5, #0]
    filler = ' ';
 8003592:	2720      	movne	r7, #32
    if ( *fmt == '*') {
 8003594:	2b2a      	cmp	r3, #42	; 0x2a
 8003596:	d149      	bne.n	800362c <chprintf+0x10c>
      c = *fmt++;
 8003598:	786b      	ldrb	r3, [r5, #1]
      width = va_arg(ap, int);
 800359a:	f8dd b004 	ldr.w	fp, [sp, #4]
    if (c == '.') {
 800359e:	2b2e      	cmp	r3, #46	; 0x2e
      width = va_arg(ap, int);
 80035a0:	f85b 2b04 	ldr.w	r2, [fp], #4
      c = *fmt++;
 80035a4:	f105 0602 	add.w	r6, r5, #2
    if (c == '.') {
 80035a8:	d056      	beq.n	8003658 <chprintf+0x138>
    precision = 0;
 80035aa:	2000      	movs	r0, #0
    if (c == 'l' || c == 'L') {
 80035ac:	f003 01df 	and.w	r1, r3, #223	; 0xdf
 80035b0:	294c      	cmp	r1, #76	; 0x4c
 80035b2:	d05f      	beq.n	8003674 <chprintf+0x154>
    switch (c) {
 80035b4:	f1a3 0544 	sub.w	r5, r3, #68	; 0x44
 80035b8:	2d34      	cmp	r5, #52	; 0x34
 80035ba:	f200 80b0 	bhi.w	800371e <chprintf+0x1fe>
 80035be:	e8df f015 	tbh	[pc, r5, lsl #1]
 80035c2:	00dc      	.short	0x00dc
 80035c4:	00ae00ae 	.word	0x00ae00ae
 80035c8:	00ae00ae 	.word	0x00ae00ae
 80035cc:	00ae00dc 	.word	0x00ae00dc
 80035d0:	00ae00ae 	.word	0x00ae00ae
 80035d4:	00ae00ae 	.word	0x00ae00ae
 80035d8:	0112014d 	.word	0x0112014d
 80035dc:	00ae00ae 	.word	0x00ae00ae
 80035e0:	00ae00ae 	.word	0x00ae00ae
 80035e4:	00ae01b4 	.word	0x00ae01b4
 80035e8:	011200ae 	.word	0x011200ae
 80035ec:	00ae00ae 	.word	0x00ae00ae
 80035f0:	00ae00ae 	.word	0x00ae00ae
 80035f4:	00ae00ae 	.word	0x00ae00ae
 80035f8:	00ae00ae 	.word	0x00ae00ae
 80035fc:	00ae00ae 	.word	0x00ae00ae
 8003600:	00dc016f 	.word	0x00dc016f
 8003604:	00ae00ae 	.word	0x00ae00ae
 8003608:	00ae00ae 	.word	0x00ae00ae
 800360c:	00ae00dc 	.word	0x00ae00dc
 8003610:	00ae00ae 	.word	0x00ae00ae
 8003614:	00ae00ae 	.word	0x00ae00ae
 8003618:	0112014d 	.word	0x0112014d
 800361c:	00ae00ae 	.word	0x00ae00ae
 8003620:	00ae0150 	.word	0x00ae0150
 8003624:	00ae01b4 	.word	0x00ae01b4
 8003628:	011200ae 	.word	0x011200ae
        c = *fmt++;
 800362c:	1c6e      	adds	r6, r5, #1
        if (c == 0) {
 800362e:	2b00      	cmp	r3, #0
 8003630:	d06f      	beq.n	8003712 <chprintf+0x1f2>
      width = 0;
 8003632:	2200      	movs	r2, #0
 8003634:	e005      	b.n	8003642 <chprintf+0x122>
        c = *fmt++;
 8003636:	f816 3b01 	ldrb.w	r3, [r6], #1
          width = width * 10 + c;
 800363a:	eb01 0240 	add.w	r2, r1, r0, lsl #1
        if (c == 0) {
 800363e:	2b00      	cmp	r3, #0
 8003640:	d067      	beq.n	8003712 <chprintf+0x1f2>
        if (c >= '0' && c <= '9') {
 8003642:	f1a3 0130 	sub.w	r1, r3, #48	; 0x30
 8003646:	b2c9      	uxtb	r1, r1
 8003648:	2909      	cmp	r1, #9
          width = width * 10 + c;
 800364a:	eb02 0082 	add.w	r0, r2, r2, lsl #2
        if (c >= '0' && c <= '9') {
 800364e:	d9f2      	bls.n	8003636 <chprintf+0x116>
    if (c == '.') {
 8003650:	2b2e      	cmp	r3, #46	; 0x2e
 8003652:	f8dd b004 	ldr.w	fp, [sp, #4]
 8003656:	d1a8      	bne.n	80035aa <chprintf+0x8a>
      c = *fmt++;
 8003658:	7833      	ldrb	r3, [r6, #0]
      if (c == 0) {
 800365a:	2b00      	cmp	r3, #0
 800365c:	d059      	beq.n	8003712 <chprintf+0x1f2>
      if (c == '*') {
 800365e:	2b2a      	cmp	r3, #42	; 0x2a
 8003660:	d147      	bne.n	80036f2 <chprintf+0x1d2>
        c = *fmt++;
 8003662:	7873      	ldrb	r3, [r6, #1]
        precision = va_arg(ap, int);
 8003664:	f85b 0b04 	ldr.w	r0, [fp], #4
    if (c == 'l' || c == 'L') {
 8003668:	f003 01df 	and.w	r1, r3, #223	; 0xdf
 800366c:	294c      	cmp	r1, #76	; 0x4c
        c = *fmt++;
 800366e:	f106 0602 	add.w	r6, r6, #2
    if (c == 'l' || c == 'L') {
 8003672:	d19f      	bne.n	80035b4 <chprintf+0x94>
      c = *fmt++;
 8003674:	f816 3b01 	ldrb.w	r3, [r6], #1
      if (c == 0) {
 8003678:	2b00      	cmp	r3, #0
 800367a:	d04a      	beq.n	8003712 <chprintf+0x1f2>
    switch (c) {
 800367c:	f1a3 0144 	sub.w	r1, r3, #68	; 0x44
 8003680:	2934      	cmp	r1, #52	; 0x34
 8003682:	d84c      	bhi.n	800371e <chprintf+0x1fe>
 8003684:	e8df f011 	tbh	[pc, r1, lsl #1]
 8003688:	004b0079 	.word	0x004b0079
 800368c:	004b004b 	.word	0x004b004b
 8003690:	0079004b 	.word	0x0079004b
 8003694:	004b004b 	.word	0x004b004b
 8003698:	004b004b 	.word	0x004b004b
 800369c:	00ea004b 	.word	0x00ea004b
 80036a0:	004b00af 	.word	0x004b00af
 80036a4:	004b004b 	.word	0x004b004b
 80036a8:	0151004b 	.word	0x0151004b
 80036ac:	004b004b 	.word	0x004b004b
 80036b0:	004b00af 	.word	0x004b00af
 80036b4:	004b004b 	.word	0x004b004b
 80036b8:	004b004b 	.word	0x004b004b
 80036bc:	004b004b 	.word	0x004b004b
 80036c0:	004b004b 	.word	0x004b004b
 80036c4:	010c004b 	.word	0x010c004b
 80036c8:	004b0079 	.word	0x004b0079
 80036cc:	004b004b 	.word	0x004b004b
 80036d0:	0079004b 	.word	0x0079004b
 80036d4:	004b004b 	.word	0x004b004b
 80036d8:	004b004b 	.word	0x004b004b
 80036dc:	00ea004b 	.word	0x00ea004b
 80036e0:	004b00af 	.word	0x004b00af
 80036e4:	00ed004b 	.word	0x00ed004b
 80036e8:	0151004b 	.word	0x0151004b
 80036ec:	004b004b 	.word	0x004b004b
 80036f0:	00af      	.short	0x00af
      c = *fmt++;
 80036f2:	3601      	adds	r6, #1
    precision = 0;
 80036f4:	2000      	movs	r0, #0
        while (c >= '0' && c <= '9') {
 80036f6:	f1a3 0130 	sub.w	r1, r3, #48	; 0x30
 80036fa:	b2c9      	uxtb	r1, r1
 80036fc:	2909      	cmp	r1, #9
          precision = precision * 10 + c;
 80036fe:	eb00 0580 	add.w	r5, r0, r0, lsl #2
        while (c >= '0' && c <= '9') {
 8003702:	f63f af53 	bhi.w	80035ac <chprintf+0x8c>
          c = *fmt++;
 8003706:	f816 3b01 	ldrb.w	r3, [r6], #1
          precision = precision * 10 + c;
 800370a:	eb01 0045 	add.w	r0, r1, r5, lsl #1
          if (c == 0) {
 800370e:	2b00      	cmp	r3, #0
 8003710:	d1f1      	bne.n	80036f6 <chprintf+0x1d6>
  formatted_bytes = chvprintf(chp, fmt, ap);
  va_end(ap);

  return formatted_bytes;
}
 8003712:	4648      	mov	r0, r9
 8003714:	b006      	add	sp, #24
 8003716:	e8bd 4ff0 	ldmia.w	sp!, {r4, r5, r6, r7, r8, r9, sl, fp, lr}
 800371a:	b003      	add	sp, #12
 800371c:	4770      	bx	lr
      *p++ = c;
 800371e:	f88d 300c 	strb.w	r3, [sp, #12]
      break;
 8003722:	3a01      	subs	r2, #1
 8003724:	f8cd b004 	str.w	fp, [sp, #4]
    if ((width -= i) < 0) {
 8003728:	ea22 7ae2 	bic.w	sl, r2, r2, asr #31
    if (left_align == false) {
 800372c:	f1bc 0f00 	cmp.w	ip, #0
 8003730:	d104      	bne.n	800373c <chprintf+0x21c>
    if (width < 0) {
 8003732:	2a00      	cmp	r2, #0
      width = -width;
 8003734:	f1ca 0a00 	rsb	sl, sl, #0
    if (width < 0) {
 8003738:	f300 80e4 	bgt.w	8003904 <chprintf+0x3e4>
    if (left_align == false) {
 800373c:	2500      	movs	r5, #0
 800373e:	f10d 0b0c 	add.w	fp, sp, #12
 8003742:	f105 0801 	add.w	r8, r5, #1
 8003746:	44d8      	add	r8, fp
      streamPut(chp, (uint8_t)*s++);
 8003748:	6823      	ldr	r3, [r4, #0]
 800374a:	f81b 1b01 	ldrb.w	r1, [fp], #1
 800374e:	68db      	ldr	r3, [r3, #12]
 8003750:	4620      	mov	r0, r4
 8003752:	4798      	blx	r3
    while (--i >= 0) {
 8003754:	45c3      	cmp	fp, r8
 8003756:	d1f7      	bne.n	8003748 <chprintf+0x228>
 8003758:	f109 0901 	add.w	r9, r9, #1
      n++;
 800375c:	44a9      	add	r9, r5
    while (width) {
 800375e:	f1ba 0f00 	cmp.w	sl, #0
 8003762:	f43f aef7 	beq.w	8003554 <chprintf+0x34>
 8003766:	4655      	mov	r5, sl
      streamPut(chp, (uint8_t)filler);
 8003768:	6823      	ldr	r3, [r4, #0]
 800376a:	4639      	mov	r1, r7
 800376c:	68db      	ldr	r3, [r3, #12]
 800376e:	4620      	mov	r0, r4
 8003770:	4798      	blx	r3
    while (width) {
 8003772:	3d01      	subs	r5, #1
 8003774:	d1f8      	bne.n	8003768 <chprintf+0x248>
      n++;
 8003776:	44d1      	add	r9, sl
 8003778:	e6ec      	b.n	8003554 <chprintf+0x34>
        l = va_arg(ap, int);
 800377a:	465b      	mov	r3, fp
 800377c:	f853 0b04 	ldr.w	r0, [r3], #4
 8003780:	9301      	str	r3, [sp, #4]
      if (l < 0) {
 8003782:	2800      	cmp	r0, #0
 8003784:	f2c0 80b6 	blt.w	80038f4 <chprintf+0x3d4>
        if (do_sign) {
 8003788:	f1be 0f00 	cmp.w	lr, #0
 800378c:	f000 80d5 	beq.w	800393a <chprintf+0x41a>
          *p++ = '+';
 8003790:	232b      	movs	r3, #43	; 0x2b
 8003792:	f88d 300c 	strb.w	r3, [sp, #12]
 8003796:	f10d 0e0d 	add.w	lr, sp, #13
 800379a:	ab03      	add	r3, sp, #12
  q = p + MAX_FILLER;
 800379c:	f10e 0b0b 	add.w	fp, lr, #11
 80037a0:	465d      	mov	r5, fp
    i = (int)(l % radix);
 80037a2:	496b      	ldr	r1, [pc, #428]	; (8003950 <chprintf+0x430>)
 80037a4:	fba1 8100 	umull	r8, r1, r1, r0
 80037a8:	08c9      	lsrs	r1, r1, #3
 80037aa:	eb01 0a81 	add.w	sl, r1, r1, lsl #2
 80037ae:	4688      	mov	r8, r1
 80037b0:	eba0 014a 	sub.w	r1, r0, sl, lsl #1
    i += '0';
 80037b4:	3130      	adds	r1, #48	; 0x30
    i = (int)(l % radix);
 80037b6:	4682      	mov	sl, r0
    *--q = i;
 80037b8:	b2c9      	uxtb	r1, r1
  } while ((ll /= radix) != 0);
 80037ba:	f1ba 0f09 	cmp.w	sl, #9
    *--q = i;
 80037be:	f805 1d01 	strb.w	r1, [r5, #-1]!
    l /= radix;
 80037c2:	4640      	mov	r0, r8
  } while ((ll /= radix) != 0);
 80037c4:	dced      	bgt.n	80037a2 <chprintf+0x282>
  i = (int)(p + MAX_FILLER - q);
 80037c6:	ebab 0005 	sub.w	r0, fp, r5
 80037ca:	4470      	add	r0, lr
 80037cc:	e001      	b.n	80037d2 <chprintf+0x2b2>
    *p++ = *q++;
 80037ce:	f815 1f01 	ldrb.w	r1, [r5, #1]!
 80037d2:	f80e 1b01 	strb.w	r1, [lr], #1
  while (--i);
 80037d6:	4586      	cmp	lr, r0
 80037d8:	d1f9      	bne.n	80037ce <chprintf+0x2ae>
    i = (int)(p - s);
 80037da:	ebae 0503 	sub.w	r5, lr, r3
    if ((width -= i) < 0) {
 80037de:	1b52      	subs	r2, r2, r5
    s = tmpbuf;
 80037e0:	469b      	mov	fp, r3
        i--;
 80037e2:	3d01      	subs	r5, #1
 80037e4:	e02d      	b.n	8003842 <chprintf+0x322>
    switch (c) {
 80037e6:	f04f 0810 	mov.w	r8, #16
        l = va_arg(ap, unsigned int);
 80037ea:	465b      	mov	r3, fp
 80037ec:	f853 0b04 	ldr.w	r0, [r3], #4
 80037f0:	9301      	str	r3, [sp, #4]
  q = p + MAX_FILLER;
 80037f2:	f10d 0317 	add.w	r3, sp, #23
 80037f6:	e000      	b.n	80037fa <chprintf+0x2da>
 80037f8:	462b      	mov	r3, r5
    i = (int)(l % radix);
 80037fa:	4686      	mov	lr, r0
 80037fc:	fbb0 f0f8 	udiv	r0, r0, r8
 8003800:	fb08 ea10 	mls	sl, r8, r0, lr
    i += '0';
 8003804:	f10a 0130 	add.w	r1, sl, #48	; 0x30
    if (i > '9') {
 8003808:	2939      	cmp	r1, #57	; 0x39
      i += 'A' - '0' - 10;
 800380a:	bfc8      	it	gt
 800380c:	f10a 0137 	addgt.w	r1, sl, #55	; 0x37
    *--q = i;
 8003810:	b2c9      	uxtb	r1, r1
  } while ((ll /= radix) != 0);
 8003812:	45c6      	cmp	lr, r8
    *--q = i;
 8003814:	f103 35ff 	add.w	r5, r3, #4294967295	; 0xffffffff
 8003818:	f803 1c01 	strb.w	r1, [r3, #-1]
  } while ((ll /= radix) != 0);
 800381c:	d2ec      	bcs.n	80037f8 <chprintf+0x2d8>
  i = (int)(p + MAX_FILLER - q);
 800381e:	f10d 0017 	add.w	r0, sp, #23
 8003822:	1b45      	subs	r5, r0, r5
 8003824:	4618      	mov	r0, r3
 8003826:	ab03      	add	r3, sp, #12
 8003828:	f10d 0817 	add.w	r8, sp, #23
 800382c:	469e      	mov	lr, r3
 800382e:	e001      	b.n	8003834 <chprintf+0x314>
    *p++ = *q++;
 8003830:	f810 1b01 	ldrb.w	r1, [r0], #1
 8003834:	f80e 1b01 	strb.w	r1, [lr], #1
  while (--i);
 8003838:	4540      	cmp	r0, r8
 800383a:	d1f9      	bne.n	8003830 <chprintf+0x310>
    if ((width -= i) < 0) {
 800383c:	1b52      	subs	r2, r2, r5
    s = tmpbuf;
 800383e:	469b      	mov	fp, r3
        i--;
 8003840:	3d01      	subs	r5, #1
    if ((width -= i) < 0) {
 8003842:	ea22 7ae2 	bic.w	sl, r2, r2, asr #31
    if (left_align == false) {
 8003846:	f1bc 0f00 	cmp.w	ip, #0
 800384a:	d103      	bne.n	8003854 <chprintf+0x334>
    if (width < 0) {
 800384c:	2a00      	cmp	r2, #0
      width = -width;
 800384e:	f1ca 0a00 	rsb	sl, sl, #0
    if (width < 0) {
 8003852:	dc2e      	bgt.n	80038b2 <chprintf+0x392>
    while (--i >= 0) {
 8003854:	2d00      	cmp	r5, #0
 8003856:	f6bf af74 	bge.w	8003742 <chprintf+0x222>
 800385a:	e780      	b.n	800375e <chprintf+0x23e>
    switch (c) {
 800385c:	f04f 0808 	mov.w	r8, #8
 8003860:	e7c3      	b.n	80037ea <chprintf+0x2ca>
      if ((s = va_arg(ap, char *)) == 0) {
 8003862:	465b      	mov	r3, fp
 8003864:	f853 bb04 	ldr.w	fp, [r3], #4
 8003868:	9301      	str	r3, [sp, #4]
 800386a:	f1bb 0f00 	cmp.w	fp, #0
 800386e:	d05f      	beq.n	8003930 <chprintf+0x410>
      for (p = s; *p && (--precision >= 0); p++)
 8003870:	f89b 1000 	ldrb.w	r1, [fp]
      if (precision == 0) {
 8003874:	2800      	cmp	r0, #0
 8003876:	d14a      	bne.n	800390e <chprintf+0x3ee>
      for (p = s; *p && (--precision >= 0); p++)
 8003878:	2900      	cmp	r1, #0
 800387a:	d04b      	beq.n	8003914 <chprintf+0x3f4>
 800387c:	f647 70fe 	movw	r0, #32766	; 0x7ffe
 8003880:	4659      	mov	r1, fp
 8003882:	e001      	b.n	8003888 <chprintf+0x368>
 8003884:	42c5      	cmn	r5, r0
 8003886:	d405      	bmi.n	8003894 <chprintf+0x374>
 8003888:	f811 3f01 	ldrb.w	r3, [r1, #1]!
 800388c:	ebab 0501 	sub.w	r5, fp, r1
 8003890:	2b00      	cmp	r3, #0
 8003892:	d1f7      	bne.n	8003884 <chprintf+0x364>
    i = (int)(p - s);
 8003894:	eba1 010b 	sub.w	r1, r1, fp
    if ((width -= i) < 0) {
 8003898:	1a52      	subs	r2, r2, r1
        i--;
 800389a:	1e4d      	subs	r5, r1, #1
      filler = ' ';
 800389c:	2720      	movs	r7, #32
 800389e:	e7d0      	b.n	8003842 <chprintf+0x322>
      *p++ = va_arg(ap, int);
 80038a0:	f85b 3b04 	ldr.w	r3, [fp], #4
 80038a4:	f8cd b004 	str.w	fp, [sp, #4]
 80038a8:	3a01      	subs	r2, #1
 80038aa:	f88d 300c 	strb.w	r3, [sp, #12]
      filler = ' ';
 80038ae:	2720      	movs	r7, #32
      break;
 80038b0:	e73a      	b.n	8003728 <chprintf+0x208>
      width = -width;
 80038b2:	46d0      	mov	r8, sl
      if ((*s == '-' || *s == '+') && filler == '0') {
 80038b4:	f89b 1000 	ldrb.w	r1, [fp]
 80038b8:	292d      	cmp	r1, #45	; 0x2d
 80038ba:	d00f      	beq.n	80038dc <chprintf+0x3bc>
 80038bc:	292b      	cmp	r1, #43	; 0x2b
 80038be:	d00d      	beq.n	80038dc <chprintf+0x3bc>
        streamPut(chp, (uint8_t)filler);
 80038c0:	6823      	ldr	r3, [r4, #0]
 80038c2:	4639      	mov	r1, r7
 80038c4:	68db      	ldr	r3, [r3, #12]
 80038c6:	4620      	mov	r0, r4
 80038c8:	4798      	blx	r3
      } while (++width != 0);
 80038ca:	f11a 0a01 	adds.w	sl, sl, #1
 80038ce:	d1f7      	bne.n	80038c0 <chprintf+0x3a0>
    while (--i >= 0) {
 80038d0:	2d00      	cmp	r5, #0
 80038d2:	eba9 0908 	sub.w	r9, r9, r8
 80038d6:	f6bf af34 	bge.w	8003742 <chprintf+0x222>
 80038da:	e63b      	b.n	8003554 <chprintf+0x34>
      if ((*s == '-' || *s == '+') && filler == '0') {
 80038dc:	2f30      	cmp	r7, #48	; 0x30
 80038de:	d1ef      	bne.n	80038c0 <chprintf+0x3a0>
        streamPut(chp, (uint8_t)*s++);
 80038e0:	6822      	ldr	r2, [r4, #0]
 80038e2:	4620      	mov	r0, r4
 80038e4:	68d2      	ldr	r2, [r2, #12]
 80038e6:	f10b 0b01 	add.w	fp, fp, #1
        n++;
 80038ea:	f109 0901 	add.w	r9, r9, #1
    while (--i >= 0) {
 80038ee:	3d01      	subs	r5, #1
        streamPut(chp, (uint8_t)*s++);
 80038f0:	4790      	blx	r2
        i--;
 80038f2:	e7e5      	b.n	80038c0 <chprintf+0x3a0>
        *p++ = '-';
 80038f4:	232d      	movs	r3, #45	; 0x2d
 80038f6:	f88d 300c 	strb.w	r3, [sp, #12]
        l = -l;
 80038fa:	4240      	negs	r0, r0
        *p++ = '-';
 80038fc:	f10d 0e0d 	add.w	lr, sp, #13
 8003900:	ab03      	add	r3, sp, #12
 8003902:	e74b      	b.n	800379c <chprintf+0x27c>
    if (width < 0) {
 8003904:	4665      	mov	r5, ip
      width = -width;
 8003906:	46d0      	mov	r8, sl
    if (width < 0) {
 8003908:	f10d 0b0c 	add.w	fp, sp, #12
 800390c:	e7d2      	b.n	80038b4 <chprintf+0x394>
      for (p = s; *p && (--precision >= 0); p++)
 800390e:	b109      	cbz	r1, 8003914 <chprintf+0x3f4>
 8003910:	3801      	subs	r0, #1
 8003912:	d5b5      	bpl.n	8003880 <chprintf+0x360>
    if ((width -= i) < 0) {
 8003914:	ea22 7ae2 	bic.w	sl, r2, r2, asr #31
    if (left_align == false) {
 8003918:	f1bc 0f00 	cmp.w	ip, #0
 800391c:	d103      	bne.n	8003926 <chprintf+0x406>
    if (width < 0) {
 800391e:	2a00      	cmp	r2, #0
      width = -width;
 8003920:	f1ca 0a00 	rsb	sl, sl, #0
    if (width < 0) {
 8003924:	dc0e      	bgt.n	8003944 <chprintf+0x424>
    if (left_align == false) {
 8003926:	2720      	movs	r7, #32
 8003928:	e719      	b.n	800375e <chprintf+0x23e>
    switch (c) {
 800392a:	f04f 080a 	mov.w	r8, #10
 800392e:	e75c      	b.n	80037ea <chprintf+0x2ca>
        s = "(null)";
 8003930:	f8df b020 	ldr.w	fp, [pc, #32]	; 8003954 <chprintf+0x434>
      if (precision == 0) {
 8003934:	2800      	cmp	r0, #0
 8003936:	d0a1      	beq.n	800387c <chprintf+0x35c>
 8003938:	e7ea      	b.n	8003910 <chprintf+0x3f0>
    p = tmpbuf;
 800393a:	ab03      	add	r3, sp, #12
 800393c:	469e      	mov	lr, r3
 800393e:	e72d      	b.n	800379c <chprintf+0x27c>
  int n = 0;
 8003940:	4689      	mov	r9, r1
  return formatted_bytes;
 8003942:	e6e6      	b.n	8003712 <chprintf+0x1f2>
      width = -width;
 8003944:	46d0      	mov	r8, sl
    if (width < 0) {
 8003946:	2720      	movs	r7, #32
 8003948:	f04f 35ff 	mov.w	r5, #4294967295	; 0xffffffff
 800394c:	e7b2      	b.n	80038b4 <chprintf+0x394>
 800394e:	bf00      	nop
 8003950:	cccccccd 	.word	0xcccccccd
 8003954:	08007330 	.word	0x08007330
	...

08003960 <cmd_gpib_cmd>:
  char *name = argv[argc-1];
 8003960:	f101 4380 	add.w	r3, r1, #1073741824	; 0x40000000
 8003964:	3b01      	subs	r3, #1
void cmd_gpib_cmd(BaseSequentialStream *chp, int argc, char *argv[]) {
 8003966:	e92d 41f0 	stmdb	sp!, {r4, r5, r6, r7, r8, lr}
 800396a:	460e      	mov	r6, r1
 800396c:	4615      	mov	r5, r2
  chprintf(chp, "GPIB Command: %s len: %d\r\n", name, argc);
 800396e:	490c      	ldr	r1, [pc, #48]	; (80039a0 <cmd_gpib_cmd+0x40>)
 8003970:	f852 2023 	ldr.w	r2, [r2, r3, lsl #2]
 8003974:	4633      	mov	r3, r6
void cmd_gpib_cmd(BaseSequentialStream *chp, int argc, char *argv[]) {
 8003976:	4607      	mov	r7, r0
  chprintf(chp, "GPIB Command: %s len: %d\r\n", name, argc);
 8003978:	f7ff fdd2 	bl	8003520 <chprintf>
  for (int i=0;i<argc;i++){
 800397c:	2e00      	cmp	r6, #0
 800397e:	dd0d      	ble.n	800399c <cmd_gpib_cmd+0x3c>
    chprintf(chp, "Argument %d: %s\r\n", i, argv[i]);
 8003980:	f8df 8020 	ldr.w	r8, [pc, #32]	; 80039a4 <cmd_gpib_cmd+0x44>
 8003984:	3d04      	subs	r5, #4
  for (int i=0;i<argc;i++){
 8003986:	2400      	movs	r4, #0
    chprintf(chp, "Argument %d: %s\r\n", i, argv[i]);
 8003988:	4622      	mov	r2, r4
 800398a:	f855 3f04 	ldr.w	r3, [r5, #4]!
 800398e:	4641      	mov	r1, r8
 8003990:	4638      	mov	r0, r7
  for (int i=0;i<argc;i++){
 8003992:	3401      	adds	r4, #1
    chprintf(chp, "Argument %d: %s\r\n", i, argv[i]);
 8003994:	f7ff fdc4 	bl	8003520 <chprintf>
  for (int i=0;i<argc;i++){
 8003998:	42a6      	cmp	r6, r4
 800399a:	d1f5      	bne.n	8003988 <cmd_gpib_cmd+0x28>
}
 800399c:	e8bd 81f0 	ldmia.w	sp!, {r4, r5, r6, r7, r8, pc}
 80039a0:	08007338 	.word	0x08007338
 80039a4:	08007354 	.word	0x08007354
	...

080039b0 <cmd_help>:
void cmd_help(BaseSequentialStream *chp, int argc, char *argv[]) {
 80039b0:	b510      	push	{r4, lr}
    chprintf(chp, "addr 1-30      Tell controller which instrument to address.\n\r");
 80039b2:	4915      	ldr	r1, [pc, #84]	; (8003a08 <cmd_help+0x58>)
void cmd_help(BaseSequentialStream *chp, int argc, char *argv[]) {
 80039b4:	4604      	mov	r4, r0
    chprintf(chp, "addr 1-30      Tell controller which instrument to address.\n\r");
 80039b6:	f7ff fdb3 	bl	8003520 <chprintf>
    chprintf(chp, "auto 0|1       Enable (1) or disable (0) read after write.\n\r");
 80039ba:	4914      	ldr	r1, [pc, #80]	; (8003a0c <cmd_help+0x5c>)
 80039bc:	4620      	mov	r0, r4
 80039be:	f7ff fdaf 	bl	8003520 <chprintf>
    chprintf(chp, "default        Emulates the Arduino AR488 command.\n\r");
 80039c2:	4913      	ldr	r1, [pc, #76]	; (8003a10 <cmd_help+0x60>)
 80039c4:	4620      	mov	r0, r4
 80039c6:	f7ff fdab 	bl	8003520 <chprintf>
    chprintf(chp, "debug N        Set level for debugging messages.\n\r");
 80039ca:	4912      	ldr	r1, [pc, #72]	; (8003a14 <cmd_help+0x64>)
 80039cc:	4620      	mov	r0, r4
 80039ce:	f7ff fda7 	bl	8003520 <chprintf>
    chprintf(chp, "echo 0|1       Enable (1) or disable (0) echoing of characters received from USB port.\n\r");
 80039d2:	4911      	ldr	r1, [pc, #68]	; (8003a18 <cmd_help+0x68>)
 80039d4:	4620      	mov	r0, r4
 80039d6:	f7ff fda3 	bl	8003520 <chprintf>
    chprintf(chp, "eoi 0|1        Enable (1) or disable (0) EOI with last byte.\n\r");
 80039da:	4910      	ldr	r1, [pc, #64]	; (8003a1c <cmd_help+0x6c>)
 80039dc:	4620      	mov	r0, r4
 80039de:	f7ff fd9f 	bl	8003520 <chprintf>
    chprintf(chp, "eos 0|1|2|3    EOS terminator — 0:CR+LF, 1:CR, 2:LF, 3:None.\n\r");
 80039e2:	490f      	ldr	r1, [pc, #60]	; (8003a20 <cmd_help+0x70>)
 80039e4:	4620      	mov	r0, r4
 80039e6:	f7ff fd9b 	bl	8003520 <chprintf>
    chprintf(chp, "eot_char N     End of transmission character ASCII code.\n\r");
 80039ea:	490e      	ldr	r1, [pc, #56]	; (8003a24 <cmd_help+0x74>)
 80039ec:	4620      	mov	r0, r4
 80039ee:	f7ff fd97 	bl	8003520 <chprintf>
    chprintf(chp, "eot_enable N   End of transmission character enable (1) or disable (0).\n\r");
 80039f2:	490d      	ldr	r1, [pc, #52]	; (8003a28 <cmd_help+0x78>)
 80039f4:	4620      	mov	r0, r4
 80039f6:	f7ff fd93 	bl	8003520 <chprintf>
    chprintf(chp, "srq            Query status of SRQ line. 0: Not asserted, 1:Asserted.\n\r");
 80039fa:	4620      	mov	r0, r4
 80039fc:	490b      	ldr	r1, [pc, #44]	; (8003a2c <cmd_help+0x7c>)
}
 80039fe:	e8bd 4010 	ldmia.w	sp!, {r4, lr}
    chprintf(chp, "srq            Query status of SRQ line. 0: Not asserted, 1:Asserted.\n\r");
 8003a02:	f7ff bd8d 	b.w	8003520 <chprintf>
 8003a06:	bf00      	nop
 8003a08:	08007368 	.word	0x08007368
 8003a0c:	080073a8 	.word	0x080073a8
 8003a10:	080073e8 	.word	0x080073e8
 8003a14:	08007420 	.word	0x08007420
 8003a18:	08007454 	.word	0x08007454
 8003a1c:	080074b0 	.word	0x080074b0
 8003a20:	080074f0 	.word	0x080074f0
 8003a24:	08007534 	.word	0x08007534
 8003a28:	08007570 	.word	0x08007570
 8003a2c:	080075bc 	.word	0x080075bc

08003a30 <cmd_ver>:
}

void cmd_ver(BaseSequentialStream *chp, int argc, char *argv[]) {
  (void)* argv;
  (void)argc;
  chprintf(chp, "%s\r\n", PROLOGIX_VERSION);
 8003a30:	4a01      	ldr	r2, [pc, #4]	; (8003a38 <cmd_ver+0x8>)
 8003a32:	4902      	ldr	r1, [pc, #8]	; (8003a3c <cmd_ver+0xc>)
 8003a34:	f7ff bd74 	b.w	8003520 <chprintf>
 8003a38:	08007604 	.word	0x08007604
 8003a3c:	0800762c 	.word	0x0800762c

08003a40 <cmd_srq>:
  palSetLineMode(line, PAL_STM32_MODE_INPUT);
  //palSetLine(line);
}

uint8_t input(uint32_t line){
  palSetLineMode(line, PAL_STM32_MODE_INPUT);
 8003a40:	4b0b      	ldr	r3, [pc, #44]	; (8003a70 <cmd_srq+0x30>)
}

void cmd_srq(BaseSequentialStream *chp, int argc, char *argv[]) {
 8003a42:	b510      	push	{r4, lr}
 8003a44:	4604      	mov	r4, r0
 8003a46:	4618      	mov	r0, r3
 8003a48:	2200      	movs	r2, #0
 8003a4a:	f44f 6180 	mov.w	r1, #1024	; 0x400
 8003a4e:	f7fc feef 	bl	8000830 <_pal_lld_setgroupmode>
  return (palReadLine(line) == PAL_HIGH)?1:0;
 8003a52:	6903      	ldr	r3, [r0, #16]
  (void)* argv;
  (void)argc;
  uint8_t srq = srq_state();
  if (srq)
 8003a54:	055b      	lsls	r3, r3, #21
 8003a56:	d405      	bmi.n	8003a64 <cmd_srq+0x24>
    chprintf(chp, "SRQ Asserted\r\n");
 8003a58:	4620      	mov	r0, r4
 8003a5a:	4906      	ldr	r1, [pc, #24]	; (8003a74 <cmd_srq+0x34>)
  else
    chprintf(chp, "SRQ NOT Asserted\r\n");
}
 8003a5c:	e8bd 4010 	ldmia.w	sp!, {r4, lr}
    chprintf(chp, "SRQ Asserted\r\n");
 8003a60:	f7ff bd5e 	b.w	8003520 <chprintf>
    chprintf(chp, "SRQ NOT Asserted\r\n");
 8003a64:	4620      	mov	r0, r4
 8003a66:	4904      	ldr	r1, [pc, #16]	; (8003a78 <cmd_srq+0x38>)
}
 8003a68:	e8bd 4010 	ldmia.w	sp!, {r4, lr}
    chprintf(chp, "SRQ NOT Asserted\r\n");
 8003a6c:	f7ff bd58 	b.w	8003520 <chprintf>
 8003a70:	40020000 	.word	0x40020000
 8003a74:	08007634 	.word	0x08007634
 8003a78:	08007644 	.word	0x08007644
 8003a7c:	00000000 	.word	0x00000000

08003a80 <cmd_trg>:

void cmd_trg(BaseSequentialStream *chp, int argc, char *argv[]) {
  (void)* argv;
  (void)argc;
  chprintf(chp, "TRG TODO\r\n");
 8003a80:	4901      	ldr	r1, [pc, #4]	; (8003a88 <cmd_trg+0x8>)
 8003a82:	f7ff bd4d 	b.w	8003520 <chprintf>
 8003a86:	bf00      	nop
 8003a88:	08007658 	.word	0x08007658
 8003a8c:	00000000 	.word	0x00000000

08003a90 <cmd_spoll>:
}

void cmd_spoll(BaseSequentialStream *chp, int argc, char *argv[]) {
  (void)* argv;
  (void)argc;
  chprintf(chp, "SPOLL TODO\r\n");
 8003a90:	4901      	ldr	r1, [pc, #4]	; (8003a98 <cmd_spoll+0x8>)
 8003a92:	f7ff bd45 	b.w	8003520 <chprintf>
 8003a96:	bf00      	nop
 8003a98:	08007664 	.word	0x08007664
 8003a9c:	00000000 	.word	0x00000000

08003aa0 <cmd_ifc>:
}

void cmd_ifc(BaseSequentialStream *chp, int argc, char *argv[]) {
  (void)* argv;
  (void)argc;
  chprintf(chp, "IFC TODO\r\n");
 8003aa0:	4901      	ldr	r1, [pc, #4]	; (8003aa8 <cmd_ifc+0x8>)
 8003aa2:	f7ff bd3d 	b.w	8003520 <chprintf>
 8003aa6:	bf00      	nop
 8003aa8:	08007674 	.word	0x08007674
 8003aac:	00000000 	.word	0x00000000

08003ab0 <cmd_llc>:
}

void cmd_llc(BaseSequentialStream *chp, int argc, char *argv[]) {
  (void)* argv;
  (void)argc;
  chprintf(chp, "LLC TODO\r\n");
 8003ab0:	4901      	ldr	r1, [pc, #4]	; (8003ab8 <cmd_llc+0x8>)
 8003ab2:	f7ff bd35 	b.w	8003520 <chprintf>
 8003ab6:	bf00      	nop
 8003ab8:	08007680 	.word	0x08007680
 8003abc:	00000000 	.word	0x00000000

08003ac0 <cmd_loc>:
}

void cmd_loc(BaseSequentialStream *chp, int argc, char *argv[]) {
  (void)* argv;
  (void)argc;
  chprintf(chp, "LOC TODO\r\n");
 8003ac0:	4901      	ldr	r1, [pc, #4]	; (8003ac8 <cmd_loc+0x8>)
 8003ac2:	f7ff bd2d 	b.w	8003520 <chprintf>
 8003ac6:	bf00      	nop
 8003ac8:	0800768c 	.word	0x0800768c
 8003acc:	00000000 	.word	0x00000000

08003ad0 <cmd_clr>:
}

void cmd_clr(BaseSequentialStream *chp, int argc, char *argv[]) {
  (void)* argv;
  (void)argc;
  chprintf(chp, "CLR TODO\r\n");
 8003ad0:	4901      	ldr	r1, [pc, #4]	; (8003ad8 <cmd_clr+0x8>)
 8003ad2:	f7ff bd25 	b.w	8003520 <chprintf>
 8003ad6:	bf00      	nop
 8003ad8:	08007698 	.word	0x08007698
 8003adc:	00000000 	.word	0x00000000

08003ae0 <parse_arguments>:
static char *parse_arguments(char *str, char **saveptr) {
 8003ae0:	b570      	push	{r4, r5, r6, lr}
 8003ae2:	460d      	mov	r5, r1
  if (str != NULL)
 8003ae4:	b1b8      	cbz	r0, 8003b16 <parse_arguments+0x36>
 8003ae6:	4604      	mov	r4, r0
    *saveptr = str;
 8003ae8:	6028      	str	r0, [r5, #0]
  p += strspn(p, " \t");
 8003aea:	4912      	ldr	r1, [pc, #72]	; (8003b34 <parse_arguments+0x54>)
 8003aec:	4620      	mov	r0, r4
 8003aee:	f003 f91d 	bl	8006d2c <strspn>
  if (*p == '"') {
 8003af2:	5c21      	ldrb	r1, [r4, r0]
 8003af4:	2922      	cmp	r1, #34	; 0x22
  p += strspn(p, " \t");
 8003af6:	eb04 0600 	add.w	r6, r4, r0
  if (*p == '"') {
 8003afa:	d012      	beq.n	8003b22 <parse_arguments+0x42>
    *saveptr = strpbrk(p, " \t");
 8003afc:	490d      	ldr	r1, [pc, #52]	; (8003b34 <parse_arguments+0x54>)
 8003afe:	4630      	mov	r0, r6
 8003b00:	f003 f8f8 	bl	8006cf4 <strpbrk>
  if (*saveptr != NULL) {
 8003b04:	b198      	cbz	r0, 8003b2e <parse_arguments+0x4e>
    *(*saveptr)++ = '\0';
 8003b06:	1c42      	adds	r2, r0, #1
 8003b08:	2300      	movs	r3, #0
 8003b0a:	602a      	str	r2, [r5, #0]
 8003b0c:	7003      	strb	r3, [r0, #0]
  return *p != '\0' ? p : NULL;
 8003b0e:	7833      	ldrb	r3, [r6, #0]
 8003b10:	b123      	cbz	r3, 8003b1c <parse_arguments+0x3c>
}
 8003b12:	4630      	mov	r0, r6
 8003b14:	bd70      	pop	{r4, r5, r6, pc}
  p = *saveptr;
 8003b16:	680c      	ldr	r4, [r1, #0]
  if (!p) {
 8003b18:	2c00      	cmp	r4, #0
 8003b1a:	d1e6      	bne.n	8003aea <parse_arguments+0xa>
    return NULL;
 8003b1c:	2600      	movs	r6, #0
}
 8003b1e:	4630      	mov	r0, r6
 8003b20:	bd70      	pop	{r4, r5, r6, pc}
    p++;
 8003b22:	3601      	adds	r6, #1
    *saveptr = strpbrk(p, "\"");
 8003b24:	4630      	mov	r0, r6
 8003b26:	f003 fb61 	bl	80071ec <strchr>
  if (*saveptr != NULL) {
 8003b2a:	2800      	cmp	r0, #0
 8003b2c:	d1eb      	bne.n	8003b06 <parse_arguments+0x26>
 8003b2e:	6028      	str	r0, [r5, #0]
 8003b30:	e7ed      	b.n	8003b0e <parse_arguments+0x2e>
 8003b32:	bf00      	nop
 8003b34:	080076a4 	.word	0x080076a4
	...

08003b40 <cmdexec>:
                      char *name, int argc, char *argv[]) {
 8003b40:	e92d 43f8 	stmdb	sp!, {r3, r4, r5, r6, r7, r8, r9, lr}
  while (scp->sc_name != NULL) {
 8003b44:	6805      	ldr	r5, [r0, #0]
 8003b46:	b1cd      	cbz	r5, 8003b7c <cmdexec+0x3c>
 8003b48:	4606      	mov	r6, r0
 8003b4a:	4688      	mov	r8, r1
 8003b4c:	4691      	mov	r9, r2
 8003b4e:	461f      	mov	r7, r3
 8003b50:	e005      	b.n	8003b5e <cmdexec+0x1e>
    else if (scp->sc_name[0] == '.') {  // execute function with dot as name
 8003b52:	782c      	ldrb	r4, [r5, #0]
 8003b54:	2c2e      	cmp	r4, #46	; 0x2e
 8003b56:	d014      	beq.n	8003b82 <cmdexec+0x42>
  while (scp->sc_name != NULL) {
 8003b58:	f856 5f08 	ldr.w	r5, [r6, #8]!
 8003b5c:	b175      	cbz	r5, 8003b7c <cmdexec+0x3c>
    if (strcmp(scp->sc_name, name) == 0) {
 8003b5e:	4628      	mov	r0, r5
 8003b60:	4649      	mov	r1, r9
 8003b62:	f7fc fbe1 	bl	8000328 <strcmp>
 8003b66:	4604      	mov	r4, r0
 8003b68:	2800      	cmp	r0, #0
 8003b6a:	d1f2      	bne.n	8003b52 <cmdexec+0x12>
      scp->sc_function(chp, argc, argv);
 8003b6c:	4640      	mov	r0, r8
 8003b6e:	6873      	ldr	r3, [r6, #4]
 8003b70:	9a08      	ldr	r2, [sp, #32]
 8003b72:	4639      	mov	r1, r7
 8003b74:	4798      	blx	r3
      return false;
 8003b76:	4620      	mov	r0, r4
}
 8003b78:	e8bd 83f8 	ldmia.w	sp!, {r3, r4, r5, r6, r7, r8, r9, pc}
  return true;
 8003b7c:	2001      	movs	r0, #1
}
 8003b7e:	e8bd 83f8 	ldmia.w	sp!, {r3, r4, r5, r6, r7, r8, r9, pc}
      argv[argc++] = name;              // add the actual name at the end
 8003b82:	9b08      	ldr	r3, [sp, #32]
 8003b84:	f843 9027 	str.w	r9, [r3, r7, lsl #2]
      scp->sc_function(chp, argc, argv);
 8003b88:	461a      	mov	r2, r3
 8003b8a:	4640      	mov	r0, r8
 8003b8c:	6873      	ldr	r3, [r6, #4]
 8003b8e:	1c79      	adds	r1, r7, #1
 8003b90:	4798      	blx	r3
      return false;
 8003b92:	2000      	movs	r0, #0
}
 8003b94:	e8bd 83f8 	ldmia.w	sp!, {r3, r4, r5, r6, r7, r8, r9, pc}
	...

08003ba0 <shellThread>:
/**
 * @brief   Shell thread function.
 *
 * @param[in] p         pointer to a @p BaseSequentialStream object
 */
THD_FUNCTION(shellThread, p) {
 8003ba0:	e92d 4ff0 	stmdb	sp!, {r4, r5, r6, r7, r8, r9, sl, fp, lr}
 8003ba4:	f8df b2bc 	ldr.w	fp, [pc, #700]	; 8003e64 <shellThread+0x2c4>
#if !defined(__CHIBIOS_NIL__)
  chRegSetThreadName(SHELL_THREAD_NAME);
#endif

#if SHELL_USE_HISTORY == TRUE
  *(scfg->sc_histbuf) = 0;
 8003ba8:	6882      	ldr	r2, [r0, #8]
 8003baa:	f8db 100c 	ldr.w	r1, [fp, #12]
  BaseSequentialStream *chp = scfg->sc_channel;
 8003bae:	6805      	ldr	r5, [r0, #0]
THD_FUNCTION(shellThread, p) {
 8003bb0:	b0ab      	sub	sp, #172	; 0xac
 8003bb2:	4604      	mov	r4, r0
  *(scfg->sc_histbuf) = 0;
 8003bb4:	2300      	movs	r3, #0
THD_FUNCTION(shellThread, p) {
 8003bb6:	9004      	str	r0, [sp, #16]
 8003bb8:	48ab      	ldr	r0, [pc, #684]	; (8003e68 <shellThread+0x2c8>)
  const ShellCommand *scp = scfg->sc_commands;
 8003bba:	6866      	ldr	r6, [r4, #4]
 8003bbc:	61c8      	str	r0, [r1, #28]
  *(scfg->sc_histbuf) = 0;
 8003bbe:	7013      	strb	r3, [r2, #0]
  ShellHistory hist = {
                       scfg->sc_histbuf,
 8003bc0:	68a2      	ldr	r2, [r4, #8]
  ShellHistory *shp = &hist;
#else
  ShellHistory *shp = NULL;
#endif

  chprintf(chp, SHELL_NEWLINE_STR);
 8003bc2:	49aa      	ldr	r1, [pc, #680]	; (8003e6c <shellThread+0x2cc>)
  ShellHistory hist = {
 8003bc4:	9314      	str	r3, [sp, #80]	; 0x50
 8003bc6:	e9cd 3312 	strd	r3, r3, [sp, #72]	; 0x48
  chprintf(chp, SHELL_NEWLINE_STR);
 8003bca:	4628      	mov	r0, r5
                       scfg->sc_histsize,
 8003bcc:	68e3      	ldr	r3, [r4, #12]
                       scfg->sc_histbuf,
 8003bce:	9206      	str	r2, [sp, #24]
  ShellHistory hist = {
 8003bd0:	9210      	str	r2, [sp, #64]	; 0x40
                       scfg->sc_histsize,
 8003bd2:	9305      	str	r3, [sp, #20]
  ShellHistory hist = {
 8003bd4:	9311      	str	r3, [sp, #68]	; 0x44
  BaseSequentialStream *chp = scfg->sc_channel;
 8003bd6:	9503      	str	r5, [sp, #12]
  const ShellCommand *scp = scfg->sc_commands;
 8003bd8:	960b      	str	r6, [sp, #44]	; 0x2c
  chprintf(chp, SHELL_NEWLINE_STR);
 8003bda:	f7ff fca1 	bl	8003520 <chprintf>
  chprintf(chp, "ChibiOS/RT Shell" SHELL_NEWLINE_STR);
 8003bde:	49a4      	ldr	r1, [pc, #656]	; (8003e70 <shellThread+0x2d0>)
 8003be0:	4628      	mov	r0, r5
 8003be2:	f7ff fc9d 	bl	8003520 <chprintf>
  return (bool)((chThdGetSelfX()->flags & CH_FLAG_TERMINATE) != (tmode_t)0);
 8003be6:	f8db 300c 	ldr.w	r3, [fp, #12]
#if !defined(__CHIBIOS_NIL__)
  while (!chThdShouldTerminateX()) {
 8003bea:	f893 3029 	ldrb.w	r3, [r3, #41]	; 0x29
 8003bee:	075a      	lsls	r2, r3, #29
 8003bf0:	d466      	bmi.n	8003cc0 <shellThread+0x120>
 8003bf2:	f10d 0a68 	add.w	sl, sp, #104	; 0x68
#else
  while (true) {
#endif
    chprintf(chp, SHELL_PROMPT_STR);
 8003bf6:	499f      	ldr	r1, [pc, #636]	; (8003e74 <shellThread+0x2d4>)
 8003bf8:	9803      	ldr	r0, [sp, #12]
 8003bfa:	f7ff fc91 	bl	8003520 <chprintf>
 *
 * @api
 */
bool shellGetLine(ShellConfig *scfg, char *line, unsigned size, ShellHistory *shp) {
  char *p = line;
  BaseSequentialStream *chp = scfg->sc_channel;
 8003bfe:	9b04      	ldr	r3, [sp, #16]
#if SHELL_USE_ESC_SEQ == TRUE
  bool escape = false;
  bool bracket = false;
 8003c00:	2500      	movs	r5, #0
  BaseSequentialStream *chp = scfg->sc_channel;
 8003c02:	681c      	ldr	r4, [r3, #0]
  bool escape = false;
 8003c04:	462e      	mov	r6, r5
  char *p = line;
 8003c06:	4657      	mov	r7, sl
#endif

  while (true) {
    char c;

    if (streamRead(chp, (uint8_t *)&c, 1) == 0)
 8003c08:	6823      	ldr	r3, [r4, #0]
 8003c0a:	2201      	movs	r2, #1
 8003c0c:	689b      	ldr	r3, [r3, #8]
 8003c0e:	f10d 0133 	add.w	r1, sp, #51	; 0x33
 8003c12:	4620      	mov	r0, r4
 8003c14:	4798      	blx	r3
 8003c16:	2800      	cmp	r0, #0
 8003c18:	d048      	beq.n	8003cac <shellThread+0x10c>
      return true;
#if SHELL_USE_ESC_SEQ == TRUE
    if (c == 27) {
 8003c1a:	f89d 1033 	ldrb.w	r1, [sp, #51]	; 0x33
 8003c1e:	291b      	cmp	r1, #27
 8003c20:	d02d      	beq.n	8003c7e <shellThread+0xde>
      escape = true;
      continue;
    }
    if (escape) {
 8003c22:	b15e      	cbz	r6, 8003c3c <shellThread+0x9c>
      escape = false;
      if (c == '[') {
 8003c24:	295b      	cmp	r1, #91	; 0x5b
 8003c26:	d03f      	beq.n	8003ca8 <shellThread+0x108>
        escape = true;
        bracket = true;
        continue;
      }
      if (bracket) {
 8003c28:	b135      	cbz	r5, 8003c38 <shellThread+0x98>
        bracket = false;
#if SHELL_USE_HISTORY == TRUE
        if (c == 'A') {
 8003c2a:	2941      	cmp	r1, #65	; 0x41
 8003c2c:	f000 80e8 	beq.w	8003e00 <shellThread+0x260>
            chprintf(chp, "%s", line);
            p = line + len;
          }
          continue;
        }
        if (c == 'B') {
 8003c30:	2942      	cmp	r1, #66	; 0x42
 8003c32:	f000 80c8 	beq.w	8003dc6 <shellThread+0x226>
        bracket = false;
 8003c36:	2500      	movs	r5, #0
      escape = false;
 8003c38:	462e      	mov	r6, r5
 8003c3a:	e7e5      	b.n	8003c08 <shellThread+0x68>
    if (c == 4) {
      chprintf(chp, "^D");
      return true;
    }
#endif
    if ((c == 8) || (c == 127)) {
 8003c3c:	2908      	cmp	r1, #8
 8003c3e:	d020      	beq.n	8003c82 <shellThread+0xe2>
 8003c40:	297f      	cmp	r1, #127	; 0x7f
 8003c42:	d01e      	beq.n	8003c82 <shellThread+0xe2>
        streamPut(chp, 0x08);
        p--;
      }
      continue;
    }
    if (c == '\r') {
 8003c44:	290d      	cmp	r1, #13
 8003c46:	f000 8123 	beq.w	8003e90 <shellThread+0x2f0>
#endif
      *p = 0;
      return false;
    }
#if SHELL_USE_COMPLETION == TRUE
    if (c == '\t') {
 8003c4a:	2909      	cmp	r1, #9
 8003c4c:	d04b      	beq.n	8003ce6 <shellThread+0x146>
      }
      continue;
    }
#endif
#if SHELL_USE_HISTORY == TRUE
    if (c == 14) {
 8003c4e:	290e      	cmp	r1, #14
 8003c50:	f000 80e2 	beq.w	8003e18 <shellThread+0x278>
        chprintf(chp, "%s", line);
        p = line + len;
      }
      continue;
    }
    if (c == 16) {
 8003c54:	2910      	cmp	r1, #16
 8003c56:	f000 80fb 	beq.w	8003e50 <shellThread+0x2b0>
        p = line + len;
      }
      continue;
    }
#endif
    if (c < 0x20)
 8003c5a:	291f      	cmp	r1, #31
 8003c5c:	d9d4      	bls.n	8003c08 <shellThread+0x68>
      continue;
    if (p < line + size - 1) {
 8003c5e:	f10d 03a7 	add.w	r3, sp, #167	; 0xa7
 8003c62:	429f      	cmp	r7, r3
 8003c64:	d2d0      	bcs.n	8003c08 <shellThread+0x68>
      if (localecho){
 8003c66:	4b84      	ldr	r3, [pc, #528]	; (8003e78 <shellThread+0x2d8>)
 8003c68:	781b      	ldrb	r3, [r3, #0]
 8003c6a:	b12b      	cbz	r3, 8003c78 <shellThread+0xd8>
        streamPut(chp, c);
 8003c6c:	6823      	ldr	r3, [r4, #0]
 8003c6e:	4620      	mov	r0, r4
 8003c70:	68db      	ldr	r3, [r3, #12]
 8003c72:	4798      	blx	r3
      }
      *p++ = (char)c;
 8003c74:	f89d 1033 	ldrb.w	r1, [sp, #51]	; 0x33
 8003c78:	f807 1b01 	strb.w	r1, [r7], #1
 8003c7c:	e7c4      	b.n	8003c08 <shellThread+0x68>
      escape = true;
 8003c7e:	2601      	movs	r6, #1
 8003c80:	e7c2      	b.n	8003c08 <shellThread+0x68>
      if (p != line) {
 8003c82:	4557      	cmp	r7, sl
 8003c84:	d0c0      	beq.n	8003c08 <shellThread+0x68>
        streamPut(chp, 0x08);
 8003c86:	6823      	ldr	r3, [r4, #0]
 8003c88:	2108      	movs	r1, #8
 8003c8a:	68db      	ldr	r3, [r3, #12]
 8003c8c:	4620      	mov	r0, r4
 8003c8e:	4798      	blx	r3
        streamPut(chp, 0x20);
 8003c90:	6823      	ldr	r3, [r4, #0]
 8003c92:	2120      	movs	r1, #32
 8003c94:	68db      	ldr	r3, [r3, #12]
 8003c96:	4620      	mov	r0, r4
 8003c98:	4798      	blx	r3
        streamPut(chp, 0x08);
 8003c9a:	6823      	ldr	r3, [r4, #0]
 8003c9c:	2108      	movs	r1, #8
 8003c9e:	68db      	ldr	r3, [r3, #12]
 8003ca0:	4620      	mov	r0, r4
        p--;
 8003ca2:	3f01      	subs	r7, #1
        streamPut(chp, 0x08);
 8003ca4:	4798      	blx	r3
 8003ca6:	e7af      	b.n	8003c08 <shellThread+0x68>
        bracket = true;
 8003ca8:	4635      	mov	r5, r6
 8003caa:	e7ad      	b.n	8003c08 <shellThread+0x68>
  chThdSleep(delay);
 8003cac:	f44f 707a 	mov.w	r0, #1000	; 0x3e8
 8003cb0:	f7ff fa26 	bl	8003100 <chThdSleep>
 8003cb4:	f8db 300c 	ldr.w	r3, [fp, #12]
  while (!chThdShouldTerminateX()) {
 8003cb8:	f893 3029 	ldrb.w	r3, [r3, #41]	; 0x29
 8003cbc:	075b      	lsls	r3, r3, #29
 8003cbe:	d59a      	bpl.n	8003bf6 <shellThread+0x56>
  __ASM volatile ("MSR basepri, %0" : : "r" (basePri) : "memory");
 8003cc0:	2330      	movs	r3, #48	; 0x30
 8003cc2:	f383 8811 	msr	BASEPRI, r3
  if (unlikely((oip->dbg.isr_cnt != (cnt_t)0) ||
 8003cc6:	e9db 3223 	ldrd	r3, r2, [fp, #140]	; 0x8c
 8003cca:	ea53 0402 	orrs.w	r4, r3, r2
 8003cce:	f040 8206 	bne.w	80040de <shellThread+0x53e>
 *
 * @iclass
 */
static inline void chEvtBroadcastI(event_source_t *esp) {

  chEvtBroadcastFlagsI(esp, (eventflags_t)0);
 8003cd2:	486a      	ldr	r0, [pc, #424]	; (8003e7c <shellThread+0x2dc>)
  oip->dbg.lock_cnt = (cnt_t)1;
 8003cd4:	2301      	movs	r3, #1
 8003cd6:	4621      	mov	r1, r4
 8003cd8:	f8cb 3090 	str.w	r3, [fp, #144]	; 0x90
 8003cdc:	f7fd ff48 	bl	8001b70 <chEvtBroadcastFlagsI>
  chThdExitS(msg);
 8003ce0:	4620      	mov	r0, r4
 8003ce2:	f7ff fb05 	bl	80032f0 <chThdExitS>
      if (p < line + size - 1) {
 8003ce6:	f10d 03a7 	add.w	r3, sp, #167	; 0xa7
 8003cea:	429f      	cmp	r7, r3
 8003cec:	d28c      	bcs.n	8003c08 <shellThread+0x68>
  char help_cmp[] = "help";
 8003cee:	4b64      	ldr	r3, [pc, #400]	; (8003e80 <shellThread+0x2e0>)
        *p = 0;
 8003cf0:	703e      	strb	r6, [r7, #0]
  char help_cmp[] = "help";
 8003cf2:	e893 0003 	ldmia.w	r3, {r0, r1}
  if (strstr(help_cmp, line) == help_cmp) {
 8003cf6:	f10d 0938 	add.w	r9, sp, #56	; 0x38
  char help_cmp[] = "help";
 8003cfa:	900e      	str	r0, [sp, #56]	; 0x38
 8003cfc:	f88d 103c 	strb.w	r1, [sp, #60]	; 0x3c
  if (strstr(help_cmp, line) == help_cmp) {
 8003d00:	4648      	mov	r0, r9
 8003d02:	4651      	mov	r1, sl
 8003d04:	f003 f98c 	bl	8007020 <strstr>
 8003d08:	9b04      	ldr	r3, [sp, #16]
 8003d0a:	4548      	cmp	r0, r9
 8003d0c:	685a      	ldr	r2, [r3, #4]
 8003d0e:	f8d3 8010 	ldr.w	r8, [r3, #16]
 8003d12:	f000 8164 	beq.w	8003fde <shellThread+0x43e>
    *scmp++ = help_cmp;
 8003d16:	f108 0304 	add.w	r3, r8, #4
 8003d1a:	9307      	str	r3, [sp, #28]
 8003d1c:	46c1      	mov	r9, r8
  if (scp != NULL) {
 8003d1e:	b19a      	cbz	r2, 8003d48 <shellThread+0x1a8>
    while (scp->sc_name != NULL) {
 8003d20:	6813      	ldr	r3, [r2, #0]
 8003d22:	b18b      	cbz	r3, 8003d48 <shellThread+0x1a8>
 8003d24:	e9cd 4508 	strd	r4, r5, [sp, #32]
 8003d28:	4614      	mov	r4, r2
 8003d2a:	461d      	mov	r5, r3
      if (strstr(scp->sc_name, line) == scp->sc_name) {
 8003d2c:	4628      	mov	r0, r5
 8003d2e:	4651      	mov	r1, sl
 8003d30:	f003 f976 	bl	8007020 <strstr>
 8003d34:	4285      	cmp	r5, r0
        *scmp++ = (char *)scp->sc_name;
 8003d36:	bf08      	it	eq
 8003d38:	f849 5b04 	streq.w	r5, [r9], #4
    while (scp->sc_name != NULL) {
 8003d3c:	f854 5f08 	ldr.w	r5, [r4, #8]!
 8003d40:	2d00      	cmp	r5, #0
 8003d42:	d1f3      	bne.n	8003d2c <shellThread+0x18c>
 8003d44:	e9dd 4508 	ldrd	r4, r5, [sp, #32]
  *scmp = NULL;
 8003d48:	2000      	movs	r0, #0
 8003d4a:	f8c9 0000 	str.w	r0, [r9]
  if (*scmp != NULL) {
 8003d4e:	f8d8 9000 	ldr.w	r9, [r8]
 8003d52:	f1b9 0f00 	cmp.w	r9, #0
 8003d56:	f43f af57 	beq.w	8003c08 <shellThread+0x68>
    if (*cmp == NULL) {
 8003d5a:	f8d8 3004 	ldr.w	r3, [r8, #4]
        int len = process_completions(scfg, line, p - line, size);
 8003d5e:	eba7 010a 	sub.w	r1, r7, sl
 8003d62:	9108      	str	r1, [sp, #32]
    if (*cmp == NULL) {
 8003d64:	2b00      	cmp	r3, #0
 8003d66:	f000 8187 	beq.w	8004078 <shellThread+0x4d8>
      while (*(*scmp + clen) != 0) {
 8003d6a:	f899 c000 	ldrb.w	ip, [r9]
 8003d6e:	f1bc 0f00 	cmp.w	ip, #0
 8003d72:	f000 81b7 	beq.w	80040e4 <shellThread+0x544>
 8003d76:	e9cd 4509 	strd	r4, r5, [sp, #36]	; 0x24
 8003d7a:	4664      	mov	r4, ip
 8003d7c:	9d08      	ldr	r5, [sp, #32]
 8003d7e:	f8dd c01c 	ldr.w	ip, [sp, #28]
 8003d82:	46be      	mov	lr, r7
               (*(*cmp + clen) != 0) && (*cmp != NULL)) {
 8003d84:	5c1a      	ldrb	r2, [r3, r0]
 8003d86:	42a2      	cmp	r2, r4
 8003d88:	bf08      	it	eq
 8003d8a:	4662      	moveq	r2, ip
 8003d8c:	d105      	bne.n	8003d9a <shellThread+0x1fa>
 8003d8e:	b13b      	cbz	r3, 8003da0 <shellThread+0x200>
        while ((*(*scmp + clen) == *(*cmp + clen)) &&
 8003d90:	f852 3f04 	ldr.w	r3, [r2, #4]!
               (*(*cmp + clen) != 0) && (*cmp != NULL)) {
 8003d94:	5c19      	ldrb	r1, [r3, r0]
 8003d96:	42a1      	cmp	r1, r4
 8003d98:	d0f9      	beq.n	8003d8e <shellThread+0x1ee>
        if (*cmp == NULL) {
 8003d9a:	2b00      	cmp	r3, #0
 8003d9c:	f040 812d 	bne.w	8003ffa <shellThread+0x45a>
          if ((c < line + size - 1) && (clen >= length))
 8003da0:	f10d 03a7 	add.w	r3, sp, #167	; 0xa7
 8003da4:	459e      	cmp	lr, r3
 8003da6:	d205      	bcs.n	8003db4 <shellThread+0x214>
 8003da8:	4285      	cmp	r5, r0
            *c++ = *(*scmp + clen);
 8003daa:	bfdc      	itt	le
 8003dac:	f80e 4b01 	strble.w	r4, [lr], #1
 8003db0:	f8d8 9000 	ldrle.w	r9, [r8]
          clen++;
 8003db4:	3001      	adds	r0, #1
      while (*(*scmp + clen) != 0) {
 8003db6:	f819 4000 	ldrb.w	r4, [r9, r0]
 8003dba:	2c00      	cmp	r4, #0
 8003dbc:	f000 8153 	beq.w	8004066 <shellThread+0x4c6>
        while ((*(*scmp + clen) == *(*cmp + clen)) &&
 8003dc0:	f8d8 3004 	ldr.w	r3, [r8, #4]
 8003dc4:	e7de      	b.n	8003d84 <shellThread+0x1e4>
          int len = get_history(shp, line, SHELL_HIST_DIR_FW);
 8003dc6:	2201      	movs	r2, #1
 8003dc8:	4651      	mov	r1, sl
 8003dca:	a810      	add	r0, sp, #64	; 0x40
 8003dcc:	f7fe fd18 	bl	8002800 <get_history>
          if (len == 0)
 8003dd0:	2800      	cmp	r0, #0
 8003dd2:	d11e      	bne.n	8003e12 <shellThread+0x272>
            *line = 0;
 8003dd4:	f88d 0068 	strb.w	r0, [sp, #104]	; 0x68
            _shell_reset_cur(chp);
 8003dd8:	2310      	movs	r3, #16
 8003dda:	2252      	movs	r2, #82	; 0x52
 8003ddc:	4929      	ldr	r1, [pc, #164]	; (8003e84 <shellThread+0x2e4>)
            p = line + len;
 8003dde:	eb0a 0700 	add.w	r7, sl, r0
            _shell_reset_cur(chp);
 8003de2:	4620      	mov	r0, r4
 8003de4:	f7ff fb9c 	bl	8003520 <chprintf>
            _shell_clr_line(chp);
 8003de8:	4927      	ldr	r1, [pc, #156]	; (8003e88 <shellThread+0x2e8>)
 8003dea:	4620      	mov	r0, r4
 8003dec:	f7ff fb98 	bl	8003520 <chprintf>
        bracket = false;
 8003df0:	2500      	movs	r5, #0
            chprintf(chp, "%s", line);
 8003df2:	4926      	ldr	r1, [pc, #152]	; (8003e8c <shellThread+0x2ec>)
 8003df4:	4652      	mov	r2, sl
 8003df6:	4620      	mov	r0, r4
 8003df8:	f7ff fb92 	bl	8003520 <chprintf>
      escape = false;
 8003dfc:	462e      	mov	r6, r5
 8003dfe:	e703      	b.n	8003c08 <shellThread+0x68>
          int len = get_history(shp, line, SHELL_HIST_DIR_BK);
 8003e00:	2200      	movs	r2, #0
 8003e02:	4651      	mov	r1, sl
 8003e04:	a810      	add	r0, sp, #64	; 0x40
 8003e06:	f7fe fcfb 	bl	8002800 <get_history>
          if (len > 0) {
 8003e0a:	2800      	cmp	r0, #0
 8003e0c:	f77f af13 	ble.w	8003c36 <shellThread+0x96>
 8003e10:	e7e2      	b.n	8003dd8 <shellThread+0x238>
          if (len >= 0) {
 8003e12:	f6ff af10 	blt.w	8003c36 <shellThread+0x96>
 8003e16:	e7df      	b.n	8003dd8 <shellThread+0x238>
      int len = get_history(shp, line, SHELL_HIST_DIR_FW);
 8003e18:	2201      	movs	r2, #1
 8003e1a:	4651      	mov	r1, sl
 8003e1c:	a810      	add	r0, sp, #64	; 0x40
 8003e1e:	f7fe fcef 	bl	8002800 <get_history>
      if (len == 0)
 8003e22:	2800      	cmp	r0, #0
 8003e24:	f040 80d8 	bne.w	8003fd8 <shellThread+0x438>
        *line = 0;
 8003e28:	f88d 6068 	strb.w	r6, [sp, #104]	; 0x68
        _shell_reset_cur(chp);
 8003e2c:	2310      	movs	r3, #16
 8003e2e:	2252      	movs	r2, #82	; 0x52
 8003e30:	4914      	ldr	r1, [pc, #80]	; (8003e84 <shellThread+0x2e4>)
        p = line + len;
 8003e32:	eb0a 0700 	add.w	r7, sl, r0
        _shell_reset_cur(chp);
 8003e36:	4620      	mov	r0, r4
 8003e38:	f7ff fb72 	bl	8003520 <chprintf>
        _shell_clr_line(chp);
 8003e3c:	4912      	ldr	r1, [pc, #72]	; (8003e88 <shellThread+0x2e8>)
 8003e3e:	4620      	mov	r0, r4
 8003e40:	f7ff fb6e 	bl	8003520 <chprintf>
        chprintf(chp, "%s", line);
 8003e44:	4911      	ldr	r1, [pc, #68]	; (8003e8c <shellThread+0x2ec>)
 8003e46:	4652      	mov	r2, sl
 8003e48:	4620      	mov	r0, r4
 8003e4a:	f7ff fb69 	bl	8003520 <chprintf>
 8003e4e:	e6db      	b.n	8003c08 <shellThread+0x68>
      int len = get_history(shp, line, SHELL_HIST_DIR_BK);
 8003e50:	4632      	mov	r2, r6
 8003e52:	4651      	mov	r1, sl
 8003e54:	a810      	add	r0, sp, #64	; 0x40
 8003e56:	f7fe fcd3 	bl	8002800 <get_history>
      if (len > 0) {
 8003e5a:	2800      	cmp	r0, #0
 8003e5c:	f77f aed4 	ble.w	8003c08 <shellThread+0x68>
 8003e60:	e7e4      	b.n	8003e2c <shellThread+0x28c>
 8003e62:	bf00      	nop
 8003e64:	20000ec8 	.word	0x20000ec8
 8003e68:	080076a8 	.word	0x080076a8
 8003e6c:	080079ac 	.word	0x080079ac
 8003e70:	080076b0 	.word	0x080076b0
 8003e74:	080076c4 	.word	0x080076c4
 8003e78:	2000080b 	.word	0x2000080b
 8003e7c:	20001bc8 	.word	0x20001bc8
 8003e80:	08007710 	.word	0x08007710
 8003e84:	080076d8 	.word	0x080076d8
 8003e88:	080076e4 	.word	0x080076e4
 8003e8c:	080076e8 	.word	0x080076e8
      chprintf(chp, SHELL_NEWLINE_STR);
 8003e90:	4620      	mov	r0, r4
 8003e92:	4997      	ldr	r1, [pc, #604]	; (80040f0 <shellThread+0x550>)
 8003e94:	f7ff fb44 	bl	8003520 <chprintf>
  if (length > shp->sh_size - 2)
 8003e98:	9b05      	ldr	r3, [sp, #20]
      save_history(shp, line, p - line);
 8003e9a:	eba7 040a 	sub.w	r4, r7, sl
  if (length > shp->sh_size - 2)
 8003e9e:	3b01      	subs	r3, #1
 8003ea0:	429c      	cmp	r4, r3
 8003ea2:	da4f      	bge.n	8003f44 <shellThread+0x3a4>
  while ((*(line + length -1) == ' ') && (length > 0))
 8003ea4:	1e63      	subs	r3, r4, #1
 8003ea6:	eb0a 0203 	add.w	r2, sl, r3
 8003eaa:	f81a 1003 	ldrb.w	r1, [sl, r3]
 8003eae:	2920      	cmp	r1, #32
 8003eb0:	d10a      	bne.n	8003ec8 <shellThread+0x328>
 8003eb2:	2c00      	cmp	r4, #0
 8003eb4:	dc03      	bgt.n	8003ebe <shellThread+0x31e>
 8003eb6:	e045      	b.n	8003f44 <shellThread+0x3a4>
 8003eb8:	2b00      	cmp	r3, #0
 8003eba:	d043      	beq.n	8003f44 <shellThread+0x3a4>
 8003ebc:	3b01      	subs	r3, #1
 8003ebe:	f812 1d01 	ldrb.w	r1, [r2, #-1]!
 8003ec2:	2920      	cmp	r1, #32
    length--;
 8003ec4:	461c      	mov	r4, r3
  while ((*(line + length -1) == ' ') && (length > 0))
 8003ec6:	d0f7      	beq.n	8003eb8 <shellThread+0x318>
  if (length <= 0)
 8003ec8:	2c00      	cmp	r4, #0
 8003eca:	dd3b      	ble.n	8003f44 <shellThread+0x3a4>
 8003ecc:	e9dd 3512 	ldrd	r3, r5, [sp, #72]	; 0x48
 8003ed0:	e9dd 1005 	ldrd	r1, r0, [sp, #20]
 8003ed4:	e00b      	b.n	8003eee <shellThread+0x34e>
    if (length < (shp->sh_size - (shp->sh_end - shp->sh_beg + 1)))
 8003ed6:	1aea      	subs	r2, r5, r3
 8003ed8:	3201      	adds	r2, #1
 8003eda:	1a8a      	subs	r2, r1, r2
 8003edc:	42a2      	cmp	r2, r4
 8003ede:	dc0c      	bgt.n	8003efa <shellThread+0x35a>
  int pos = shp->sh_beg + *(shp->sh_buffer + shp->sh_beg) + 1;
 8003ee0:	5cc2      	ldrb	r2, [r0, r3]
 8003ee2:	4413      	add	r3, r2
 8003ee4:	3301      	adds	r3, #1
  if (pos >= shp->sh_size)
 8003ee6:	4299      	cmp	r1, r3
    pos -= shp->sh_size;
 8003ee8:	bfd8      	it	le
 8003eea:	1a5b      	suble	r3, r3, r1
}
 8003eec:	2601      	movs	r6, #1
  if (shp->sh_end >= shp->sh_beg) {
 8003eee:	429d      	cmp	r5, r3
 8003ef0:	daf1      	bge.n	8003ed6 <shellThread+0x336>
    if (length < (shp->sh_beg - shp->sh_end - 1))
 8003ef2:	1b5a      	subs	r2, r3, r5
 8003ef4:	3a01      	subs	r2, #1
 8003ef6:	42a2      	cmp	r2, r4
 8003ef8:	ddf2      	ble.n	8003ee0 <shellThread+0x340>
 8003efa:	b106      	cbz	r6, 8003efe <shellThread+0x35e>
 8003efc:	9312      	str	r3, [sp, #72]	; 0x48
  if (length < shp->sh_size - shp->sh_end - 1)
 8003efe:	9b05      	ldr	r3, [sp, #20]
 8003f00:	1b5e      	subs	r6, r3, r5
 8003f02:	3e01      	subs	r6, #1
 8003f04:	42a6      	cmp	r6, r4
    memcpy(shp->sh_buffer + shp->sh_end + 1, line, length);
 8003f06:	f105 0001 	add.w	r0, r5, #1
  if (length < shp->sh_size - shp->sh_end - 1)
 8003f0a:	dc6f      	bgt.n	8003fec <shellThread+0x44c>
    memcpy(shp->sh_buffer + shp->sh_end + 1, line, part_len);
 8003f0c:	f8dd 8018 	ldr.w	r8, [sp, #24]
 8003f10:	4632      	mov	r2, r6
 8003f12:	4651      	mov	r1, sl
 8003f14:	4440      	add	r0, r8
 8003f16:	f7fc fb71 	bl	80005fc <memcpy>
    memcpy(shp->sh_buffer, line + part_len, length - part_len);
 8003f1a:	1ba2      	subs	r2, r4, r6
 8003f1c:	eb0a 0106 	add.w	r1, sl, r6
 8003f20:	4640      	mov	r0, r8
 8003f22:	f7fc fb6b 	bl	80005fc <memcpy>
  *(shp->sh_buffer + shp->sh_end) = (char)length;
 8003f26:	9b06      	ldr	r3, [sp, #24]
  if (shp->sh_end >= shp->sh_size)
 8003f28:	9a05      	ldr	r2, [sp, #20]
  *(shp->sh_buffer + shp->sh_end) = (char)length;
 8003f2a:	555c      	strb	r4, [r3, r5]
  shp->sh_end += length + 1;
 8003f2c:	1c63      	adds	r3, r4, #1
 8003f2e:	442b      	add	r3, r5
  if (shp->sh_end >= shp->sh_size)
 8003f30:	429a      	cmp	r2, r3
    shp->sh_end -= shp->sh_size;
 8003f32:	bfd8      	it	le
 8003f34:	9a05      	ldrle	r2, [sp, #20]
  *(shp->sh_buffer + shp->sh_end) = 0;
 8003f36:	9906      	ldr	r1, [sp, #24]
    shp->sh_end -= shp->sh_size;
 8003f38:	bfd8      	it	le
 8003f3a:	1a9b      	suble	r3, r3, r2
  *(shp->sh_buffer + shp->sh_end) = 0;
 8003f3c:	2200      	movs	r2, #0
 8003f3e:	54ca      	strb	r2, [r1, r3]
    shp->sh_end -= shp->sh_size;
 8003f40:	9313      	str	r3, [sp, #76]	; 0x4c
  shp->sh_cur = 0;
 8003f42:	9214      	str	r2, [sp, #80]	; 0x50
      *p = 0;
 8003f44:	2600      	movs	r6, #0
    lp = parse_arguments(line, &tokp);
 8003f46:	a90d      	add	r1, sp, #52	; 0x34
      *p = 0;
 8003f48:	703e      	strb	r6, [r7, #0]
    lp = parse_arguments(line, &tokp);
 8003f4a:	4650      	mov	r0, sl
 8003f4c:	f7ff fdc8 	bl	8003ae0 <parse_arguments>
    while ((lp = parse_arguments(NULL, &tokp)) != NULL) {
 8003f50:	a90d      	add	r1, sp, #52	; 0x34
    lp = parse_arguments(line, &tokp);
 8003f52:	4605      	mov	r5, r0
    while ((lp = parse_arguments(NULL, &tokp)) != NULL) {
 8003f54:	2000      	movs	r0, #0
 8003f56:	ac15      	add	r4, sp, #84	; 0x54
 8003f58:	f7ff fdc2 	bl	8003ae0 <parse_arguments>
 8003f5c:	b150      	cbz	r0, 8003f74 <shellThread+0x3d4>
      if (n >= SHELL_MAX_ARGUMENTS) {
 8003f5e:	2e04      	cmp	r6, #4
 8003f60:	d033      	beq.n	8003fca <shellThread+0x42a>
      args[n++] = lp;
 8003f62:	f844 0b04 	str.w	r0, [r4], #4
    while ((lp = parse_arguments(NULL, &tokp)) != NULL) {
 8003f66:	a90d      	add	r1, sp, #52	; 0x34
 8003f68:	2000      	movs	r0, #0
      args[n++] = lp;
 8003f6a:	3601      	adds	r6, #1
    while ((lp = parse_arguments(NULL, &tokp)) != NULL) {
 8003f6c:	f7ff fdb8 	bl	8003ae0 <parse_arguments>
 8003f70:	2800      	cmp	r0, #0
 8003f72:	d1f4      	bne.n	8003f5e <shellThread+0x3be>
    args[n] = NULL;
 8003f74:	ab2a      	add	r3, sp, #168	; 0xa8
 8003f76:	eb03 0386 	add.w	r3, r3, r6, lsl #2
 8003f7a:	f843 0c54 	str.w	r0, [r3, #-84]
    if (cmd != NULL) {
 8003f7e:	2d00      	cmp	r5, #0
 8003f80:	f43f ae98 	beq.w	8003cb4 <shellThread+0x114>
      else if (cmdexec(shell_local_commands, chp, cmd, n, args) &&
 8003f84:	ab15      	add	r3, sp, #84	; 0x54
 8003f86:	9300      	str	r3, [sp, #0]
 8003f88:	485a      	ldr	r0, [pc, #360]	; (80040f4 <shellThread+0x554>)
 8003f8a:	9903      	ldr	r1, [sp, #12]
 8003f8c:	4633      	mov	r3, r6
 8003f8e:	462a      	mov	r2, r5
 8003f90:	f7ff fdd6 	bl	8003b40 <cmdexec>
 8003f94:	2800      	cmp	r0, #0
 8003f96:	f43f ae8d 	beq.w	8003cb4 <shellThread+0x114>
 8003f9a:	9b0b      	ldr	r3, [sp, #44]	; 0x2c
 8003f9c:	b153      	cbz	r3, 8003fb4 <shellThread+0x414>
          ((scp == NULL) || cmdexec(scp, chp, cmd, n, args))) {
 8003f9e:	ab15      	add	r3, sp, #84	; 0x54
 8003fa0:	9300      	str	r3, [sp, #0]
 8003fa2:	9903      	ldr	r1, [sp, #12]
 8003fa4:	980b      	ldr	r0, [sp, #44]	; 0x2c
 8003fa6:	4633      	mov	r3, r6
 8003fa8:	462a      	mov	r2, r5
 8003faa:	f7ff fdc9 	bl	8003b40 <cmdexec>
 8003fae:	2800      	cmp	r0, #0
 8003fb0:	f43f ae80 	beq.w	8003cb4 <shellThread+0x114>
        chprintf(chp, "%s", cmd);
 8003fb4:	9c03      	ldr	r4, [sp, #12]
 8003fb6:	4950      	ldr	r1, [pc, #320]	; (80040f8 <shellThread+0x558>)
 8003fb8:	462a      	mov	r2, r5
 8003fba:	4620      	mov	r0, r4
 8003fbc:	f7ff fab0 	bl	8003520 <chprintf>
        chprintf(chp, " ?" SHELL_NEWLINE_STR);
 8003fc0:	494e      	ldr	r1, [pc, #312]	; (80040fc <shellThread+0x55c>)
 8003fc2:	4620      	mov	r0, r4
 8003fc4:	f7ff faac 	bl	8003520 <chprintf>
 8003fc8:	e674      	b.n	8003cb4 <shellThread+0x114>
        chprintf(chp, "too many arguments" SHELL_NEWLINE_STR);
 8003fca:	494d      	ldr	r1, [pc, #308]	; (8004100 <shellThread+0x560>)
 8003fcc:	9803      	ldr	r0, [sp, #12]
 8003fce:	f7ff faa7 	bl	8003520 <chprintf>
    args[n] = NULL;
 8003fd2:	2300      	movs	r3, #0
 8003fd4:	9319      	str	r3, [sp, #100]	; 0x64
    if (cmd != NULL) {
 8003fd6:	e66d      	b.n	8003cb4 <shellThread+0x114>
      if (len >= 0) {
 8003fd8:	f6ff ae16 	blt.w	8003c08 <shellThread+0x68>
 8003fdc:	e726      	b.n	8003e2c <shellThread+0x28c>
    *scmp++ = help_cmp;
 8003fde:	f108 0304 	add.w	r3, r8, #4
 8003fe2:	f8c8 0000 	str.w	r0, [r8]
 8003fe6:	9307      	str	r3, [sp, #28]
 8003fe8:	4699      	mov	r9, r3
 8003fea:	e698      	b.n	8003d1e <shellThread+0x17e>
    memcpy(shp->sh_buffer + shp->sh_end + 1, line, length);
 8003fec:	9b06      	ldr	r3, [sp, #24]
 8003fee:	4622      	mov	r2, r4
 8003ff0:	4418      	add	r0, r3
 8003ff2:	4651      	mov	r1, sl
 8003ff4:	f7fc fb02 	bl	80005fc <memcpy>
 8003ff8:	e795      	b.n	8003f26 <shellThread+0x386>
    *(line + clen) = 0;
 8003ffa:	e9dd 4509 	ldrd	r4, r5, [sp, #36]	; 0x24
 8003ffe:	eb0a 0300 	add.w	r3, sl, r0
 8004002:	9308      	str	r3, [sp, #32]
 8004004:	9a08      	ldr	r2, [sp, #32]
 8004006:	2300      	movs	r3, #0
 8004008:	7013      	strb	r3, [r2, #0]
        if (len > 0) {
 800400a:	2800      	cmp	r0, #0
 800400c:	f43f adfc 	beq.w	8003c08 <shellThread+0x68>
 8004010:	9b04      	ldr	r3, [sp, #16]
  if (*(scmp + 1) != NULL) {
 8004012:	f8d8 2004 	ldr.w	r2, [r8, #4]
 8004016:	f8d3 9000 	ldr.w	r9, [r3]
 800401a:	2a00      	cmp	r2, #0
 800401c:	d059      	beq.n	80040d2 <shellThread+0x532>
    chprintf(chp, SHELL_NEWLINE_STR);
 800401e:	4934      	ldr	r1, [pc, #208]	; (80040f0 <shellThread+0x550>)
 8004020:	4648      	mov	r0, r9
 8004022:	f7ff fa7d 	bl	8003520 <chprintf>
    while (*scmp != NULL)
 8004026:	f8d8 2000 	ldr.w	r2, [r8]
 800402a:	b16a      	cbz	r2, 8004048 <shellThread+0x4a8>
      chprintf(chp, " %s", *scmp++);
 800402c:	4f35      	ldr	r7, [pc, #212]	; (8004104 <shellThread+0x564>)
 800402e:	f8dd 801c 	ldr.w	r8, [sp, #28]
 8004032:	e001      	b.n	8004038 <shellThread+0x498>
 8004034:	f108 0804 	add.w	r8, r8, #4
 8004038:	4639      	mov	r1, r7
 800403a:	4648      	mov	r0, r9
 800403c:	f7ff fa70 	bl	8003520 <chprintf>
    while (*scmp != NULL)
 8004040:	f8d8 2000 	ldr.w	r2, [r8]
 8004044:	2a00      	cmp	r2, #0
 8004046:	d1f5      	bne.n	8004034 <shellThread+0x494>
    chprintf(chp, SHELL_NEWLINE_STR);
 8004048:	4929      	ldr	r1, [pc, #164]	; (80040f0 <shellThread+0x550>)
 800404a:	4648      	mov	r0, r9
 800404c:	f7ff fa68 	bl	8003520 <chprintf>
    chprintf(chp, SHELL_PROMPT_STR);
 8004050:	492d      	ldr	r1, [pc, #180]	; (8004108 <shellThread+0x568>)
 8004052:	4648      	mov	r0, r9
 8004054:	f7ff fa64 	bl	8003520 <chprintf>
    chprintf(chp, "%s", line);
 8004058:	4927      	ldr	r1, [pc, #156]	; (80040f8 <shellThread+0x558>)
 800405a:	4652      	mov	r2, sl
 800405c:	4648      	mov	r0, r9
 800405e:	f7ff fa5f 	bl	8003520 <chprintf>
          p = line + len;
 8004062:	9f08      	ldr	r7, [sp, #32]
 8004064:	e5d0      	b.n	8003c08 <shellThread+0x68>
    *(line + clen) = 0;
 8004066:	46a4      	mov	ip, r4
 8004068:	eb0a 0300 	add.w	r3, sl, r0
 800406c:	9d0a      	ldr	r5, [sp, #40]	; 0x28
 800406e:	9c09      	ldr	r4, [sp, #36]	; 0x24
 8004070:	f80a c000 	strb.w	ip, [sl, r0]
 8004074:	9308      	str	r3, [sp, #32]
 8004076:	e7cb      	b.n	8004010 <shellThread+0x470>
      clen = strlen(*scmp);
 8004078:	4648      	mov	r0, r9
 800407a:	f8cd 9024 	str.w	r9, [sp, #36]	; 0x24
 800407e:	f7fc fb5f 	bl	8000740 <strlen>
      while ((c < line + clen) && (c < line + size - 1))
 8004082:	eb0a 0900 	add.w	r9, sl, r0
 8004086:	454f      	cmp	r7, r9
      clen = strlen(*scmp);
 8004088:	4601      	mov	r1, r0
      while ((c < line + clen) && (c < line + size - 1))
 800408a:	f8cd 9020 	str.w	r9, [sp, #32]
 800408e:	d22c      	bcs.n	80040ea <shellThread+0x54a>
 8004090:	eba7 030a 	sub.w	r3, r7, sl
 8004094:	eba3 0c07 	sub.w	ip, r3, r7
 8004098:	9a09      	ldr	r2, [sp, #36]	; 0x24
 800409a:	463b      	mov	r3, r7
 800409c:	e003      	b.n	80040a6 <shellThread+0x506>
 800409e:	4293      	cmp	r3, r2
 80040a0:	d0b0      	beq.n	8004004 <shellThread+0x464>
        *c++ = *(*scmp + i++);
 80040a2:	f8d8 2000 	ldr.w	r2, [r8]
 80040a6:	eb03 0e0c 	add.w	lr, r3, ip
 80040aa:	f812 200e 	ldrb.w	r2, [r2, lr]
 80040ae:	f803 2b01 	strb.w	r2, [r3], #1
      while ((c < line + clen) && (c < line + size - 1))
 80040b2:	454b      	cmp	r3, r9
 80040b4:	f10d 02a7 	add.w	r2, sp, #167	; 0xa7
 80040b8:	d1f1      	bne.n	800409e <shellThread+0x4fe>
      if (c < line + size -1) {
 80040ba:	4293      	cmp	r3, r2
 80040bc:	d2a2      	bcs.n	8004004 <shellThread+0x464>
        clen++;
 80040be:	3101      	adds	r1, #1
        *c = ' ';
 80040c0:	2220      	movs	r2, #32
 80040c2:	701a      	strb	r2, [r3, #0]
    *(line + clen) = 0;
 80040c4:	2300      	movs	r3, #0
 80040c6:	f80a 3001 	strb.w	r3, [sl, r1]
 80040ca:	eb0a 0301 	add.w	r3, sl, r1
 80040ce:	9308      	str	r3, [sp, #32]
 80040d0:	e79e      	b.n	8004010 <shellThread+0x470>
    chprintf(chp, "%s", line + pos);
 80040d2:	4909      	ldr	r1, [pc, #36]	; (80040f8 <shellThread+0x558>)
 80040d4:	463a      	mov	r2, r7
 80040d6:	4648      	mov	r0, r9
 80040d8:	f7ff fa22 	bl	8003520 <chprintf>
 80040dc:	e7c1      	b.n	8004062 <shellThread+0x4c2>
    chSysHalt("SV#4");
 80040de:	480b      	ldr	r0, [pc, #44]	; (800410c <shellThread+0x56c>)
 80040e0:	f7fc fdce 	bl	8000c80 <chSysHalt>
    *(line + clen) = 0;
 80040e4:	f88d c068 	strb.w	ip, [sp, #104]	; 0x68
 80040e8:	e58e      	b.n	8003c08 <shellThread+0x68>
      while ((c < line + clen) && (c < line + size - 1))
 80040ea:	463b      	mov	r3, r7
 80040ec:	e7e7      	b.n	80040be <shellThread+0x51e>
 80040ee:	bf00      	nop
 80040f0:	080079ac 	.word	0x080079ac
 80040f4:	08008300 	.word	0x08008300
 80040f8:	080076e8 	.word	0x080076e8
 80040fc:	08007708 	.word	0x08007708
 8004100:	080076f0 	.word	0x080076f0
 8004104:	080076ec 	.word	0x080076ec
 8004108:	080076c4 	.word	0x080076c4
 800410c:	080072f4 	.word	0x080072f4

08004110 <cmd_addr>:
  if (argc < 1){
 8004110:	2900      	cmp	r1, #0
 8004112:	dd1d      	ble.n	8004150 <cmd_addr+0x40>
  val = (uint16_t)strtol(argv[0], NULL, 0);
 8004114:	4613      	mov	r3, r2
 8004116:	2200      	movs	r2, #0
void cmd_addr(BaseSequentialStream *chp, int argc, char *argv[]) {
 8004118:	b570      	push	{r4, r5, r6, lr}
  val = (uint16_t)strtol(argv[0], NULL, 0);
 800411a:	4611      	mov	r1, r2
 800411c:	4604      	mov	r4, r0
 800411e:	6818      	ldr	r0, [r3, #0]
 8004120:	f002 fd84 	bl	8006c2c <strtol>
  if (val < 31){
 8004124:	b283      	uxth	r3, r0
 8004126:	2b1e      	cmp	r3, #30
  val = (uint16_t)strtol(argv[0], NULL, 0);
 8004128:	4601      	mov	r1, r0
  if (val < 31){
 800412a:	d809      	bhi.n	8004140 <cmd_addr+0x30>
    partnerAddress = (uint8_t)val;
 800412c:	4d0b      	ldr	r5, [pc, #44]	; (800415c <cmd_addr+0x4c>)
 800412e:	b2c3      	uxtb	r3, r0
 8004130:	7029      	strb	r1, [r5, #0]
    chprintf(chp, "Address changed to: %0d or 0x%02X \r\n", partnerAddress, partnerAddress);
 8004132:	4620      	mov	r0, r4
 8004134:	490a      	ldr	r1, [pc, #40]	; (8004160 <cmd_addr+0x50>)
}
 8004136:	e8bd 4070 	ldmia.w	sp!, {r4, r5, r6, lr}
    chprintf(chp, "Address changed to: %0d or 0x%02X \r\n", partnerAddress, partnerAddress);
 800413a:	461a      	mov	r2, r3
 800413c:	f7ff b9f0 	b.w	8003520 <chprintf>
    chprintf(chp, "Value too big, NOT changed. Still: 0x%02X \r\n", partnerAddress);
 8004140:	4b06      	ldr	r3, [pc, #24]	; (800415c <cmd_addr+0x4c>)
 8004142:	4908      	ldr	r1, [pc, #32]	; (8004164 <cmd_addr+0x54>)
 8004144:	781a      	ldrb	r2, [r3, #0]
 8004146:	4620      	mov	r0, r4
}
 8004148:	e8bd 4070 	ldmia.w	sp!, {r4, r5, r6, lr}
    chprintf(chp, "Value too big, NOT changed. Still: 0x%02X \r\n", partnerAddress);
 800414c:	f7ff b9e8 	b.w	8003520 <chprintf>
    chprintf(chp, "Enter address. Current address: 0x%02X\r\n", partnerAddress);
 8004150:	4b02      	ldr	r3, [pc, #8]	; (800415c <cmd_addr+0x4c>)
 8004152:	4905      	ldr	r1, [pc, #20]	; (8004168 <cmd_addr+0x58>)
 8004154:	781a      	ldrb	r2, [r3, #0]
 8004156:	f7ff b9e3 	b.w	8003520 <chprintf>
 800415a:	bf00      	nop
 800415c:	20001bc4 	.word	0x20001bc4
 8004160:	08007744 	.word	0x08007744
 8004164:	0800776c 	.word	0x0800776c
 8004168:	08007718 	.word	0x08007718
 800416c:	00000000 	.word	0x00000000

08004170 <cmd_auto>:
  if (argc < 1){
 8004170:	2900      	cmp	r1, #0
 8004172:	dd1d      	ble.n	80041b0 <cmd_auto+0x40>
  val = (uint16_t)strtol(argv[0], NULL, 0);
 8004174:	4613      	mov	r3, r2
 8004176:	2200      	movs	r2, #0
void cmd_auto(BaseSequentialStream *chp, int argc, char *argv[]) {
 8004178:	b570      	push	{r4, r5, r6, lr}
  val = (uint16_t)strtol(argv[0], NULL, 0);
 800417a:	4611      	mov	r1, r2
 800417c:	4604      	mov	r4, r0
 800417e:	6818      	ldr	r0, [r3, #0]
 8004180:	f002 fd54 	bl	8006c2c <strtol>
  if (val < 2){
 8004184:	b283      	uxth	r3, r0
 8004186:	2b01      	cmp	r3, #1
  val = (uint16_t)strtol(argv[0], NULL, 0);
 8004188:	4601      	mov	r1, r0
  if (val < 2){
 800418a:	d907      	bls.n	800419c <cmd_auto+0x2c>
    chprintf(chp, "Value too big, NOT changed. Still: 0x%02X \r\n", autoread);
 800418c:	4b0b      	ldr	r3, [pc, #44]	; (80041bc <cmd_auto+0x4c>)
 800418e:	490c      	ldr	r1, [pc, #48]	; (80041c0 <cmd_auto+0x50>)
 8004190:	781a      	ldrb	r2, [r3, #0]
 8004192:	4620      	mov	r0, r4
}
 8004194:	e8bd 4070 	ldmia.w	sp!, {r4, r5, r6, lr}
    chprintf(chp, "Value too big, NOT changed. Still: 0x%02X \r\n", autoread);
 8004198:	f7ff b9c2 	b.w	8003520 <chprintf>
    autoread = (uint8_t)val;
 800419c:	4d07      	ldr	r5, [pc, #28]	; (80041bc <cmd_auto+0x4c>)
 800419e:	b2c3      	uxtb	r3, r0
 80041a0:	7029      	strb	r1, [r5, #0]
    chprintf(chp, "Autoread changed to: %0d or 0x%02X \r\n", autoread, autoread);
 80041a2:	4620      	mov	r0, r4
 80041a4:	4907      	ldr	r1, [pc, #28]	; (80041c4 <cmd_auto+0x54>)
}
 80041a6:	e8bd 4070 	ldmia.w	sp!, {r4, r5, r6, lr}
    chprintf(chp, "Autoread changed to: %0d or 0x%02X \r\n", autoread, autoread);
 80041aa:	461a      	mov	r2, r3
 80041ac:	f7ff b9b8 	b.w	8003520 <chprintf>
    chprintf(chp, "Enable Read after Write. Current setting: %d\r\n", autoread);
 80041b0:	4b02      	ldr	r3, [pc, #8]	; (80041bc <cmd_auto+0x4c>)
 80041b2:	4905      	ldr	r1, [pc, #20]	; (80041c8 <cmd_auto+0x58>)
 80041b4:	781a      	ldrb	r2, [r3, #0]
 80041b6:	f7ff b9b3 	b.w	8003520 <chprintf>
 80041ba:	bf00      	nop
 80041bc:	20000800 	.word	0x20000800
 80041c0:	0800776c 	.word	0x0800776c
 80041c4:	080077cc 	.word	0x080077cc
 80041c8:	0800779c 	.word	0x0800779c
 80041cc:	00000000 	.word	0x00000000

080041d0 <cmd_localecho>:
  if (argc < 1){
 80041d0:	2900      	cmp	r1, #0
 80041d2:	dd1d      	ble.n	8004210 <cmd_localecho+0x40>
  val = (uint16_t)strtol(argv[0], NULL, 0);
 80041d4:	4613      	mov	r3, r2
 80041d6:	2200      	movs	r2, #0
void cmd_localecho(BaseSequentialStream *chp, int argc, char *argv[]) {
 80041d8:	b570      	push	{r4, r5, r6, lr}
  val = (uint16_t)strtol(argv[0], NULL, 0);
 80041da:	4611      	mov	r1, r2
 80041dc:	4604      	mov	r4, r0
 80041de:	6818      	ldr	r0, [r3, #0]
 80041e0:	f002 fd24 	bl	8006c2c <strtol>
  if (val < 2){
 80041e4:	b283      	uxth	r3, r0
 80041e6:	2b01      	cmp	r3, #1
  val = (uint16_t)strtol(argv[0], NULL, 0);
 80041e8:	4601      	mov	r1, r0
  if (val < 2){
 80041ea:	d907      	bls.n	80041fc <cmd_localecho+0x2c>
    chprintf(chp, "Value too big, NOT changed. Still: 0x%02X \r\n", localecho);
 80041ec:	4b0b      	ldr	r3, [pc, #44]	; (800421c <cmd_localecho+0x4c>)
 80041ee:	490c      	ldr	r1, [pc, #48]	; (8004220 <cmd_localecho+0x50>)
 80041f0:	781a      	ldrb	r2, [r3, #0]
 80041f2:	4620      	mov	r0, r4
}
 80041f4:	e8bd 4070 	ldmia.w	sp!, {r4, r5, r6, lr}
    chprintf(chp, "Value too big, NOT changed. Still: 0x%02X \r\n", localecho);
 80041f8:	f7ff b992 	b.w	8003520 <chprintf>
    localecho = (uint8_t)val;
 80041fc:	4d07      	ldr	r5, [pc, #28]	; (800421c <cmd_localecho+0x4c>)
 80041fe:	b2c3      	uxtb	r3, r0
 8004200:	7029      	strb	r1, [r5, #0]
    chprintf(chp, "Localecho changed to: %0d or 0x%02X \r\n", localecho, localecho);
 8004202:	4620      	mov	r0, r4
 8004204:	4907      	ldr	r1, [pc, #28]	; (8004224 <cmd_localecho+0x54>)
}
 8004206:	e8bd 4070 	ldmia.w	sp!, {r4, r5, r6, lr}
    chprintf(chp, "Localecho changed to: %0d or 0x%02X \r\n", localecho, localecho);
 800420a:	461a      	mov	r2, r3
 800420c:	f7ff b988 	b.w	8003520 <chprintf>
    chprintf(chp, "Enable Local Echo. Current setting: %d\r\n", localecho);
 8004210:	4b02      	ldr	r3, [pc, #8]	; (800421c <cmd_localecho+0x4c>)
 8004212:	4905      	ldr	r1, [pc, #20]	; (8004228 <cmd_localecho+0x58>)
 8004214:	781a      	ldrb	r2, [r3, #0]
 8004216:	f7ff b983 	b.w	8003520 <chprintf>
 800421a:	bf00      	nop
 800421c:	2000080b 	.word	0x2000080b
 8004220:	0800776c 	.word	0x0800776c
 8004224:	08007820 	.word	0x08007820
 8004228:	080077f4 	.word	0x080077f4
 800422c:	00000000 	.word	0x00000000

08004230 <cmd_eoi>:
  if (argc < 1){
 8004230:	2900      	cmp	r1, #0
 8004232:	dd1d      	ble.n	8004270 <cmd_eoi+0x40>
  val = (uint16_t)strtol(argv[0], NULL, 0);
 8004234:	4613      	mov	r3, r2
 8004236:	2200      	movs	r2, #0
void cmd_eoi(BaseSequentialStream *chp, int argc, char *argv[]) {
 8004238:	b570      	push	{r4, r5, r6, lr}
  val = (uint16_t)strtol(argv[0], NULL, 0);
 800423a:	4611      	mov	r1, r2
 800423c:	4604      	mov	r4, r0
 800423e:	6818      	ldr	r0, [r3, #0]
 8004240:	f002 fcf4 	bl	8006c2c <strtol>
  if (val < 2){
 8004244:	b283      	uxth	r3, r0
 8004246:	2b01      	cmp	r3, #1
  val = (uint16_t)strtol(argv[0], NULL, 0);
 8004248:	4601      	mov	r1, r0
  if (val < 2){
 800424a:	d907      	bls.n	800425c <cmd_eoi+0x2c>
    chprintf(chp, "Value too big, NOT changed. Still: 0x%02X \r\n", eoiUse);
 800424c:	4b0b      	ldr	r3, [pc, #44]	; (800427c <cmd_eoi+0x4c>)
 800424e:	490c      	ldr	r1, [pc, #48]	; (8004280 <cmd_eoi+0x50>)
 8004250:	781a      	ldrb	r2, [r3, #0]
 8004252:	4620      	mov	r0, r4
}
 8004254:	e8bd 4070 	ldmia.w	sp!, {r4, r5, r6, lr}
    chprintf(chp, "Value too big, NOT changed. Still: 0x%02X \r\n", eoiUse);
 8004258:	f7ff b962 	b.w	8003520 <chprintf>
    eoiUse = (uint8_t)val;
 800425c:	4d07      	ldr	r5, [pc, #28]	; (800427c <cmd_eoi+0x4c>)
 800425e:	b2c3      	uxtb	r3, r0
 8004260:	7029      	strb	r1, [r5, #0]
    chprintf(chp, "EOI changed to: %0d or 0x%02X \r\n", eoiUse, eoiUse);
 8004262:	4620      	mov	r0, r4
 8004264:	4907      	ldr	r1, [pc, #28]	; (8004284 <cmd_eoi+0x54>)
}
 8004266:	e8bd 4070 	ldmia.w	sp!, {r4, r5, r6, lr}
    chprintf(chp, "EOI changed to: %0d or 0x%02X \r\n", eoiUse, eoiUse);
 800426a:	461a      	mov	r2, r3
 800426c:	f7ff b958 	b.w	8003520 <chprintf>
    chprintf(chp, "Enable EOI. Current setting: %d\r\n", eoiUse);
 8004270:	4b02      	ldr	r3, [pc, #8]	; (800427c <cmd_eoi+0x4c>)
 8004272:	4905      	ldr	r1, [pc, #20]	; (8004288 <cmd_eoi+0x58>)
 8004274:	781a      	ldrb	r2, [r3, #0]
 8004276:	f7ff b953 	b.w	8003520 <chprintf>
 800427a:	bf00      	nop
 800427c:	2000192c 	.word	0x2000192c
 8004280:	0800776c 	.word	0x0800776c
 8004284:	0800786c 	.word	0x0800786c
 8004288:	08007848 	.word	0x08007848
 800428c:	00000000 	.word	0x00000000

08004290 <cmd_eos>:
  if (argc < 1){
 8004290:	2900      	cmp	r1, #0
 8004292:	dd1f      	ble.n	80042d4 <cmd_eos+0x44>
  val = (uint16_t)strtol(argv[0], NULL, 0);
 8004294:	4613      	mov	r3, r2
 8004296:	2200      	movs	r2, #0
void cmd_eos(BaseSequentialStream *chp, int argc, char *argv[]) {
 8004298:	b510      	push	{r4, lr}
  val = (uint16_t)strtol(argv[0], NULL, 0);
 800429a:	4611      	mov	r1, r2
 800429c:	4604      	mov	r4, r0
 800429e:	6818      	ldr	r0, [r3, #0]
 80042a0:	f002 fcc4 	bl	8006c2c <strtol>
  if (val < 4){
 80042a4:	b283      	uxth	r3, r0
 80042a6:	2b03      	cmp	r3, #3
 80042a8:	d80c      	bhi.n	80042c4 <cmd_eos+0x34>
    eos_code = (uint8_t)val;
 80042aa:	b2c2      	uxtb	r2, r0
    switch (code)    {
 80042ac:	2a02      	cmp	r2, #2
 80042ae:	d816      	bhi.n	80042de <cmd_eos+0x4e>
 80042b0:	490d      	ldr	r1, [pc, #52]	; (80042e8 <cmd_eos+0x58>)
 80042b2:	4613      	mov	r3, r2
 80042b4:	700a      	strb	r2, [r1, #0]
    chprintf(chp, "EOI changed to: %0d or 0x%02X \r\n", eos_code, eos_code);
 80042b6:	4620      	mov	r0, r4
 80042b8:	490c      	ldr	r1, [pc, #48]	; (80042ec <cmd_eos+0x5c>)
}
 80042ba:	e8bd 4010 	ldmia.w	sp!, {r4, lr}
    chprintf(chp, "EOI changed to: %0d or 0x%02X \r\n", eos_code, eos_code);
 80042be:	461a      	mov	r2, r3
 80042c0:	f7ff b92e 	b.w	8003520 <chprintf>
    chprintf(chp, "Value too big, NOT changed. Still: 0x%02X \r\n", eos_code);
 80042c4:	4b08      	ldr	r3, [pc, #32]	; (80042e8 <cmd_eos+0x58>)
 80042c6:	490a      	ldr	r1, [pc, #40]	; (80042f0 <cmd_eos+0x60>)
 80042c8:	781a      	ldrb	r2, [r3, #0]
 80042ca:	4620      	mov	r0, r4
}
 80042cc:	e8bd 4010 	ldmia.w	sp!, {r4, lr}
    chprintf(chp, "Value too big, NOT changed. Still: 0x%02X \r\n", eos_code);
 80042d0:	f7ff b926 	b.w	8003520 <chprintf>
    chprintf(chp, "Change EOS. Current setting: %d\r\n", eos_code);
 80042d4:	4b04      	ldr	r3, [pc, #16]	; (80042e8 <cmd_eos+0x58>)
 80042d6:	4907      	ldr	r1, [pc, #28]	; (80042f4 <cmd_eos+0x64>)
 80042d8:	781a      	ldrb	r2, [r3, #0]
 80042da:	f7ff b921 	b.w	8003520 <chprintf>
        eos_code = 3;
 80042de:	4a02      	ldr	r2, [pc, #8]	; (80042e8 <cmd_eos+0x58>)
 80042e0:	2303      	movs	r3, #3
 80042e2:	7013      	strb	r3, [r2, #0]
        break;
 80042e4:	e7e7      	b.n	80042b6 <cmd_eos+0x26>
 80042e6:	bf00      	nop
 80042e8:	2000192d 	.word	0x2000192d
 80042ec:	0800786c 	.word	0x0800786c
 80042f0:	0800776c 	.word	0x0800776c
 80042f4:	08007890 	.word	0x08007890
	...

08004300 <cmd_eot>:
  if (argc < 1){
 8004300:	2900      	cmp	r1, #0
 8004302:	dd1d      	ble.n	8004340 <cmd_eot+0x40>
  val = (uint16_t)strtol(argv[0], NULL, 0);
 8004304:	4613      	mov	r3, r2
 8004306:	2200      	movs	r2, #0
void cmd_eot(BaseSequentialStream *chp, int argc, char *argv[]) {
 8004308:	b570      	push	{r4, r5, r6, lr}
  val = (uint16_t)strtol(argv[0], NULL, 0);
 800430a:	4611      	mov	r1, r2
 800430c:	4604      	mov	r4, r0
 800430e:	6818      	ldr	r0, [r3, #0]
 8004310:	f002 fc8c 	bl	8006c2c <strtol>
  if (val < 256){
 8004314:	b283      	uxth	r3, r0
 8004316:	2bff      	cmp	r3, #255	; 0xff
  val = (uint16_t)strtol(argv[0], NULL, 0);
 8004318:	4601      	mov	r1, r0
  if (val < 256){
 800431a:	d809      	bhi.n	8004330 <cmd_eot+0x30>
    eot_char = (uint8_t)val;
 800431c:	4d0b      	ldr	r5, [pc, #44]	; (800434c <cmd_eot+0x4c>)
 800431e:	b2c3      	uxtb	r3, r0
 8004320:	7029      	strb	r1, [r5, #0]
    chprintf(chp, "EOT Char. changed to: %0d or 0x%02X \r\n", eot_char, eot_char);
 8004322:	4620      	mov	r0, r4
 8004324:	490a      	ldr	r1, [pc, #40]	; (8004350 <cmd_eot+0x50>)
}
 8004326:	e8bd 4070 	ldmia.w	sp!, {r4, r5, r6, lr}
    chprintf(chp, "EOT Char. changed to: %0d or 0x%02X \r\n", eot_char, eot_char);
 800432a:	461a      	mov	r2, r3
 800432c:	f7ff b8f8 	b.w	8003520 <chprintf>
    chprintf(chp, "Value too big, NOT changed. Still: 0x%02X \r\n", eot_char);
 8004330:	4b06      	ldr	r3, [pc, #24]	; (800434c <cmd_eot+0x4c>)
 8004332:	4908      	ldr	r1, [pc, #32]	; (8004354 <cmd_eot+0x54>)
 8004334:	781a      	ldrb	r2, [r3, #0]
 8004336:	4620      	mov	r0, r4
}
 8004338:	e8bd 4070 	ldmia.w	sp!, {r4, r5, r6, lr}
    chprintf(chp, "Value too big, NOT changed. Still: 0x%02X \r\n", eot_char);
 800433c:	f7ff b8f0 	b.w	8003520 <chprintf>
    chprintf(chp, "Change EOT Character. Current setting: %d\r\n", eot_char);
 8004340:	4b02      	ldr	r3, [pc, #8]	; (800434c <cmd_eot+0x4c>)
 8004342:	4905      	ldr	r1, [pc, #20]	; (8004358 <cmd_eot+0x58>)
 8004344:	781a      	ldrb	r2, [r3, #0]
 8004346:	f7ff b8eb 	b.w	8003520 <chprintf>
 800434a:	bf00      	nop
 800434c:	2000192e 	.word	0x2000192e
 8004350:	080078e0 	.word	0x080078e0
 8004354:	0800776c 	.word	0x0800776c
 8004358:	080078b4 	.word	0x080078b4
 800435c:	00000000 	.word	0x00000000

08004360 <cmd_eot_en>:
  if (argc < 1){
 8004360:	2900      	cmp	r1, #0
 8004362:	dd1d      	ble.n	80043a0 <cmd_eot_en+0x40>
  val = (uint16_t)strtol(argv[0], NULL, 0);
 8004364:	4613      	mov	r3, r2
 8004366:	2200      	movs	r2, #0
void cmd_eot_en(BaseSequentialStream *chp, int argc, char *argv[]) {
 8004368:	b570      	push	{r4, r5, r6, lr}
  val = (uint16_t)strtol(argv[0], NULL, 0);
 800436a:	4611      	mov	r1, r2
 800436c:	4604      	mov	r4, r0
 800436e:	6818      	ldr	r0, [r3, #0]
 8004370:	f002 fc5c 	bl	8006c2c <strtol>
  if (val < 2){
 8004374:	b283      	uxth	r3, r0
 8004376:	2b01      	cmp	r3, #1
  val = (uint16_t)strtol(argv[0], NULL, 0);
 8004378:	4601      	mov	r1, r0
  if (val < 2){
 800437a:	d907      	bls.n	800438c <cmd_eot_en+0x2c>
    chprintf(chp, "Value too big, NOT changed. Still: 0x%02X \r\n", eot_enable);
 800437c:	4b0b      	ldr	r3, [pc, #44]	; (80043ac <cmd_eot_en+0x4c>)
 800437e:	490c      	ldr	r1, [pc, #48]	; (80043b0 <cmd_eot_en+0x50>)
 8004380:	781a      	ldrb	r2, [r3, #0]
 8004382:	4620      	mov	r0, r4
}
 8004384:	e8bd 4070 	ldmia.w	sp!, {r4, r5, r6, lr}
    chprintf(chp, "Value too big, NOT changed. Still: 0x%02X \r\n", eot_enable);
 8004388:	f7ff b8ca 	b.w	8003520 <chprintf>
    eot_enable = (uint8_t)val;
 800438c:	4d07      	ldr	r5, [pc, #28]	; (80043ac <cmd_eot_en+0x4c>)
 800438e:	b2c3      	uxtb	r3, r0
 8004390:	7029      	strb	r1, [r5, #0]
    chprintf(chp, "EOT changed to: %0d or 0x%02X \r\n", eot_enable, eot_enable);
 8004392:	4620      	mov	r0, r4
 8004394:	4907      	ldr	r1, [pc, #28]	; (80043b4 <cmd_eot_en+0x54>)
}
 8004396:	e8bd 4070 	ldmia.w	sp!, {r4, r5, r6, lr}
    chprintf(chp, "EOT changed to: %0d or 0x%02X \r\n", eot_enable, eot_enable);
 800439a:	461a      	mov	r2, r3
 800439c:	f7ff b8c0 	b.w	8003520 <chprintf>
    chprintf(chp, "Enable EOT. Current setting: %d\r\n", eot_enable);
 80043a0:	4b02      	ldr	r3, [pc, #8]	; (80043ac <cmd_eot_en+0x4c>)
 80043a2:	4905      	ldr	r1, [pc, #20]	; (80043b8 <cmd_eot_en+0x58>)
 80043a4:	781a      	ldrb	r2, [r3, #0]
 80043a6:	f7ff b8bb 	b.w	8003520 <chprintf>
 80043aa:	bf00      	nop
 80043ac:	2000192f 	.word	0x2000192f
 80043b0:	0800776c 	.word	0x0800776c
 80043b4:	0800792c 	.word	0x0800792c
 80043b8:	08007908 	.word	0x08007908
 80043bc:	00000000 	.word	0x00000000

080043c0 <cmd_mode>:
  if (argc < 1){
 80043c0:	2900      	cmp	r1, #0
 80043c2:	dd1d      	ble.n	8004400 <cmd_mode+0x40>
  val = (uint16_t)strtol(argv[0], NULL, 0);
 80043c4:	4613      	mov	r3, r2
 80043c6:	2200      	movs	r2, #0
void cmd_mode(BaseSequentialStream *chp, int argc, char *argv[]) {
 80043c8:	b570      	push	{r4, r5, r6, lr}
  val = (uint16_t)strtol(argv[0], NULL, 0);
 80043ca:	4611      	mov	r1, r2
 80043cc:	4604      	mov	r4, r0
 80043ce:	6818      	ldr	r0, [r3, #0]
 80043d0:	f002 fc2c 	bl	8006c2c <strtol>
  if (val < 2){
 80043d4:	b283      	uxth	r3, r0
 80043d6:	2b01      	cmp	r3, #1
  val = (uint16_t)strtol(argv[0], NULL, 0);
 80043d8:	4601      	mov	r1, r0
  if (val < 2){
 80043da:	d907      	bls.n	80043ec <cmd_mode+0x2c>
    chprintf(chp, "Value too big, NOT changed. Still: 0x%02X \r\n", mode);
 80043dc:	4b0b      	ldr	r3, [pc, #44]	; (800440c <cmd_mode+0x4c>)
 80043de:	490c      	ldr	r1, [pc, #48]	; (8004410 <cmd_mode+0x50>)
 80043e0:	781a      	ldrb	r2, [r3, #0]
 80043e2:	4620      	mov	r0, r4
}
 80043e4:	e8bd 4070 	ldmia.w	sp!, {r4, r5, r6, lr}
    chprintf(chp, "Value too big, NOT changed. Still: 0x%02X \r\n", mode);
 80043e8:	f7ff b89a 	b.w	8003520 <chprintf>
    mode = (uint8_t)val;
 80043ec:	4d07      	ldr	r5, [pc, #28]	; (800440c <cmd_mode+0x4c>)
 80043ee:	b2c3      	uxtb	r3, r0
 80043f0:	7029      	strb	r1, [r5, #0]
    chprintf(chp, "Mode changed to: %0d or 0x%02X \r\n", mode, mode);
 80043f2:	4620      	mov	r0, r4
 80043f4:	4907      	ldr	r1, [pc, #28]	; (8004414 <cmd_mode+0x54>)
}
 80043f6:	e8bd 4070 	ldmia.w	sp!, {r4, r5, r6, lr}
    chprintf(chp, "Mode changed to: %0d or 0x%02X \r\n", mode, mode);
 80043fa:	461a      	mov	r2, r3
 80043fc:	f7ff b890 	b.w	8003520 <chprintf>
    chprintf(chp, "Change Mode. Current setting: %d\r\n", mode);
 8004400:	4b02      	ldr	r3, [pc, #8]	; (800440c <cmd_mode+0x4c>)
 8004402:	4905      	ldr	r1, [pc, #20]	; (8004418 <cmd_mode+0x58>)
 8004404:	781a      	ldrb	r2, [r3, #0]
 8004406:	f7ff b88b 	b.w	8003520 <chprintf>
 800440a:	bf00      	nop
 800440c:	20001ba0 	.word	0x20001ba0
 8004410:	0800776c 	.word	0x0800776c
 8004414:	08007974 	.word	0x08007974
 8004418:	08007950 	.word	0x08007950
 800441c:	00000000 	.word	0x00000000

08004420 <cmd_test>:
}

void cmd_test(BaseSequentialStream *chp, int argc, char *argv[]) {
 8004420:	b510      	push	{r4, lr}
  (void)* argv;
  (void)argc;
  char text[10];
  uint16_t val;

  chprintf(chp, "Enter Number (<256) \r\n");
 8004422:	490b      	ldr	r1, [pc, #44]	; (8004450 <cmd_test+0x30>)
void cmd_test(BaseSequentialStream *chp, int argc, char *argv[]) {
 8004424:	b084      	sub	sp, #16
 8004426:	4604      	mov	r4, r0
  chprintf(chp, "Enter Number (<256) \r\n");
 8004428:	f7ff f87a 	bl	8003520 <chprintf>
//  ret = chscanf(chp, "%7s", &text);

  val = (uint16_t)strtol(text, NULL, 0);
 800442c:	2200      	movs	r2, #0
 800442e:	4611      	mov	r1, r2
 8004430:	a801      	add	r0, sp, #4
 8004432:	f002 fbfb 	bl	8006c2c <strtol>

  chprintf(chp, "You entered text: %s Val: %04x got: %02x\r\n",
 8004436:	aa01      	add	r2, sp, #4
 8004438:	b283      	uxth	r3, r0
 800443a:	4906      	ldr	r1, [pc, #24]	; (8004454 <cmd_test+0x34>)
 800443c:	4620      	mov	r0, r4
 800443e:	f7ff f86f 	bl	8003520 <chprintf>
                      text, val);
  chprintf(dbg, "OK\r\n");
 8004442:	4905      	ldr	r1, [pc, #20]	; (8004458 <cmd_test+0x38>)
 8004444:	4805      	ldr	r0, [pc, #20]	; (800445c <cmd_test+0x3c>)
 8004446:	f7ff f86b 	bl	8003520 <chprintf>

}
 800444a:	b004      	add	sp, #16
 800444c:	bd10      	pop	{r4, pc}
 800444e:	bf00      	nop
 8004450:	08007998 	.word	0x08007998
 8004454:	080079b0 	.word	0x080079b0
 8004458:	080079dc 	.word	0x080079dc
 800445c:	20000950 	.word	0x20000950

08004460 <cmd_debug>:

void cmd_debug(BaseSequentialStream *chp, int argc, char *argv[]) {
  (void)* argv;
  (void)argc;
  uint16_t val;
  if (argc < 1){
 8004460:	2900      	cmp	r1, #0
void cmd_debug(BaseSequentialStream *chp, int argc, char *argv[]) {
 8004462:	b570      	push	{r4, r5, r6, lr}
 8004464:	4604      	mov	r4, r0
  if (argc < 1){
 8004466:	dd28      	ble.n	80044ba <cmd_debug+0x5a>
    chprintf(chp, "     Bit5: .\r\n");
    chprintf(chp, "     Bit6: .\r\n");
    chprintf(chp, "     Bit7: .\r\n");
    return;
  }
  if (argc > 1){
 8004468:	2901      	cmp	r1, #1
 800446a:	4613      	mov	r3, r2
 800446c:	d01e      	beq.n	80044ac <cmd_debug+0x4c>
    val = (uint16_t)strtol(argv[0], NULL, 2);
 800446e:	6810      	ldr	r0, [r2, #0]
 8004470:	2100      	movs	r1, #0
 8004472:	2202      	movs	r2, #2
 8004474:	f002 fbda 	bl	8006c2c <strtol>
    chprintf(chp, "Use Base 2!.\r\n");
 8004478:	492b      	ldr	r1, [pc, #172]	; (8004528 <cmd_debug+0xc8>)
    val = (uint16_t)strtol(argv[0], NULL, 2);
 800447a:	4605      	mov	r5, r0
    chprintf(chp, "Use Base 2!.\r\n");
 800447c:	4620      	mov	r0, r4
    val = (uint16_t)strtol(argv[0], NULL, 2);
 800447e:	b2ad      	uxth	r5, r5
    chprintf(chp, "Use Base 2!.\r\n");
 8004480:	f7ff f84e 	bl	8003520 <chprintf>
  }
  else{
    val = (uint16_t)strtol(argv[0], NULL, 0);
  }
  //chprintf(chp, "You entered Val: %0d \r\n", val);
  if (val < 256){
 8004484:	2dff      	cmp	r5, #255	; 0xff
 8004486:	d809      	bhi.n	800449c <cmd_debug+0x3c>
    debuglevel = (uint8_t)val;
 8004488:	4a28      	ldr	r2, [pc, #160]	; (800452c <cmd_debug+0xcc>)
    chprintf(chp, "Debuglevel changed to: %0d or 0x%02X \r\n", debuglevel, debuglevel);
 800448a:	4929      	ldr	r1, [pc, #164]	; (8004530 <cmd_debug+0xd0>)
    debuglevel = (uint8_t)val;
 800448c:	7015      	strb	r5, [r2, #0]
    chprintf(chp, "Debuglevel changed to: %0d or 0x%02X \r\n", debuglevel, debuglevel);
 800448e:	462b      	mov	r3, r5
 8004490:	4620      	mov	r0, r4
 8004492:	462a      	mov	r2, r5
  }
  else{
    chprintf(chp, "Value too big, NOT changed. Still: 0x%02X \r\n", debuglevel);
  }
}
 8004494:	e8bd 4070 	ldmia.w	sp!, {r4, r5, r6, lr}
    chprintf(chp, "Debuglevel changed to: %0d or 0x%02X \r\n", debuglevel, debuglevel);
 8004498:	f7ff b842 	b.w	8003520 <chprintf>
    chprintf(chp, "Value too big, NOT changed. Still: 0x%02X \r\n", debuglevel);
 800449c:	4b23      	ldr	r3, [pc, #140]	; (800452c <cmd_debug+0xcc>)
 800449e:	4925      	ldr	r1, [pc, #148]	; (8004534 <cmd_debug+0xd4>)
 80044a0:	781a      	ldrb	r2, [r3, #0]
 80044a2:	4620      	mov	r0, r4
}
 80044a4:	e8bd 4070 	ldmia.w	sp!, {r4, r5, r6, lr}
    chprintf(chp, "Value too big, NOT changed. Still: 0x%02X \r\n", debuglevel);
 80044a8:	f7ff b83a 	b.w	8003520 <chprintf>
    val = (uint16_t)strtol(argv[0], NULL, 0);
 80044ac:	2200      	movs	r2, #0
 80044ae:	6818      	ldr	r0, [r3, #0]
 80044b0:	4611      	mov	r1, r2
 80044b2:	f002 fbbb 	bl	8006c2c <strtol>
 80044b6:	b285      	uxth	r5, r0
 80044b8:	e7e4      	b.n	8004484 <cmd_debug+0x24>
    chprintf(chp, "Enter Debug Level. It is now: 0x%02X\r\n", debuglevel);
 80044ba:	4b1c      	ldr	r3, [pc, #112]	; (800452c <cmd_debug+0xcc>)
 80044bc:	491e      	ldr	r1, [pc, #120]	; (8004538 <cmd_debug+0xd8>)
 80044be:	781a      	ldrb	r2, [r3, #0]
 80044c0:	f7ff f82e 	bl	8003520 <chprintf>
    chprintf(chp, "One set bit is for one source.\r\n");
 80044c4:	491d      	ldr	r1, [pc, #116]	; (800453c <cmd_debug+0xdc>)
 80044c6:	4620      	mov	r0, r4
 80044c8:	f7ff f82a 	bl	8003520 <chprintf>
    chprintf(chp, "Input can be in HEX, DEC or OCT.\r\n");
 80044cc:	491c      	ldr	r1, [pc, #112]	; (8004540 <cmd_debug+0xe0>)
 80044ce:	4620      	mov	r0, r4
 80044d0:	f7ff f826 	bl	8003520 <chprintf>
    chprintf(chp, "If Base 2 is needed enter '2' as another parameter.\r\n");
 80044d4:	491b      	ldr	r1, [pc, #108]	; (8004544 <cmd_debug+0xe4>)
 80044d6:	4620      	mov	r0, r4
 80044d8:	f7ff f822 	bl	8003520 <chprintf>
    chprintf(chp, "Debug Sources are: \r\n");
 80044dc:	491a      	ldr	r1, [pc, #104]	; (8004548 <cmd_debug+0xe8>)
 80044de:	4620      	mov	r0, r4
 80044e0:	f7ff f81e 	bl	8003520 <chprintf>
    chprintf(chp, "     Bit0: Button.\r\n");
 80044e4:	4919      	ldr	r1, [pc, #100]	; (800454c <cmd_debug+0xec>)
 80044e6:	4620      	mov	r0, r4
 80044e8:	f7ff f81a 	bl	8003520 <chprintf>
    chprintf(chp, "     Bit1: .\r\n");
 80044ec:	4918      	ldr	r1, [pc, #96]	; (8004550 <cmd_debug+0xf0>)
 80044ee:	4620      	mov	r0, r4
 80044f0:	f7ff f816 	bl	8003520 <chprintf>
    chprintf(chp, "     Bit2: .\r\n");
 80044f4:	4917      	ldr	r1, [pc, #92]	; (8004554 <cmd_debug+0xf4>)
 80044f6:	4620      	mov	r0, r4
 80044f8:	f7ff f812 	bl	8003520 <chprintf>
    chprintf(chp, "     Bit3: .\r\n");
 80044fc:	4916      	ldr	r1, [pc, #88]	; (8004558 <cmd_debug+0xf8>)
 80044fe:	4620      	mov	r0, r4
 8004500:	f7ff f80e 	bl	8003520 <chprintf>
    chprintf(chp, "     Bit4: .\r\n");
 8004504:	4915      	ldr	r1, [pc, #84]	; (800455c <cmd_debug+0xfc>)
 8004506:	4620      	mov	r0, r4
 8004508:	f7ff f80a 	bl	8003520 <chprintf>
    chprintf(chp, "     Bit5: .\r\n");
 800450c:	4914      	ldr	r1, [pc, #80]	; (8004560 <cmd_debug+0x100>)
 800450e:	4620      	mov	r0, r4
 8004510:	f7ff f806 	bl	8003520 <chprintf>
    chprintf(chp, "     Bit6: .\r\n");
 8004514:	4913      	ldr	r1, [pc, #76]	; (8004564 <cmd_debug+0x104>)
 8004516:	4620      	mov	r0, r4
 8004518:	f7ff f802 	bl	8003520 <chprintf>
    chprintf(chp, "     Bit7: .\r\n");
 800451c:	4620      	mov	r0, r4
 800451e:	4912      	ldr	r1, [pc, #72]	; (8004568 <cmd_debug+0x108>)
}
 8004520:	e8bd 4070 	ldmia.w	sp!, {r4, r5, r6, lr}
    chprintf(chp, "     Bit7: .\r\n");
 8004524:	f7fe bffc 	b.w	8003520 <chprintf>
 8004528:	08007b2c 	.word	0x08007b2c
 800452c:	20001904 	.word	0x20001904
 8004530:	08007b3c 	.word	0x08007b3c
 8004534:	0800776c 	.word	0x0800776c
 8004538:	080079e4 	.word	0x080079e4
 800453c:	08007a0c 	.word	0x08007a0c
 8004540:	08007a30 	.word	0x08007a30
 8004544:	08007a54 	.word	0x08007a54
 8004548:	08007a8c 	.word	0x08007a8c
 800454c:	08007aa4 	.word	0x08007aa4
 8004550:	08007abc 	.word	0x08007abc
 8004554:	08007acc 	.word	0x08007acc
 8004558:	08007adc 	.word	0x08007adc
 800455c:	08007aec 	.word	0x08007aec
 8004560:	08007afc 	.word	0x08007afc
 8004564:	08007b0c 	.word	0x08007b0c
 8004568:	08007b1c 	.word	0x08007b1c
 800456c:	00000000 	.word	0x00000000

08004570 <__cpu_init>:

#if CORTEX_MODEL == 7
  SCB_EnableICache();
  SCB_EnableDCache();
#endif
}
 8004570:	4770      	bx	lr
 8004572:	bf00      	nop
	...

08004580 <__late_init>:
 8004580:	4770      	bx	lr
 8004582:	bf00      	nop
	...

08004590 <__default_exit>:
#endif
/*lint -save -e9075 [8.4] All symbols are invoked from asm context.*/
void __default_exit(void) {
/*lint -restore*/

  while (true) {
 8004590:	e7fe      	b.n	8004590 <__default_exit>
 8004592:	bf00      	nop
	...

080045a0 <__init_ram_areas>:
#endif

/**
 * @brief   Performs the initialization of the various RAM areas.
 */
void __init_ram_areas(void) {
 80045a0:	b5f8      	push	{r3, r4, r5, r6, r7, lr}
 80045a2:	4d15      	ldr	r5, [pc, #84]	; (80045f8 <__init_ram_areas+0x58>)
 80045a4:	4f15      	ldr	r7, [pc, #84]	; (80045fc <__init_ram_areas+0x5c>)
 80045a6:	4916      	ldr	r1, [pc, #88]	; (8004600 <__init_ram_areas+0x60>)
 80045a8:	4816      	ldr	r0, [pc, #88]	; (8004604 <__init_ram_areas+0x64>)
 80045aa:	4a17      	ldr	r2, [pc, #92]	; (8004608 <__init_ram_areas+0x68>)
 80045ac:	f105 0470 	add.w	r4, r5, #112	; 0x70
  do {
    uint32_t *tp = rap->init_text_area;
    uint32_t *p = rap->init_area;

    /* Copying initialization data.*/
    while (p < rap->clear_area) {
 80045b0:	4281      	cmp	r1, r0
 80045b2:	d90d      	bls.n	80045d0 <__init_ram_areas+0x30>
 80045b4:	3a04      	subs	r2, #4
 80045b6:	4603      	mov	r3, r0
      *p = *tp;
 80045b8:	f852 6f04 	ldr.w	r6, [r2, #4]!
 80045bc:	f843 6b04 	str.w	r6, [r3], #4
    while (p < rap->clear_area) {
 80045c0:	4299      	cmp	r1, r3
 80045c2:	d8f9      	bhi.n	80045b8 <__init_ram_areas+0x18>
      p++;
 80045c4:	1e4b      	subs	r3, r1, #1
 80045c6:	1a1b      	subs	r3, r3, r0
 80045c8:	f023 0303 	bic.w	r3, r3, #3
 80045cc:	3304      	adds	r3, #4
 80045ce:	4418      	add	r0, r3
      tp++;
    }

    /* Zeroing clear area.*/
    while (p < rap->no_init_area) {
 80045d0:	4287      	cmp	r7, r0
 80045d2:	d907      	bls.n	80045e4 <__init_ram_areas+0x44>
      *p = 0;
 80045d4:	1e7a      	subs	r2, r7, #1
 80045d6:	1a12      	subs	r2, r2, r0
 80045d8:	f022 0203 	bic.w	r2, r2, #3
 80045dc:	3204      	adds	r2, #4
 80045de:	2100      	movs	r1, #0
 80045e0:	f002 fb36 	bl	8006c50 <memset>
      p++;
    }
    rap++;
  }
  while (rap < &ram_areas[CRT0_AREAS_NUMBER]);
 80045e4:	42a5      	cmp	r5, r4
 80045e6:	d005      	beq.n	80045f4 <__init_ram_areas+0x54>
    uint32_t *p = rap->init_area;
 80045e8:	e9d5 2004 	ldrd	r2, r0, [r5, #16]
    while (p < rap->no_init_area) {
 80045ec:	e9d5 1706 	ldrd	r1, r7, [r5, #24]
 80045f0:	3510      	adds	r5, #16
 80045f2:	e7dd      	b.n	80045b0 <__init_ram_areas+0x10>
#endif
}
 80045f4:	bdf8      	pop	{r3, r4, r5, r6, r7, pc}
 80045f6:	bf00      	nop
 80045f8:	08008264 	.word	0x08008264
 80045fc:	20002188 	.word	0x20002188
 8004600:	20002188 	.word	0x20002188
 8004604:	20002188 	.word	0x20002188
 8004608:	08008678 	.word	0x08008678
 800460c:	00000000 	.word	0x00000000

08004610 <__dbg_check_lock>:
void __dbg_check_lock(void) {
 8004610:	b508      	push	{r3, lr}
  if (unlikely((oip->dbg.isr_cnt != (cnt_t)0) ||
 8004612:	4b06      	ldr	r3, [pc, #24]	; (800462c <__dbg_check_lock+0x1c>)
 8004614:	e9d3 2123 	ldrd	r2, r1, [r3, #140]	; 0x8c
 8004618:	430a      	orrs	r2, r1
 800461a:	d103      	bne.n	8004624 <__dbg_check_lock+0x14>
  oip->dbg.lock_cnt = (cnt_t)1;
 800461c:	2201      	movs	r2, #1
 800461e:	f8c3 2090 	str.w	r2, [r3, #144]	; 0x90
}
 8004622:	bd08      	pop	{r3, pc}
    chSysHalt("SV#4");
 8004624:	4802      	ldr	r0, [pc, #8]	; (8004630 <__dbg_check_lock+0x20>)
 8004626:	f7fc fb2b 	bl	8000c80 <chSysHalt>
 800462a:	bf00      	nop
 800462c:	20000ec8 	.word	0x20000ec8
 8004630:	080072f4 	.word	0x080072f4
	...

08004640 <__dbg_check_unlock>:
void __dbg_check_unlock(void) {
 8004640:	b508      	push	{r3, lr}
  if (unlikely((oip->dbg.isr_cnt != (cnt_t)0) ||
 8004642:	4b07      	ldr	r3, [pc, #28]	; (8004660 <__dbg_check_unlock+0x20>)
 8004644:	f8d3 208c 	ldr.w	r2, [r3, #140]	; 0x8c
 8004648:	b932      	cbnz	r2, 8004658 <__dbg_check_unlock+0x18>
 800464a:	f8d3 1090 	ldr.w	r1, [r3, #144]	; 0x90
 800464e:	2900      	cmp	r1, #0
 8004650:	dd02      	ble.n	8004658 <__dbg_check_unlock+0x18>
  oip->dbg.lock_cnt = (cnt_t)0;
 8004652:	f8c3 2090 	str.w	r2, [r3, #144]	; 0x90
}
 8004656:	bd08      	pop	{r3, pc}
    chSysHalt("SV#5");
 8004658:	4802      	ldr	r0, [pc, #8]	; (8004664 <__dbg_check_unlock+0x24>)
 800465a:	f7fc fb11 	bl	8000c80 <chSysHalt>
 800465e:	bf00      	nop
 8004660:	20000ec8 	.word	0x20000ec8
 8004664:	08007314 	.word	0x08007314
	...

08004670 <chSysUnlock.lto_priv.12>:
static inline void chSysUnlock(void) {
 8004670:	b508      	push	{r3, lr}
  __dbg_check_unlock();
 8004672:	f7ff ffe5 	bl	8004640 <__dbg_check_unlock>
  chDbgAssert((currcore->rlist.pqueue.next == &currcore->rlist.pqueue) ||
 8004676:	4b08      	ldr	r3, [pc, #32]	; (8004698 <chSysUnlock.lto_priv.12+0x28>)
 8004678:	681a      	ldr	r2, [r3, #0]
 800467a:	429a      	cmp	r2, r3
 800467c:	d103      	bne.n	8004686 <chSysUnlock.lto_priv.12+0x16>
 800467e:	2300      	movs	r3, #0
 8004680:	f383 8811 	msr	BASEPRI, r3
}
 8004684:	bd08      	pop	{r3, pc}
  chDbgAssert((currcore->rlist.pqueue.next == &currcore->rlist.pqueue) ||
 8004686:	68d9      	ldr	r1, [r3, #12]
 8004688:	6893      	ldr	r3, [r2, #8]
 800468a:	688a      	ldr	r2, [r1, #8]
 800468c:	429a      	cmp	r2, r3
 800468e:	d2f6      	bcs.n	800467e <chSysUnlock.lto_priv.12+0xe>
 8004690:	4802      	ldr	r0, [pc, #8]	; (800469c <chSysUnlock.lto_priv.12+0x2c>)
 8004692:	f7fc faf5 	bl	8000c80 <chSysHalt>
 8004696:	bf00      	nop
 8004698:	20000ec8 	.word	0x20000ec8
 800469c:	08007cc4 	.word	0x08007cc4

080046a0 <Vector58>:
/**
 * @brief   EXTI[0] interrupt handler.
 *
 * @isr
 */
OSAL_IRQ_HANDLER(STM32_EXTI0_HANDLER) {
 80046a0:	b538      	push	{r3, r4, r5, lr}
  if ((oip->trace_buffer.suspended & CH_DBG_TRACE_MASK_ISR) == 0U) {
 80046a2:	4c33      	ldr	r4, [pc, #204]	; (8004770 <Vector58+0xd0>)
 80046a4:	f8b4 3094 	ldrh.w	r3, [r4, #148]	; 0x94
 80046a8:	f013 0504 	ands.w	r5, r3, #4
 80046ac:	d045      	beq.n	800473a <Vector58+0x9a>
 80046ae:	2330      	movs	r3, #48	; 0x30
 80046b0:	f383 8811 	msr	BASEPRI, r3
  if (unlikely((oip->dbg.isr_cnt < (cnt_t)0) ||
 80046b4:	f8d4 308c 	ldr.w	r3, [r4, #140]	; 0x8c
 80046b8:	2b00      	cmp	r3, #0
 80046ba:	db52      	blt.n	8004762 <Vector58+0xc2>
 80046bc:	f8d4 2090 	ldr.w	r2, [r4, #144]	; 0x90
 80046c0:	2a00      	cmp	r2, #0
 80046c2:	d14e      	bne.n	8004762 <Vector58+0xc2>
  oip->dbg.isr_cnt++;
 80046c4:	3301      	adds	r3, #1
 80046c6:	f8c4 308c 	str.w	r3, [r4, #140]	; 0x8c
 80046ca:	f382 8811 	msr	BASEPRI, r2
  uint32_t pr;

  OSAL_IRQ_PROLOGUE();

  extiGetAndClearGroup1(1U << 0, pr);
 80046ce:	4a29      	ldr	r2, [pc, #164]	; (8004774 <Vector58+0xd4>)
 80046d0:	6953      	ldr	r3, [r2, #20]
 80046d2:	f003 0301 	and.w	r3, r3, #1
 80046d6:	6153      	str	r3, [r2, #20]

  exti_serve_irq(pr, 0);
 80046d8:	b9c3      	cbnz	r3, 800470c <Vector58+0x6c>
 80046da:	2130      	movs	r1, #48	; 0x30
 80046dc:	f381 8811 	msr	BASEPRI, r1
  if (unlikely((oip->dbg.isr_cnt <= (cnt_t)0) ||
 80046e0:	f8d4 308c 	ldr.w	r3, [r4, #140]	; 0x8c
 80046e4:	2b00      	cmp	r3, #0
 80046e6:	dd3f      	ble.n	8004768 <Vector58+0xc8>
 80046e8:	f8d4 2090 	ldr.w	r2, [r4, #144]	; 0x90
 80046ec:	2a00      	cmp	r2, #0
 80046ee:	d13b      	bne.n	8004768 <Vector58+0xc8>
  oip->dbg.isr_cnt--;
 80046f0:	3b01      	subs	r3, #1
 80046f2:	f8c4 308c 	str.w	r3, [r4, #140]	; 0x8c
 80046f6:	f382 8811 	msr	BASEPRI, r2
  if ((oip->trace_buffer.suspended & CH_DBG_TRACE_MASK_ISR) == 0U) {
 80046fa:	f8b4 3094 	ldrh.w	r3, [r4, #148]	; 0x94
 80046fe:	f013 0504 	ands.w	r5, r3, #4
 8004702:	d00a      	beq.n	800471a <Vector58+0x7a>

  OSAL_IRQ_EPILOGUE();
}
 8004704:	e8bd 4038 	ldmia.w	sp!, {r3, r4, r5, lr}
  OSAL_IRQ_EPILOGUE();
 8004708:	f7fc b9b2 	b.w	8000a70 <__port_irq_epilogue>
  exti_serve_irq(pr, 0);
 800470c:	4a1a      	ldr	r2, [pc, #104]	; (8004778 <Vector58+0xd8>)
 800470e:	6813      	ldr	r3, [r2, #0]
 8004710:	2b00      	cmp	r3, #0
 8004712:	d0e2      	beq.n	80046da <Vector58+0x3a>
 8004714:	6850      	ldr	r0, [r2, #4]
 8004716:	4798      	blx	r3
 8004718:	e7df      	b.n	80046da <Vector58+0x3a>
 800471a:	f381 8811 	msr	BASEPRI, r1
    oip->trace_buffer.ptr->type        = CH_TRACE_TYPE_ISR_LEAVE;
 800471e:	f8d4 3098 	ldr.w	r3, [r4, #152]	; 0x98
    oip->trace_buffer.ptr->u.isr.name  = isr;
 8004722:	4a16      	ldr	r2, [pc, #88]	; (800477c <Vector58+0xdc>)
 8004724:	609a      	str	r2, [r3, #8]
    oip->trace_buffer.ptr->type        = CH_TRACE_TYPE_ISR_LEAVE;
 8004726:	2104      	movs	r1, #4
 8004728:	7019      	strb	r1, [r3, #0]
    trace_next(oip);
 800472a:	f7fc fa89 	bl	8000c40 <trace_next.constprop.0>
 800472e:	f385 8811 	msr	BASEPRI, r5
}
 8004732:	e8bd 4038 	ldmia.w	sp!, {r3, r4, r5, lr}
  OSAL_IRQ_EPILOGUE();
 8004736:	f7fc b99b 	b.w	8000a70 <__port_irq_epilogue>
 800473a:	2330      	movs	r3, #48	; 0x30
 800473c:	f383 8811 	msr	BASEPRI, r3
    oip->trace_buffer.ptr->type        = CH_TRACE_TYPE_ISR_ENTER;
 8004740:	f8d4 3098 	ldr.w	r3, [r4, #152]	; 0x98
    oip->trace_buffer.ptr->u.isr.name  = isr;
 8004744:	4a0d      	ldr	r2, [pc, #52]	; (800477c <Vector58+0xdc>)
 8004746:	609a      	str	r2, [r3, #8]
    oip->trace_buffer.ptr->type        = CH_TRACE_TYPE_ISR_ENTER;
 8004748:	2103      	movs	r1, #3
 800474a:	7019      	strb	r1, [r3, #0]
    trace_next(oip);
 800474c:	f7fc fa78 	bl	8000c40 <trace_next.constprop.0>
 8004750:	f385 8811 	msr	BASEPRI, r5
 8004754:	2330      	movs	r3, #48	; 0x30
 8004756:	f383 8811 	msr	BASEPRI, r3
  if (unlikely((oip->dbg.isr_cnt < (cnt_t)0) ||
 800475a:	f8d4 308c 	ldr.w	r3, [r4, #140]	; 0x8c
 800475e:	2b00      	cmp	r3, #0
 8004760:	daac      	bge.n	80046bc <Vector58+0x1c>
    chSysHalt("SV#8");
 8004762:	4807      	ldr	r0, [pc, #28]	; (8004780 <Vector58+0xe0>)
 8004764:	f7fc fa8c 	bl	8000c80 <chSysHalt>
    chSysHalt("SV#9");
 8004768:	4806      	ldr	r0, [pc, #24]	; (8004784 <Vector58+0xe4>)
 800476a:	f7fc fa89 	bl	8000c80 <chSysHalt>
 800476e:	bf00      	nop
 8004770:	20000ec8 	.word	0x20000ec8
 8004774:	40013c00 	.word	0x40013c00
 8004778:	20000e40 	.word	0x20000e40
 800477c:	08007e58 	.word	0x08007e58
 8004780:	08007b64 	.word	0x08007b64
 8004784:	08007b6c 	.word	0x08007b6c
	...

08004790 <Vector5C>:
/**
 * @brief   EXTI[1] interrupt handler.
 *
 * @isr
 */
OSAL_IRQ_HANDLER(STM32_EXTI1_HANDLER) {
 8004790:	b538      	push	{r3, r4, r5, lr}
  if ((oip->trace_buffer.suspended & CH_DBG_TRACE_MASK_ISR) == 0U) {
 8004792:	4c33      	ldr	r4, [pc, #204]	; (8004860 <Vector5C+0xd0>)
 8004794:	f8b4 3094 	ldrh.w	r3, [r4, #148]	; 0x94
 8004798:	f013 0504 	ands.w	r5, r3, #4
 800479c:	d045      	beq.n	800482a <Vector5C+0x9a>
 800479e:	2330      	movs	r3, #48	; 0x30
 80047a0:	f383 8811 	msr	BASEPRI, r3
  if (unlikely((oip->dbg.isr_cnt < (cnt_t)0) ||
 80047a4:	f8d4 308c 	ldr.w	r3, [r4, #140]	; 0x8c
 80047a8:	2b00      	cmp	r3, #0
 80047aa:	db52      	blt.n	8004852 <Vector5C+0xc2>
 80047ac:	f8d4 2090 	ldr.w	r2, [r4, #144]	; 0x90
 80047b0:	2a00      	cmp	r2, #0
 80047b2:	d14e      	bne.n	8004852 <Vector5C+0xc2>
  oip->dbg.isr_cnt++;
 80047b4:	3301      	adds	r3, #1
 80047b6:	f8c4 308c 	str.w	r3, [r4, #140]	; 0x8c
 80047ba:	f382 8811 	msr	BASEPRI, r2
  uint32_t pr;

  OSAL_IRQ_PROLOGUE();

  extiGetAndClearGroup1(1U << 1, pr);
 80047be:	4a29      	ldr	r2, [pc, #164]	; (8004864 <Vector5C+0xd4>)
 80047c0:	6953      	ldr	r3, [r2, #20]
 80047c2:	f003 0302 	and.w	r3, r3, #2
 80047c6:	6153      	str	r3, [r2, #20]

  exti_serve_irq(pr, 1);
 80047c8:	b9c3      	cbnz	r3, 80047fc <Vector5C+0x6c>
 80047ca:	2130      	movs	r1, #48	; 0x30
 80047cc:	f381 8811 	msr	BASEPRI, r1
  if (unlikely((oip->dbg.isr_cnt <= (cnt_t)0) ||
 80047d0:	f8d4 308c 	ldr.w	r3, [r4, #140]	; 0x8c
 80047d4:	2b00      	cmp	r3, #0
 80047d6:	dd3f      	ble.n	8004858 <Vector5C+0xc8>
 80047d8:	f8d4 2090 	ldr.w	r2, [r4, #144]	; 0x90
 80047dc:	2a00      	cmp	r2, #0
 80047de:	d13b      	bne.n	8004858 <Vector5C+0xc8>
  oip->dbg.isr_cnt--;
 80047e0:	3b01      	subs	r3, #1
 80047e2:	f8c4 308c 	str.w	r3, [r4, #140]	; 0x8c
 80047e6:	f382 8811 	msr	BASEPRI, r2
  if ((oip->trace_buffer.suspended & CH_DBG_TRACE_MASK_ISR) == 0U) {
 80047ea:	f8b4 3094 	ldrh.w	r3, [r4, #148]	; 0x94
 80047ee:	f013 0504 	ands.w	r5, r3, #4
 80047f2:	d00a      	beq.n	800480a <Vector5C+0x7a>

  OSAL_IRQ_EPILOGUE();
}
 80047f4:	e8bd 4038 	ldmia.w	sp!, {r3, r4, r5, lr}
  OSAL_IRQ_EPILOGUE();
 80047f8:	f7fc b93a 	b.w	8000a70 <__port_irq_epilogue>
  exti_serve_irq(pr, 1);
 80047fc:	4a1a      	ldr	r2, [pc, #104]	; (8004868 <Vector5C+0xd8>)
 80047fe:	6893      	ldr	r3, [r2, #8]
 8004800:	2b00      	cmp	r3, #0
 8004802:	d0e2      	beq.n	80047ca <Vector5C+0x3a>
 8004804:	68d0      	ldr	r0, [r2, #12]
 8004806:	4798      	blx	r3
 8004808:	e7df      	b.n	80047ca <Vector5C+0x3a>
 800480a:	f381 8811 	msr	BASEPRI, r1
    oip->trace_buffer.ptr->type        = CH_TRACE_TYPE_ISR_LEAVE;
 800480e:	f8d4 3098 	ldr.w	r3, [r4, #152]	; 0x98
    oip->trace_buffer.ptr->u.isr.name  = isr;
 8004812:	4a16      	ldr	r2, [pc, #88]	; (800486c <Vector5C+0xdc>)
 8004814:	609a      	str	r2, [r3, #8]
    oip->trace_buffer.ptr->type        = CH_TRACE_TYPE_ISR_LEAVE;
 8004816:	2104      	movs	r1, #4
 8004818:	7019      	strb	r1, [r3, #0]
    trace_next(oip);
 800481a:	f7fc fa11 	bl	8000c40 <trace_next.constprop.0>
 800481e:	f385 8811 	msr	BASEPRI, r5
}
 8004822:	e8bd 4038 	ldmia.w	sp!, {r3, r4, r5, lr}
  OSAL_IRQ_EPILOGUE();
 8004826:	f7fc b923 	b.w	8000a70 <__port_irq_epilogue>
 800482a:	2330      	movs	r3, #48	; 0x30
 800482c:	f383 8811 	msr	BASEPRI, r3
    oip->trace_buffer.ptr->type        = CH_TRACE_TYPE_ISR_ENTER;
 8004830:	f8d4 3098 	ldr.w	r3, [r4, #152]	; 0x98
    oip->trace_buffer.ptr->u.isr.name  = isr;
 8004834:	4a0d      	ldr	r2, [pc, #52]	; (800486c <Vector5C+0xdc>)
 8004836:	609a      	str	r2, [r3, #8]
    oip->trace_buffer.ptr->type        = CH_TRACE_TYPE_ISR_ENTER;
 8004838:	2103      	movs	r1, #3
 800483a:	7019      	strb	r1, [r3, #0]
    trace_next(oip);
 800483c:	f7fc fa00 	bl	8000c40 <trace_next.constprop.0>
 8004840:	f385 8811 	msr	BASEPRI, r5
 8004844:	2330      	movs	r3, #48	; 0x30
 8004846:	f383 8811 	msr	BASEPRI, r3
  if (unlikely((oip->dbg.isr_cnt < (cnt_t)0) ||
 800484a:	f8d4 308c 	ldr.w	r3, [r4, #140]	; 0x8c
 800484e:	2b00      	cmp	r3, #0
 8004850:	daac      	bge.n	80047ac <Vector5C+0x1c>
    chSysHalt("SV#8");
 8004852:	4807      	ldr	r0, [pc, #28]	; (8004870 <Vector5C+0xe0>)
 8004854:	f7fc fa14 	bl	8000c80 <chSysHalt>
    chSysHalt("SV#9");
 8004858:	4806      	ldr	r0, [pc, #24]	; (8004874 <Vector5C+0xe4>)
 800485a:	f7fc fa11 	bl	8000c80 <chSysHalt>
 800485e:	bf00      	nop
 8004860:	20000ec8 	.word	0x20000ec8
 8004864:	40013c00 	.word	0x40013c00
 8004868:	20000e40 	.word	0x20000e40
 800486c:	08007e40 	.word	0x08007e40
 8004870:	08007b64 	.word	0x08007b64
 8004874:	08007b6c 	.word	0x08007b6c
	...

08004880 <Vector60>:
/**
 * @brief   EXTI[2] interrupt handler.
 *
 * @isr
 */
OSAL_IRQ_HANDLER(STM32_EXTI2_HANDLER) {
 8004880:	b538      	push	{r3, r4, r5, lr}
  if ((oip->trace_buffer.suspended & CH_DBG_TRACE_MASK_ISR) == 0U) {
 8004882:	4c33      	ldr	r4, [pc, #204]	; (8004950 <Vector60+0xd0>)
 8004884:	f8b4 3094 	ldrh.w	r3, [r4, #148]	; 0x94
 8004888:	f013 0504 	ands.w	r5, r3, #4
 800488c:	d045      	beq.n	800491a <Vector60+0x9a>
 800488e:	2330      	movs	r3, #48	; 0x30
 8004890:	f383 8811 	msr	BASEPRI, r3
  if (unlikely((oip->dbg.isr_cnt < (cnt_t)0) ||
 8004894:	f8d4 308c 	ldr.w	r3, [r4, #140]	; 0x8c
 8004898:	2b00      	cmp	r3, #0
 800489a:	db52      	blt.n	8004942 <Vector60+0xc2>
 800489c:	f8d4 2090 	ldr.w	r2, [r4, #144]	; 0x90
 80048a0:	2a00      	cmp	r2, #0
 80048a2:	d14e      	bne.n	8004942 <Vector60+0xc2>
  oip->dbg.isr_cnt++;
 80048a4:	3301      	adds	r3, #1
 80048a6:	f8c4 308c 	str.w	r3, [r4, #140]	; 0x8c
 80048aa:	f382 8811 	msr	BASEPRI, r2
  uint32_t pr;

  OSAL_IRQ_PROLOGUE();

  extiGetAndClearGroup1(1U << 2, pr);
 80048ae:	4a29      	ldr	r2, [pc, #164]	; (8004954 <Vector60+0xd4>)
 80048b0:	6953      	ldr	r3, [r2, #20]
 80048b2:	f003 0304 	and.w	r3, r3, #4
 80048b6:	6153      	str	r3, [r2, #20]

  exti_serve_irq(pr, 2);
 80048b8:	b9c3      	cbnz	r3, 80048ec <Vector60+0x6c>
 80048ba:	2130      	movs	r1, #48	; 0x30
 80048bc:	f381 8811 	msr	BASEPRI, r1
  if (unlikely((oip->dbg.isr_cnt <= (cnt_t)0) ||
 80048c0:	f8d4 308c 	ldr.w	r3, [r4, #140]	; 0x8c
 80048c4:	2b00      	cmp	r3, #0
 80048c6:	dd3f      	ble.n	8004948 <Vector60+0xc8>
 80048c8:	f8d4 2090 	ldr.w	r2, [r4, #144]	; 0x90
 80048cc:	2a00      	cmp	r2, #0
 80048ce:	d13b      	bne.n	8004948 <Vector60+0xc8>
  oip->dbg.isr_cnt--;
 80048d0:	3b01      	subs	r3, #1
 80048d2:	f8c4 308c 	str.w	r3, [r4, #140]	; 0x8c
 80048d6:	f382 8811 	msr	BASEPRI, r2
  if ((oip->trace_buffer.suspended & CH_DBG_TRACE_MASK_ISR) == 0U) {
 80048da:	f8b4 3094 	ldrh.w	r3, [r4, #148]	; 0x94
 80048de:	f013 0504 	ands.w	r5, r3, #4
 80048e2:	d00a      	beq.n	80048fa <Vector60+0x7a>

  OSAL_IRQ_EPILOGUE();
}
 80048e4:	e8bd 4038 	ldmia.w	sp!, {r3, r4, r5, lr}
  OSAL_IRQ_EPILOGUE();
 80048e8:	f7fc b8c2 	b.w	8000a70 <__port_irq_epilogue>
  exti_serve_irq(pr, 2);
 80048ec:	4a1a      	ldr	r2, [pc, #104]	; (8004958 <Vector60+0xd8>)
 80048ee:	6913      	ldr	r3, [r2, #16]
 80048f0:	2b00      	cmp	r3, #0
 80048f2:	d0e2      	beq.n	80048ba <Vector60+0x3a>
 80048f4:	6950      	ldr	r0, [r2, #20]
 80048f6:	4798      	blx	r3
 80048f8:	e7df      	b.n	80048ba <Vector60+0x3a>
 80048fa:	f381 8811 	msr	BASEPRI, r1
    oip->trace_buffer.ptr->type        = CH_TRACE_TYPE_ISR_LEAVE;
 80048fe:	f8d4 3098 	ldr.w	r3, [r4, #152]	; 0x98
    oip->trace_buffer.ptr->u.isr.name  = isr;
 8004902:	4a16      	ldr	r2, [pc, #88]	; (800495c <Vector60+0xdc>)
 8004904:	609a      	str	r2, [r3, #8]
    oip->trace_buffer.ptr->type        = CH_TRACE_TYPE_ISR_LEAVE;
 8004906:	2104      	movs	r1, #4
 8004908:	7019      	strb	r1, [r3, #0]
    trace_next(oip);
 800490a:	f7fc f999 	bl	8000c40 <trace_next.constprop.0>
 800490e:	f385 8811 	msr	BASEPRI, r5
}
 8004912:	e8bd 4038 	ldmia.w	sp!, {r3, r4, r5, lr}
  OSAL_IRQ_EPILOGUE();
 8004916:	f7fc b8ab 	b.w	8000a70 <__port_irq_epilogue>
 800491a:	2330      	movs	r3, #48	; 0x30
 800491c:	f383 8811 	msr	BASEPRI, r3
    oip->trace_buffer.ptr->type        = CH_TRACE_TYPE_ISR_ENTER;
 8004920:	f8d4 3098 	ldr.w	r3, [r4, #152]	; 0x98
    oip->trace_buffer.ptr->u.isr.name  = isr;
 8004924:	4a0d      	ldr	r2, [pc, #52]	; (800495c <Vector60+0xdc>)
 8004926:	609a      	str	r2, [r3, #8]
    oip->trace_buffer.ptr->type        = CH_TRACE_TYPE_ISR_ENTER;
 8004928:	2103      	movs	r1, #3
 800492a:	7019      	strb	r1, [r3, #0]
    trace_next(oip);
 800492c:	f7fc f988 	bl	8000c40 <trace_next.constprop.0>
 8004930:	f385 8811 	msr	BASEPRI, r5
 8004934:	2330      	movs	r3, #48	; 0x30
 8004936:	f383 8811 	msr	BASEPRI, r3
  if (unlikely((oip->dbg.isr_cnt < (cnt_t)0) ||
 800493a:	f8d4 308c 	ldr.w	r3, [r4, #140]	; 0x8c
 800493e:	2b00      	cmp	r3, #0
 8004940:	daac      	bge.n	800489c <Vector60+0x1c>
    chSysHalt("SV#8");
 8004942:	4807      	ldr	r0, [pc, #28]	; (8004960 <Vector60+0xe0>)
 8004944:	f7fc f99c 	bl	8000c80 <chSysHalt>
    chSysHalt("SV#9");
 8004948:	4806      	ldr	r0, [pc, #24]	; (8004964 <Vector60+0xe4>)
 800494a:	f7fc f999 	bl	8000c80 <chSysHalt>
 800494e:	bf00      	nop
 8004950:	20000ec8 	.word	0x20000ec8
 8004954:	40013c00 	.word	0x40013c00
 8004958:	20000e40 	.word	0x20000e40
 800495c:	080080e8 	.word	0x080080e8
 8004960:	08007b64 	.word	0x08007b64
 8004964:	08007b6c 	.word	0x08007b6c
	...

08004970 <Vector64>:
/**
 * @brief   EXTI[3] interrupt handler.
 *
 * @isr
 */
OSAL_IRQ_HANDLER(STM32_EXTI3_HANDLER) {
 8004970:	b538      	push	{r3, r4, r5, lr}
  if ((oip->trace_buffer.suspended & CH_DBG_TRACE_MASK_ISR) == 0U) {
 8004972:	4c33      	ldr	r4, [pc, #204]	; (8004a40 <Vector64+0xd0>)
 8004974:	f8b4 3094 	ldrh.w	r3, [r4, #148]	; 0x94
 8004978:	f013 0504 	ands.w	r5, r3, #4
 800497c:	d045      	beq.n	8004a0a <Vector64+0x9a>
 800497e:	2330      	movs	r3, #48	; 0x30
 8004980:	f383 8811 	msr	BASEPRI, r3
  if (unlikely((oip->dbg.isr_cnt < (cnt_t)0) ||
 8004984:	f8d4 308c 	ldr.w	r3, [r4, #140]	; 0x8c
 8004988:	2b00      	cmp	r3, #0
 800498a:	db52      	blt.n	8004a32 <Vector64+0xc2>
 800498c:	f8d4 2090 	ldr.w	r2, [r4, #144]	; 0x90
 8004990:	2a00      	cmp	r2, #0
 8004992:	d14e      	bne.n	8004a32 <Vector64+0xc2>
  oip->dbg.isr_cnt++;
 8004994:	3301      	adds	r3, #1
 8004996:	f8c4 308c 	str.w	r3, [r4, #140]	; 0x8c
 800499a:	f382 8811 	msr	BASEPRI, r2
  uint32_t pr;

  OSAL_IRQ_PROLOGUE();

  extiGetAndClearGroup1(1U << 3, pr);
 800499e:	4a29      	ldr	r2, [pc, #164]	; (8004a44 <Vector64+0xd4>)
 80049a0:	6953      	ldr	r3, [r2, #20]
 80049a2:	f003 0308 	and.w	r3, r3, #8
 80049a6:	6153      	str	r3, [r2, #20]

  exti_serve_irq(pr, 3);
 80049a8:	b9c3      	cbnz	r3, 80049dc <Vector64+0x6c>
 80049aa:	2130      	movs	r1, #48	; 0x30
 80049ac:	f381 8811 	msr	BASEPRI, r1
  if (unlikely((oip->dbg.isr_cnt <= (cnt_t)0) ||
 80049b0:	f8d4 308c 	ldr.w	r3, [r4, #140]	; 0x8c
 80049b4:	2b00      	cmp	r3, #0
 80049b6:	dd3f      	ble.n	8004a38 <Vector64+0xc8>
 80049b8:	f8d4 2090 	ldr.w	r2, [r4, #144]	; 0x90
 80049bc:	2a00      	cmp	r2, #0
 80049be:	d13b      	bne.n	8004a38 <Vector64+0xc8>
  oip->dbg.isr_cnt--;
 80049c0:	3b01      	subs	r3, #1
 80049c2:	f8c4 308c 	str.w	r3, [r4, #140]	; 0x8c
 80049c6:	f382 8811 	msr	BASEPRI, r2
  if ((oip->trace_buffer.suspended & CH_DBG_TRACE_MASK_ISR) == 0U) {
 80049ca:	f8b4 3094 	ldrh.w	r3, [r4, #148]	; 0x94
 80049ce:	f013 0504 	ands.w	r5, r3, #4
 80049d2:	d00a      	beq.n	80049ea <Vector64+0x7a>

  OSAL_IRQ_EPILOGUE();
}
 80049d4:	e8bd 4038 	ldmia.w	sp!, {r3, r4, r5, lr}
  OSAL_IRQ_EPILOGUE();
 80049d8:	f7fc b84a 	b.w	8000a70 <__port_irq_epilogue>
  exti_serve_irq(pr, 3);
 80049dc:	4a1a      	ldr	r2, [pc, #104]	; (8004a48 <Vector64+0xd8>)
 80049de:	6993      	ldr	r3, [r2, #24]
 80049e0:	2b00      	cmp	r3, #0
 80049e2:	d0e2      	beq.n	80049aa <Vector64+0x3a>
 80049e4:	69d0      	ldr	r0, [r2, #28]
 80049e6:	4798      	blx	r3
 80049e8:	e7df      	b.n	80049aa <Vector64+0x3a>
 80049ea:	f381 8811 	msr	BASEPRI, r1
    oip->trace_buffer.ptr->type        = CH_TRACE_TYPE_ISR_LEAVE;
 80049ee:	f8d4 3098 	ldr.w	r3, [r4, #152]	; 0x98
    oip->trace_buffer.ptr->u.isr.name  = isr;
 80049f2:	4a16      	ldr	r2, [pc, #88]	; (8004a4c <Vector64+0xdc>)
 80049f4:	609a      	str	r2, [r3, #8]
    oip->trace_buffer.ptr->type        = CH_TRACE_TYPE_ISR_LEAVE;
 80049f6:	2104      	movs	r1, #4
 80049f8:	7019      	strb	r1, [r3, #0]
    trace_next(oip);
 80049fa:	f7fc f921 	bl	8000c40 <trace_next.constprop.0>
 80049fe:	f385 8811 	msr	BASEPRI, r5
}
 8004a02:	e8bd 4038 	ldmia.w	sp!, {r3, r4, r5, lr}
  OSAL_IRQ_EPILOGUE();
 8004a06:	f7fc b833 	b.w	8000a70 <__port_irq_epilogue>
 8004a0a:	2330      	movs	r3, #48	; 0x30
 8004a0c:	f383 8811 	msr	BASEPRI, r3
    oip->trace_buffer.ptr->type        = CH_TRACE_TYPE_ISR_ENTER;
 8004a10:	f8d4 3098 	ldr.w	r3, [r4, #152]	; 0x98
    oip->trace_buffer.ptr->u.isr.name  = isr;
 8004a14:	4a0d      	ldr	r2, [pc, #52]	; (8004a4c <Vector64+0xdc>)
 8004a16:	609a      	str	r2, [r3, #8]
    oip->trace_buffer.ptr->type        = CH_TRACE_TYPE_ISR_ENTER;
 8004a18:	2103      	movs	r1, #3
 8004a1a:	7019      	strb	r1, [r3, #0]
    trace_next(oip);
 8004a1c:	f7fc f910 	bl	8000c40 <trace_next.constprop.0>
 8004a20:	f385 8811 	msr	BASEPRI, r5
 8004a24:	2330      	movs	r3, #48	; 0x30
 8004a26:	f383 8811 	msr	BASEPRI, r3
  if (unlikely((oip->dbg.isr_cnt < (cnt_t)0) ||
 8004a2a:	f8d4 308c 	ldr.w	r3, [r4, #140]	; 0x8c
 8004a2e:	2b00      	cmp	r3, #0
 8004a30:	daac      	bge.n	800498c <Vector64+0x1c>
    chSysHalt("SV#8");
 8004a32:	4807      	ldr	r0, [pc, #28]	; (8004a50 <Vector64+0xe0>)
 8004a34:	f7fc f924 	bl	8000c80 <chSysHalt>
    chSysHalt("SV#9");
 8004a38:	4806      	ldr	r0, [pc, #24]	; (8004a54 <Vector64+0xe4>)
 8004a3a:	f7fc f921 	bl	8000c80 <chSysHalt>
 8004a3e:	bf00      	nop
 8004a40:	20000ec8 	.word	0x20000ec8
 8004a44:	40013c00 	.word	0x40013c00
 8004a48:	20000e40 	.word	0x20000e40
 8004a4c:	080080bc 	.word	0x080080bc
 8004a50:	08007b64 	.word	0x08007b64
 8004a54:	08007b6c 	.word	0x08007b6c
	...

08004a60 <Vector68>:
/**
 * @brief   EXTI[4] interrupt handler.
 *
 * @isr
 */
OSAL_IRQ_HANDLER(STM32_EXTI4_HANDLER) {
 8004a60:	b538      	push	{r3, r4, r5, lr}
  if ((oip->trace_buffer.suspended & CH_DBG_TRACE_MASK_ISR) == 0U) {
 8004a62:	4c33      	ldr	r4, [pc, #204]	; (8004b30 <Vector68+0xd0>)
 8004a64:	f8b4 3094 	ldrh.w	r3, [r4, #148]	; 0x94
 8004a68:	f013 0504 	ands.w	r5, r3, #4
 8004a6c:	d045      	beq.n	8004afa <Vector68+0x9a>
 8004a6e:	2330      	movs	r3, #48	; 0x30
 8004a70:	f383 8811 	msr	BASEPRI, r3
  if (unlikely((oip->dbg.isr_cnt < (cnt_t)0) ||
 8004a74:	f8d4 308c 	ldr.w	r3, [r4, #140]	; 0x8c
 8004a78:	2b00      	cmp	r3, #0
 8004a7a:	db52      	blt.n	8004b22 <Vector68+0xc2>
 8004a7c:	f8d4 2090 	ldr.w	r2, [r4, #144]	; 0x90
 8004a80:	2a00      	cmp	r2, #0
 8004a82:	d14e      	bne.n	8004b22 <Vector68+0xc2>
  oip->dbg.isr_cnt++;
 8004a84:	3301      	adds	r3, #1
 8004a86:	f8c4 308c 	str.w	r3, [r4, #140]	; 0x8c
 8004a8a:	f382 8811 	msr	BASEPRI, r2
  uint32_t pr;

  OSAL_IRQ_PROLOGUE();

  extiGetAndClearGroup1(1U << 4, pr);
 8004a8e:	4a29      	ldr	r2, [pc, #164]	; (8004b34 <Vector68+0xd4>)
 8004a90:	6953      	ldr	r3, [r2, #20]
 8004a92:	f003 0310 	and.w	r3, r3, #16
 8004a96:	6153      	str	r3, [r2, #20]

  exti_serve_irq(pr, 4);
 8004a98:	b9c3      	cbnz	r3, 8004acc <Vector68+0x6c>
 8004a9a:	2130      	movs	r1, #48	; 0x30
 8004a9c:	f381 8811 	msr	BASEPRI, r1
  if (unlikely((oip->dbg.isr_cnt <= (cnt_t)0) ||
 8004aa0:	f8d4 308c 	ldr.w	r3, [r4, #140]	; 0x8c
 8004aa4:	2b00      	cmp	r3, #0
 8004aa6:	dd3f      	ble.n	8004b28 <Vector68+0xc8>
 8004aa8:	f8d4 2090 	ldr.w	r2, [r4, #144]	; 0x90
 8004aac:	2a00      	cmp	r2, #0
 8004aae:	d13b      	bne.n	8004b28 <Vector68+0xc8>
  oip->dbg.isr_cnt--;
 8004ab0:	3b01      	subs	r3, #1
 8004ab2:	f8c4 308c 	str.w	r3, [r4, #140]	; 0x8c
 8004ab6:	f382 8811 	msr	BASEPRI, r2
  if ((oip->trace_buffer.suspended & CH_DBG_TRACE_MASK_ISR) == 0U) {
 8004aba:	f8b4 3094 	ldrh.w	r3, [r4, #148]	; 0x94
 8004abe:	f013 0504 	ands.w	r5, r3, #4
 8004ac2:	d00a      	beq.n	8004ada <Vector68+0x7a>

  OSAL_IRQ_EPILOGUE();
}
 8004ac4:	e8bd 4038 	ldmia.w	sp!, {r3, r4, r5, lr}
  OSAL_IRQ_EPILOGUE();
 8004ac8:	f7fb bfd2 	b.w	8000a70 <__port_irq_epilogue>
  exti_serve_irq(pr, 4);
 8004acc:	4a1a      	ldr	r2, [pc, #104]	; (8004b38 <Vector68+0xd8>)
 8004ace:	6a13      	ldr	r3, [r2, #32]
 8004ad0:	2b00      	cmp	r3, #0
 8004ad2:	d0e2      	beq.n	8004a9a <Vector68+0x3a>
 8004ad4:	6a50      	ldr	r0, [r2, #36]	; 0x24
 8004ad6:	4798      	blx	r3
 8004ad8:	e7df      	b.n	8004a9a <Vector68+0x3a>
 8004ada:	f381 8811 	msr	BASEPRI, r1
    oip->trace_buffer.ptr->type        = CH_TRACE_TYPE_ISR_LEAVE;
 8004ade:	f8d4 3098 	ldr.w	r3, [r4, #152]	; 0x98
    oip->trace_buffer.ptr->u.isr.name  = isr;
 8004ae2:	4a16      	ldr	r2, [pc, #88]	; (8004b3c <Vector68+0xdc>)
 8004ae4:	609a      	str	r2, [r3, #8]
    oip->trace_buffer.ptr->type        = CH_TRACE_TYPE_ISR_LEAVE;
 8004ae6:	2104      	movs	r1, #4
 8004ae8:	7019      	strb	r1, [r3, #0]
    trace_next(oip);
 8004aea:	f7fc f8a9 	bl	8000c40 <trace_next.constprop.0>
 8004aee:	f385 8811 	msr	BASEPRI, r5
}
 8004af2:	e8bd 4038 	ldmia.w	sp!, {r3, r4, r5, lr}
  OSAL_IRQ_EPILOGUE();
 8004af6:	f7fb bfbb 	b.w	8000a70 <__port_irq_epilogue>
 8004afa:	2330      	movs	r3, #48	; 0x30
 8004afc:	f383 8811 	msr	BASEPRI, r3
    oip->trace_buffer.ptr->type        = CH_TRACE_TYPE_ISR_ENTER;
 8004b00:	f8d4 3098 	ldr.w	r3, [r4, #152]	; 0x98
    oip->trace_buffer.ptr->u.isr.name  = isr;
 8004b04:	4a0d      	ldr	r2, [pc, #52]	; (8004b3c <Vector68+0xdc>)
 8004b06:	609a      	str	r2, [r3, #8]
    oip->trace_buffer.ptr->type        = CH_TRACE_TYPE_ISR_ENTER;
 8004b08:	2103      	movs	r1, #3
 8004b0a:	7019      	strb	r1, [r3, #0]
    trace_next(oip);
 8004b0c:	f7fc f898 	bl	8000c40 <trace_next.constprop.0>
 8004b10:	f385 8811 	msr	BASEPRI, r5
 8004b14:	2330      	movs	r3, #48	; 0x30
 8004b16:	f383 8811 	msr	BASEPRI, r3
  if (unlikely((oip->dbg.isr_cnt < (cnt_t)0) ||
 8004b1a:	f8d4 308c 	ldr.w	r3, [r4, #140]	; 0x8c
 8004b1e:	2b00      	cmp	r3, #0
 8004b20:	daac      	bge.n	8004a7c <Vector68+0x1c>
    chSysHalt("SV#8");
 8004b22:	4807      	ldr	r0, [pc, #28]	; (8004b40 <Vector68+0xe0>)
 8004b24:	f7fc f8ac 	bl	8000c80 <chSysHalt>
    chSysHalt("SV#9");
 8004b28:	4806      	ldr	r0, [pc, #24]	; (8004b44 <Vector68+0xe4>)
 8004b2a:	f7fc f8a9 	bl	8000c80 <chSysHalt>
 8004b2e:	bf00      	nop
 8004b30:	20000ec8 	.word	0x20000ec8
 8004b34:	40013c00 	.word	0x40013c00
 8004b38:	20000e40 	.word	0x20000e40
 8004b3c:	0800808c 	.word	0x0800808c
 8004b40:	08007b64 	.word	0x08007b64
 8004b44:	08007b6c 	.word	0x08007b6c
	...

08004b50 <Vector9C>:
/**
 * @brief   EXTI[5]..EXTI[9] interrupt handler.
 *
 * @isr
 */
OSAL_IRQ_HANDLER(STM32_EXTI5_9_HANDLER) {
 8004b50:	b538      	push	{r3, r4, r5, lr}
  if ((oip->trace_buffer.suspended & CH_DBG_TRACE_MASK_ISR) == 0U) {
 8004b52:	4c41      	ldr	r4, [pc, #260]	; (8004c58 <Vector9C+0x108>)
 8004b54:	f8b4 3094 	ldrh.w	r3, [r4, #148]	; 0x94
 8004b58:	f013 0504 	ands.w	r5, r3, #4
 8004b5c:	d062      	beq.n	8004c24 <Vector9C+0xd4>
 8004b5e:	2330      	movs	r3, #48	; 0x30
 8004b60:	f383 8811 	msr	BASEPRI, r3
  if (unlikely((oip->dbg.isr_cnt < (cnt_t)0) ||
 8004b64:	f8d4 308c 	ldr.w	r3, [r4, #140]	; 0x8c
 8004b68:	2b00      	cmp	r3, #0
 8004b6a:	db6f      	blt.n	8004c4c <Vector9C+0xfc>
 8004b6c:	f8d4 2090 	ldr.w	r2, [r4, #144]	; 0x90
 8004b70:	2a00      	cmp	r2, #0
 8004b72:	d16b      	bne.n	8004c4c <Vector9C+0xfc>
  oip->dbg.isr_cnt++;
 8004b74:	3301      	adds	r3, #1
 8004b76:	f8c4 308c 	str.w	r3, [r4, #140]	; 0x8c
 8004b7a:	f382 8811 	msr	BASEPRI, r2
  uint32_t pr;

  OSAL_IRQ_PROLOGUE();

  extiGetAndClearGroup1((1U << 5) | (1U << 6) | (1U << 7) | (1U << 8) |
 8004b7e:	4b37      	ldr	r3, [pc, #220]	; (8004c5c <Vector9C+0x10c>)
 8004b80:	695d      	ldr	r5, [r3, #20]
 8004b82:	f405 7278 	and.w	r2, r5, #992	; 0x3e0
 8004b86:	615a      	str	r2, [r3, #20]
                        (1U << 9), pr);

  exti_serve_irq(pr, 5);
 8004b88:	06ab      	lsls	r3, r5, #26
 8004b8a:	d504      	bpl.n	8004b96 <Vector9C+0x46>
 8004b8c:	4a34      	ldr	r2, [pc, #208]	; (8004c60 <Vector9C+0x110>)
 8004b8e:	6a93      	ldr	r3, [r2, #40]	; 0x28
 8004b90:	b10b      	cbz	r3, 8004b96 <Vector9C+0x46>
 8004b92:	6ad0      	ldr	r0, [r2, #44]	; 0x2c
 8004b94:	4798      	blx	r3
  exti_serve_irq(pr, 6);
 8004b96:	0668      	lsls	r0, r5, #25
 8004b98:	d504      	bpl.n	8004ba4 <Vector9C+0x54>
 8004b9a:	4a31      	ldr	r2, [pc, #196]	; (8004c60 <Vector9C+0x110>)
 8004b9c:	6b13      	ldr	r3, [r2, #48]	; 0x30
 8004b9e:	b10b      	cbz	r3, 8004ba4 <Vector9C+0x54>
 8004ba0:	6b50      	ldr	r0, [r2, #52]	; 0x34
 8004ba2:	4798      	blx	r3
  exti_serve_irq(pr, 7);
 8004ba4:	0629      	lsls	r1, r5, #24
 8004ba6:	d504      	bpl.n	8004bb2 <Vector9C+0x62>
 8004ba8:	4a2d      	ldr	r2, [pc, #180]	; (8004c60 <Vector9C+0x110>)
 8004baa:	6b93      	ldr	r3, [r2, #56]	; 0x38
 8004bac:	b10b      	cbz	r3, 8004bb2 <Vector9C+0x62>
 8004bae:	6bd0      	ldr	r0, [r2, #60]	; 0x3c
 8004bb0:	4798      	blx	r3
  exti_serve_irq(pr, 8);
 8004bb2:	05ea      	lsls	r2, r5, #23
 8004bb4:	d504      	bpl.n	8004bc0 <Vector9C+0x70>
 8004bb6:	4a2a      	ldr	r2, [pc, #168]	; (8004c60 <Vector9C+0x110>)
 8004bb8:	6c13      	ldr	r3, [r2, #64]	; 0x40
 8004bba:	b10b      	cbz	r3, 8004bc0 <Vector9C+0x70>
 8004bbc:	6c50      	ldr	r0, [r2, #68]	; 0x44
 8004bbe:	4798      	blx	r3
  exti_serve_irq(pr, 9);
 8004bc0:	05ab      	lsls	r3, r5, #22
 8004bc2:	d418      	bmi.n	8004bf6 <Vector9C+0xa6>
 8004bc4:	2130      	movs	r1, #48	; 0x30
 8004bc6:	f381 8811 	msr	BASEPRI, r1
  if (unlikely((oip->dbg.isr_cnt <= (cnt_t)0) ||
 8004bca:	f8d4 308c 	ldr.w	r3, [r4, #140]	; 0x8c
 8004bce:	2b00      	cmp	r3, #0
 8004bd0:	dd3f      	ble.n	8004c52 <Vector9C+0x102>
 8004bd2:	f8d4 2090 	ldr.w	r2, [r4, #144]	; 0x90
 8004bd6:	2a00      	cmp	r2, #0
 8004bd8:	d13b      	bne.n	8004c52 <Vector9C+0x102>
  oip->dbg.isr_cnt--;
 8004bda:	3b01      	subs	r3, #1
 8004bdc:	f8c4 308c 	str.w	r3, [r4, #140]	; 0x8c
 8004be0:	f382 8811 	msr	BASEPRI, r2
  if ((oip->trace_buffer.suspended & CH_DBG_TRACE_MASK_ISR) == 0U) {
 8004be4:	f8b4 3094 	ldrh.w	r3, [r4, #148]	; 0x94
 8004be8:	f013 0504 	ands.w	r5, r3, #4
 8004bec:	d00a      	beq.n	8004c04 <Vector9C+0xb4>

  OSAL_IRQ_EPILOGUE();
}
 8004bee:	e8bd 4038 	ldmia.w	sp!, {r3, r4, r5, lr}
  OSAL_IRQ_EPILOGUE();
 8004bf2:	f7fb bf3d 	b.w	8000a70 <__port_irq_epilogue>
  exti_serve_irq(pr, 9);
 8004bf6:	4a1a      	ldr	r2, [pc, #104]	; (8004c60 <Vector9C+0x110>)
 8004bf8:	6c93      	ldr	r3, [r2, #72]	; 0x48
 8004bfa:	2b00      	cmp	r3, #0
 8004bfc:	d0e2      	beq.n	8004bc4 <Vector9C+0x74>
 8004bfe:	6cd0      	ldr	r0, [r2, #76]	; 0x4c
 8004c00:	4798      	blx	r3
 8004c02:	e7df      	b.n	8004bc4 <Vector9C+0x74>
 8004c04:	f381 8811 	msr	BASEPRI, r1
    oip->trace_buffer.ptr->type        = CH_TRACE_TYPE_ISR_LEAVE;
 8004c08:	f8d4 3098 	ldr.w	r3, [r4, #152]	; 0x98
    oip->trace_buffer.ptr->u.isr.name  = isr;
 8004c0c:	4a15      	ldr	r2, [pc, #84]	; (8004c64 <Vector9C+0x114>)
 8004c0e:	609a      	str	r2, [r3, #8]
    oip->trace_buffer.ptr->type        = CH_TRACE_TYPE_ISR_LEAVE;
 8004c10:	2104      	movs	r1, #4
 8004c12:	7019      	strb	r1, [r3, #0]
    trace_next(oip);
 8004c14:	f7fc f814 	bl	8000c40 <trace_next.constprop.0>
 8004c18:	f385 8811 	msr	BASEPRI, r5
}
 8004c1c:	e8bd 4038 	ldmia.w	sp!, {r3, r4, r5, lr}
  OSAL_IRQ_EPILOGUE();
 8004c20:	f7fb bf26 	b.w	8000a70 <__port_irq_epilogue>
 8004c24:	2330      	movs	r3, #48	; 0x30
 8004c26:	f383 8811 	msr	BASEPRI, r3
    oip->trace_buffer.ptr->type        = CH_TRACE_TYPE_ISR_ENTER;
 8004c2a:	f8d4 3098 	ldr.w	r3, [r4, #152]	; 0x98
    oip->trace_buffer.ptr->u.isr.name  = isr;
 8004c2e:	4a0d      	ldr	r2, [pc, #52]	; (8004c64 <Vector9C+0x114>)
 8004c30:	609a      	str	r2, [r3, #8]
    oip->trace_buffer.ptr->type        = CH_TRACE_TYPE_ISR_ENTER;
 8004c32:	2103      	movs	r1, #3
 8004c34:	7019      	strb	r1, [r3, #0]
    trace_next(oip);
 8004c36:	f7fc f803 	bl	8000c40 <trace_next.constprop.0>
 8004c3a:	f385 8811 	msr	BASEPRI, r5
 8004c3e:	2330      	movs	r3, #48	; 0x30
 8004c40:	f383 8811 	msr	BASEPRI, r3
  if (unlikely((oip->dbg.isr_cnt < (cnt_t)0) ||
 8004c44:	f8d4 308c 	ldr.w	r3, [r4, #140]	; 0x8c
 8004c48:	2b00      	cmp	r3, #0
 8004c4a:	da8f      	bge.n	8004b6c <Vector9C+0x1c>
    chSysHalt("SV#8");
 8004c4c:	4806      	ldr	r0, [pc, #24]	; (8004c68 <Vector9C+0x118>)
 8004c4e:	f7fc f817 	bl	8000c80 <chSysHalt>
    chSysHalt("SV#9");
 8004c52:	4806      	ldr	r0, [pc, #24]	; (8004c6c <Vector9C+0x11c>)
 8004c54:	f7fc f814 	bl	8000c80 <chSysHalt>
 8004c58:	20000ec8 	.word	0x20000ec8
 8004c5c:	40013c00 	.word	0x40013c00
 8004c60:	20000e40 	.word	0x20000e40
 8004c64:	08008044 	.word	0x08008044
 8004c68:	08007b64 	.word	0x08007b64
 8004c6c:	08007b6c 	.word	0x08007b6c

08004c70 <VectorE0>:
/**
 * @brief   EXTI[10]..EXTI[15] interrupt handler.
 *
 * @isr
 */
OSAL_IRQ_HANDLER(STM32_EXTI10_15_HANDLER) {
 8004c70:	b538      	push	{r3, r4, r5, lr}
  if ((oip->trace_buffer.suspended & CH_DBG_TRACE_MASK_ISR) == 0U) {
 8004c72:	4c45      	ldr	r4, [pc, #276]	; (8004d88 <VectorE0+0x118>)
 8004c74:	f8b4 3094 	ldrh.w	r3, [r4, #148]	; 0x94
 8004c78:	f013 0504 	ands.w	r5, r3, #4
 8004c7c:	d069      	beq.n	8004d52 <VectorE0+0xe2>
 8004c7e:	2330      	movs	r3, #48	; 0x30
 8004c80:	f383 8811 	msr	BASEPRI, r3
  if (unlikely((oip->dbg.isr_cnt < (cnt_t)0) ||
 8004c84:	f8d4 308c 	ldr.w	r3, [r4, #140]	; 0x8c
 8004c88:	2b00      	cmp	r3, #0
 8004c8a:	db76      	blt.n	8004d7a <VectorE0+0x10a>
 8004c8c:	f8d4 2090 	ldr.w	r2, [r4, #144]	; 0x90
 8004c90:	2a00      	cmp	r2, #0
 8004c92:	d172      	bne.n	8004d7a <VectorE0+0x10a>
  oip->dbg.isr_cnt++;
 8004c94:	3301      	adds	r3, #1
 8004c96:	f8c4 308c 	str.w	r3, [r4, #140]	; 0x8c
 8004c9a:	f382 8811 	msr	BASEPRI, r2
  uint32_t pr;

  OSAL_IRQ_PROLOGUE();

  extiGetAndClearGroup1((1U << 10) | (1U << 11) | (1U << 12) | (1U << 13) |
 8004c9e:	4b3b      	ldr	r3, [pc, #236]	; (8004d8c <VectorE0+0x11c>)
 8004ca0:	695d      	ldr	r5, [r3, #20]
 8004ca2:	f405 427c 	and.w	r2, r5, #64512	; 0xfc00
 8004ca6:	615a      	str	r2, [r3, #20]
                        (1U << 14) | (1U << 15), pr);

  exti_serve_irq(pr, 10);
 8004ca8:	056a      	lsls	r2, r5, #21
 8004caa:	d504      	bpl.n	8004cb6 <VectorE0+0x46>
 8004cac:	4a38      	ldr	r2, [pc, #224]	; (8004d90 <VectorE0+0x120>)
 8004cae:	6d13      	ldr	r3, [r2, #80]	; 0x50
 8004cb0:	b10b      	cbz	r3, 8004cb6 <VectorE0+0x46>
 8004cb2:	6d50      	ldr	r0, [r2, #84]	; 0x54
 8004cb4:	4798      	blx	r3
  exti_serve_irq(pr, 11);
 8004cb6:	052b      	lsls	r3, r5, #20
 8004cb8:	d504      	bpl.n	8004cc4 <VectorE0+0x54>
 8004cba:	4a35      	ldr	r2, [pc, #212]	; (8004d90 <VectorE0+0x120>)
 8004cbc:	6d93      	ldr	r3, [r2, #88]	; 0x58
 8004cbe:	b10b      	cbz	r3, 8004cc4 <VectorE0+0x54>
 8004cc0:	6dd0      	ldr	r0, [r2, #92]	; 0x5c
 8004cc2:	4798      	blx	r3
  exti_serve_irq(pr, 12);
 8004cc4:	04e8      	lsls	r0, r5, #19
 8004cc6:	d504      	bpl.n	8004cd2 <VectorE0+0x62>
 8004cc8:	4a31      	ldr	r2, [pc, #196]	; (8004d90 <VectorE0+0x120>)
 8004cca:	6e13      	ldr	r3, [r2, #96]	; 0x60
 8004ccc:	b10b      	cbz	r3, 8004cd2 <VectorE0+0x62>
 8004cce:	6e50      	ldr	r0, [r2, #100]	; 0x64
 8004cd0:	4798      	blx	r3
  exti_serve_irq(pr, 13);
 8004cd2:	04a9      	lsls	r1, r5, #18
 8004cd4:	d504      	bpl.n	8004ce0 <VectorE0+0x70>
 8004cd6:	4a2e      	ldr	r2, [pc, #184]	; (8004d90 <VectorE0+0x120>)
 8004cd8:	6e93      	ldr	r3, [r2, #104]	; 0x68
 8004cda:	b10b      	cbz	r3, 8004ce0 <VectorE0+0x70>
 8004cdc:	6ed0      	ldr	r0, [r2, #108]	; 0x6c
 8004cde:	4798      	blx	r3
  exti_serve_irq(pr, 14);
 8004ce0:	046a      	lsls	r2, r5, #17
 8004ce2:	d504      	bpl.n	8004cee <VectorE0+0x7e>
 8004ce4:	4a2a      	ldr	r2, [pc, #168]	; (8004d90 <VectorE0+0x120>)
 8004ce6:	6f13      	ldr	r3, [r2, #112]	; 0x70
 8004ce8:	b10b      	cbz	r3, 8004cee <VectorE0+0x7e>
 8004cea:	6f50      	ldr	r0, [r2, #116]	; 0x74
 8004cec:	4798      	blx	r3
  exti_serve_irq(pr, 15);
 8004cee:	042b      	lsls	r3, r5, #16
 8004cf0:	d418      	bmi.n	8004d24 <VectorE0+0xb4>
 8004cf2:	2130      	movs	r1, #48	; 0x30
 8004cf4:	f381 8811 	msr	BASEPRI, r1
  if (unlikely((oip->dbg.isr_cnt <= (cnt_t)0) ||
 8004cf8:	f8d4 308c 	ldr.w	r3, [r4, #140]	; 0x8c
 8004cfc:	2b00      	cmp	r3, #0
 8004cfe:	dd3f      	ble.n	8004d80 <VectorE0+0x110>
 8004d00:	f8d4 2090 	ldr.w	r2, [r4, #144]	; 0x90
 8004d04:	2a00      	cmp	r2, #0
 8004d06:	d13b      	bne.n	8004d80 <VectorE0+0x110>
  oip->dbg.isr_cnt--;
 8004d08:	3b01      	subs	r3, #1
 8004d0a:	f8c4 308c 	str.w	r3, [r4, #140]	; 0x8c
 8004d0e:	f382 8811 	msr	BASEPRI, r2
  if ((oip->trace_buffer.suspended & CH_DBG_TRACE_MASK_ISR) == 0U) {
 8004d12:	f8b4 3094 	ldrh.w	r3, [r4, #148]	; 0x94
 8004d16:	f013 0504 	ands.w	r5, r3, #4
 8004d1a:	d00a      	beq.n	8004d32 <VectorE0+0xc2>

  OSAL_IRQ_EPILOGUE();
}
 8004d1c:	e8bd 4038 	ldmia.w	sp!, {r3, r4, r5, lr}
  OSAL_IRQ_EPILOGUE();
 8004d20:	f7fb bea6 	b.w	8000a70 <__port_irq_epilogue>
  exti_serve_irq(pr, 15);
 8004d24:	4a1a      	ldr	r2, [pc, #104]	; (8004d90 <VectorE0+0x120>)
 8004d26:	6f93      	ldr	r3, [r2, #120]	; 0x78
 8004d28:	2b00      	cmp	r3, #0
 8004d2a:	d0e2      	beq.n	8004cf2 <VectorE0+0x82>
 8004d2c:	6fd0      	ldr	r0, [r2, #124]	; 0x7c
 8004d2e:	4798      	blx	r3
 8004d30:	e7df      	b.n	8004cf2 <VectorE0+0x82>
 8004d32:	f381 8811 	msr	BASEPRI, r1
    oip->trace_buffer.ptr->type        = CH_TRACE_TYPE_ISR_LEAVE;
 8004d36:	f8d4 3098 	ldr.w	r3, [r4, #152]	; 0x98
    oip->trace_buffer.ptr->u.isr.name  = isr;
 8004d3a:	4a16      	ldr	r2, [pc, #88]	; (8004d94 <VectorE0+0x124>)
 8004d3c:	609a      	str	r2, [r3, #8]
    oip->trace_buffer.ptr->type        = CH_TRACE_TYPE_ISR_LEAVE;
 8004d3e:	2104      	movs	r1, #4
 8004d40:	7019      	strb	r1, [r3, #0]
    trace_next(oip);
 8004d42:	f7fb ff7d 	bl	8000c40 <trace_next.constprop.0>
 8004d46:	f385 8811 	msr	BASEPRI, r5
}
 8004d4a:	e8bd 4038 	ldmia.w	sp!, {r3, r4, r5, lr}
  OSAL_IRQ_EPILOGUE();
 8004d4e:	f7fb be8f 	b.w	8000a70 <__port_irq_epilogue>
 8004d52:	2330      	movs	r3, #48	; 0x30
 8004d54:	f383 8811 	msr	BASEPRI, r3
    oip->trace_buffer.ptr->type        = CH_TRACE_TYPE_ISR_ENTER;
 8004d58:	f8d4 3098 	ldr.w	r3, [r4, #152]	; 0x98
    oip->trace_buffer.ptr->u.isr.name  = isr;
 8004d5c:	4a0d      	ldr	r2, [pc, #52]	; (8004d94 <VectorE0+0x124>)
 8004d5e:	609a      	str	r2, [r3, #8]
    oip->trace_buffer.ptr->type        = CH_TRACE_TYPE_ISR_ENTER;
 8004d60:	2103      	movs	r1, #3
 8004d62:	7019      	strb	r1, [r3, #0]
    trace_next(oip);
 8004d64:	f7fb ff6c 	bl	8000c40 <trace_next.constprop.0>
 8004d68:	f385 8811 	msr	BASEPRI, r5
 8004d6c:	2330      	movs	r3, #48	; 0x30
 8004d6e:	f383 8811 	msr	BASEPRI, r3
  if (unlikely((oip->dbg.isr_cnt < (cnt_t)0) ||
 8004d72:	f8d4 308c 	ldr.w	r3, [r4, #140]	; 0x8c
 8004d76:	2b00      	cmp	r3, #0
 8004d78:	da88      	bge.n	8004c8c <VectorE0+0x1c>
    chSysHalt("SV#8");
 8004d7a:	4807      	ldr	r0, [pc, #28]	; (8004d98 <VectorE0+0x128>)
 8004d7c:	f7fb ff80 	bl	8000c80 <chSysHalt>
    chSysHalt("SV#9");
 8004d80:	4806      	ldr	r0, [pc, #24]	; (8004d9c <VectorE0+0x12c>)
 8004d82:	f7fb ff7d 	bl	8000c80 <chSysHalt>
 8004d86:	bf00      	nop
 8004d88:	20000ec8 	.word	0x20000ec8
 8004d8c:	40013c00 	.word	0x40013c00
 8004d90:	20000e40 	.word	0x20000e40
 8004d94:	08007ff8 	.word	0x08007ff8
 8004d98:	08007b64 	.word	0x08007b64
 8004d9c:	08007b6c 	.word	0x08007b6c

08004da0 <VectorA0>:
/**
 * @brief   TIM1-BRK, TIM9 interrupt handler.
 *
 * @isr
 */
OSAL_IRQ_HANDLER(STM32_TIM1_BRK_TIM9_HANDLER) {
 8004da0:	b538      	push	{r3, r4, r5, lr}
  if ((oip->trace_buffer.suspended & CH_DBG_TRACE_MASK_ISR) == 0U) {
 8004da2:	4c2b      	ldr	r4, [pc, #172]	; (8004e50 <VectorA0+0xb0>)
 8004da4:	f8b4 3094 	ldrh.w	r3, [r4, #148]	; 0x94
 8004da8:	f013 0504 	ands.w	r5, r3, #4
 8004dac:	d036      	beq.n	8004e1c <VectorA0+0x7c>
 8004dae:	2230      	movs	r2, #48	; 0x30
 8004db0:	f382 8811 	msr	BASEPRI, r2
  if (unlikely((oip->dbg.isr_cnt < (cnt_t)0) ||
 8004db4:	f8d4 308c 	ldr.w	r3, [r4, #140]	; 0x8c
 8004db8:	2b00      	cmp	r3, #0
 8004dba:	db43      	blt.n	8004e44 <VectorA0+0xa4>
 8004dbc:	f8d4 1090 	ldr.w	r1, [r4, #144]	; 0x90
 8004dc0:	2900      	cmp	r1, #0
 8004dc2:	d13f      	bne.n	8004e44 <VectorA0+0xa4>
  oip->dbg.isr_cnt++;
 8004dc4:	3301      	adds	r3, #1
 8004dc6:	f8c4 308c 	str.w	r3, [r4, #140]	; 0x8c
 8004dca:	f381 8811 	msr	BASEPRI, r1
 8004dce:	f382 8811 	msr	BASEPRI, r2
  if (unlikely((oip->dbg.isr_cnt <= (cnt_t)0) ||
 8004dd2:	f8d4 308c 	ldr.w	r3, [r4, #140]	; 0x8c
 8004dd6:	2b00      	cmp	r3, #0
 8004dd8:	dd37      	ble.n	8004e4a <VectorA0+0xaa>
 8004dda:	f8d4 1090 	ldr.w	r1, [r4, #144]	; 0x90
 8004dde:	bba1      	cbnz	r1, 8004e4a <VectorA0+0xaa>
  oip->dbg.isr_cnt--;
 8004de0:	3b01      	subs	r3, #1
 8004de2:	f8c4 308c 	str.w	r3, [r4, #140]	; 0x8c
 8004de6:	f381 8811 	msr	BASEPRI, r1
  if ((oip->trace_buffer.suspended & CH_DBG_TRACE_MASK_ISR) == 0U) {
 8004dea:	f8b4 3094 	ldrh.w	r3, [r4, #148]	; 0x94
 8004dee:	f013 0504 	ands.w	r5, r3, #4
 8004df2:	d003      	beq.n	8004dfc <VectorA0+0x5c>
  st_lld_serve_interrupt();
#endif
#endif

  OSAL_IRQ_EPILOGUE();
}
 8004df4:	e8bd 4038 	ldmia.w	sp!, {r3, r4, r5, lr}
  OSAL_IRQ_EPILOGUE();
 8004df8:	f7fb be3a 	b.w	8000a70 <__port_irq_epilogue>
 8004dfc:	f382 8811 	msr	BASEPRI, r2
    oip->trace_buffer.ptr->type        = CH_TRACE_TYPE_ISR_LEAVE;
 8004e00:	f8d4 3098 	ldr.w	r3, [r4, #152]	; 0x98
    oip->trace_buffer.ptr->u.isr.name  = isr;
 8004e04:	4a13      	ldr	r2, [pc, #76]	; (8004e54 <VectorA0+0xb4>)
 8004e06:	609a      	str	r2, [r3, #8]
    oip->trace_buffer.ptr->type        = CH_TRACE_TYPE_ISR_LEAVE;
 8004e08:	2104      	movs	r1, #4
 8004e0a:	7019      	strb	r1, [r3, #0]
    trace_next(oip);
 8004e0c:	f7fb ff18 	bl	8000c40 <trace_next.constprop.0>
 8004e10:	f385 8811 	msr	BASEPRI, r5
}
 8004e14:	e8bd 4038 	ldmia.w	sp!, {r3, r4, r5, lr}
  OSAL_IRQ_EPILOGUE();
 8004e18:	f7fb be2a 	b.w	8000a70 <__port_irq_epilogue>
 8004e1c:	2330      	movs	r3, #48	; 0x30
 8004e1e:	f383 8811 	msr	BASEPRI, r3
    oip->trace_buffer.ptr->type        = CH_TRACE_TYPE_ISR_ENTER;
 8004e22:	f8d4 3098 	ldr.w	r3, [r4, #152]	; 0x98
    oip->trace_buffer.ptr->u.isr.name  = isr;
 8004e26:	4a0b      	ldr	r2, [pc, #44]	; (8004e54 <VectorA0+0xb4>)
 8004e28:	609a      	str	r2, [r3, #8]
    oip->trace_buffer.ptr->type        = CH_TRACE_TYPE_ISR_ENTER;
 8004e2a:	2103      	movs	r1, #3
 8004e2c:	7019      	strb	r1, [r3, #0]
    trace_next(oip);
 8004e2e:	f7fb ff07 	bl	8000c40 <trace_next.constprop.0>
 8004e32:	f385 8811 	msr	BASEPRI, r5
 8004e36:	2230      	movs	r2, #48	; 0x30
 8004e38:	f382 8811 	msr	BASEPRI, r2
  if (unlikely((oip->dbg.isr_cnt < (cnt_t)0) ||
 8004e3c:	f8d4 308c 	ldr.w	r3, [r4, #140]	; 0x8c
 8004e40:	2b00      	cmp	r3, #0
 8004e42:	dabb      	bge.n	8004dbc <VectorA0+0x1c>
    chSysHalt("SV#8");
 8004e44:	4804      	ldr	r0, [pc, #16]	; (8004e58 <VectorA0+0xb8>)
 8004e46:	f7fb ff1b 	bl	8000c80 <chSysHalt>
    chSysHalt("SV#9");
 8004e4a:	4804      	ldr	r0, [pc, #16]	; (8004e5c <VectorA0+0xbc>)
 8004e4c:	f7fb ff18 	bl	8000c80 <chSysHalt>
 8004e50:	20000ec8 	.word	0x20000ec8
 8004e54:	08007fa4 	.word	0x08007fa4
 8004e58:	08007b64 	.word	0x08007b64
 8004e5c:	08007b6c 	.word	0x08007b6c

08004e60 <VectorA4>:
/**
 * @brief   TIM1-UP, TIM10 interrupt handler.
 *
 * @isr
 */
OSAL_IRQ_HANDLER(STM32_TIM1_UP_TIM10_HANDLER) {
 8004e60:	b570      	push	{r4, r5, r6, lr}
  if ((oip->trace_buffer.suspended & CH_DBG_TRACE_MASK_ISR) == 0U) {
 8004e62:	4c2c      	ldr	r4, [pc, #176]	; (8004f14 <VectorA4+0xb4>)
 8004e64:	f8b4 3094 	ldrh.w	r3, [r4, #148]	; 0x94
 8004e68:	f013 0504 	ands.w	r5, r3, #4
 8004e6c:	d038      	beq.n	8004ee0 <VectorA4+0x80>
 8004e6e:	2530      	movs	r5, #48	; 0x30
 8004e70:	f385 8811 	msr	BASEPRI, r5
  if (unlikely((oip->dbg.isr_cnt < (cnt_t)0) ||
 8004e74:	f8d4 308c 	ldr.w	r3, [r4, #140]	; 0x8c
 8004e78:	2b00      	cmp	r3, #0
 8004e7a:	db45      	blt.n	8004f08 <VectorA4+0xa8>
 8004e7c:	f8d4 2090 	ldr.w	r2, [r4, #144]	; 0x90
 8004e80:	2a00      	cmp	r2, #0
 8004e82:	d141      	bne.n	8004f08 <VectorA4+0xa8>
  oip->dbg.isr_cnt++;
 8004e84:	3301      	adds	r3, #1
 8004e86:	f8c4 308c 	str.w	r3, [r4, #140]	; 0x8c
 8004e8a:	f382 8811 	msr	BASEPRI, r2
  gpt_lld_serve_interrupt(&GPTD10);
#endif
#endif
#if HAL_USE_ICU
#if STM32_ICU_USE_TIM1
  icu_lld_serve_interrupt(&ICUD1);
 8004e8e:	f7fb fe87 	bl	8000ba0 <icu_lld_serve_interrupt.constprop.0>
 8004e92:	f385 8811 	msr	BASEPRI, r5
  if (unlikely((oip->dbg.isr_cnt <= (cnt_t)0) ||
 8004e96:	f8d4 308c 	ldr.w	r3, [r4, #140]	; 0x8c
 8004e9a:	2b00      	cmp	r3, #0
 8004e9c:	dd37      	ble.n	8004f0e <VectorA4+0xae>
 8004e9e:	f8d4 2090 	ldr.w	r2, [r4, #144]	; 0x90
 8004ea2:	bba2      	cbnz	r2, 8004f0e <VectorA4+0xae>
  oip->dbg.isr_cnt--;
 8004ea4:	3b01      	subs	r3, #1
 8004ea6:	f8c4 308c 	str.w	r3, [r4, #140]	; 0x8c
 8004eaa:	f382 8811 	msr	BASEPRI, r2
  if ((oip->trace_buffer.suspended & CH_DBG_TRACE_MASK_ISR) == 0U) {
 8004eae:	f8b4 3094 	ldrh.w	r3, [r4, #148]	; 0x94
 8004eb2:	f013 0604 	ands.w	r6, r3, #4
 8004eb6:	d003      	beq.n	8004ec0 <VectorA4+0x60>
  st_lld_serve_interrupt();
#endif
#endif

  OSAL_IRQ_EPILOGUE();
}
 8004eb8:	e8bd 4070 	ldmia.w	sp!, {r4, r5, r6, lr}
  OSAL_IRQ_EPILOGUE();
 8004ebc:	f7fb bdd8 	b.w	8000a70 <__port_irq_epilogue>
 8004ec0:	f385 8811 	msr	BASEPRI, r5
    oip->trace_buffer.ptr->type        = CH_TRACE_TYPE_ISR_LEAVE;
 8004ec4:	f8d4 3098 	ldr.w	r3, [r4, #152]	; 0x98
    oip->trace_buffer.ptr->u.isr.name  = isr;
 8004ec8:	4a13      	ldr	r2, [pc, #76]	; (8004f18 <VectorA4+0xb8>)
 8004eca:	609a      	str	r2, [r3, #8]
    oip->trace_buffer.ptr->type        = CH_TRACE_TYPE_ISR_LEAVE;
 8004ecc:	2104      	movs	r1, #4
 8004ece:	7019      	strb	r1, [r3, #0]
    trace_next(oip);
 8004ed0:	f7fb feb6 	bl	8000c40 <trace_next.constprop.0>
 8004ed4:	f386 8811 	msr	BASEPRI, r6
}
 8004ed8:	e8bd 4070 	ldmia.w	sp!, {r4, r5, r6, lr}
  OSAL_IRQ_EPILOGUE();
 8004edc:	f7fb bdc8 	b.w	8000a70 <__port_irq_epilogue>
 8004ee0:	2330      	movs	r3, #48	; 0x30
 8004ee2:	f383 8811 	msr	BASEPRI, r3
    oip->trace_buffer.ptr->type        = CH_TRACE_TYPE_ISR_ENTER;
 8004ee6:	f8d4 3098 	ldr.w	r3, [r4, #152]	; 0x98
    oip->trace_buffer.ptr->u.isr.name  = isr;
 8004eea:	4a0b      	ldr	r2, [pc, #44]	; (8004f18 <VectorA4+0xb8>)
 8004eec:	609a      	str	r2, [r3, #8]
    oip->trace_buffer.ptr->type        = CH_TRACE_TYPE_ISR_ENTER;
 8004eee:	2103      	movs	r1, #3
 8004ef0:	7019      	strb	r1, [r3, #0]
    trace_next(oip);
 8004ef2:	f7fb fea5 	bl	8000c40 <trace_next.constprop.0>
 8004ef6:	f385 8811 	msr	BASEPRI, r5
 8004efa:	2530      	movs	r5, #48	; 0x30
 8004efc:	f385 8811 	msr	BASEPRI, r5
  if (unlikely((oip->dbg.isr_cnt < (cnt_t)0) ||
 8004f00:	f8d4 308c 	ldr.w	r3, [r4, #140]	; 0x8c
 8004f04:	2b00      	cmp	r3, #0
 8004f06:	dab9      	bge.n	8004e7c <VectorA4+0x1c>
    chSysHalt("SV#8");
 8004f08:	4804      	ldr	r0, [pc, #16]	; (8004f1c <VectorA4+0xbc>)
 8004f0a:	f7fb feb9 	bl	8000c80 <chSysHalt>
    chSysHalt("SV#9");
 8004f0e:	4804      	ldr	r0, [pc, #16]	; (8004f20 <VectorA4+0xc0>)
 8004f10:	f7fb feb6 	bl	8000c80 <chSysHalt>
 8004f14:	20000ec8 	.word	0x20000ec8
 8004f18:	08007f3c 	.word	0x08007f3c
 8004f1c:	08007b64 	.word	0x08007b64
 8004f20:	08007b6c 	.word	0x08007b6c
	...

08004f30 <VectorA8>:
/**
 * @brief   TIM1-TRG-COM, TIM11 interrupt handler.
 *
 * @isr
 */
OSAL_IRQ_HANDLER(STM32_TIM1_TRGCO_TIM11_HANDLER) {
 8004f30:	b538      	push	{r3, r4, r5, lr}
  if ((oip->trace_buffer.suspended & CH_DBG_TRACE_MASK_ISR) == 0U) {
 8004f32:	4c2b      	ldr	r4, [pc, #172]	; (8004fe0 <VectorA8+0xb0>)
 8004f34:	f8b4 3094 	ldrh.w	r3, [r4, #148]	; 0x94
 8004f38:	f013 0504 	ands.w	r5, r3, #4
 8004f3c:	d036      	beq.n	8004fac <VectorA8+0x7c>
 8004f3e:	2230      	movs	r2, #48	; 0x30
 8004f40:	f382 8811 	msr	BASEPRI, r2
  if (unlikely((oip->dbg.isr_cnt < (cnt_t)0) ||
 8004f44:	f8d4 308c 	ldr.w	r3, [r4, #140]	; 0x8c
 8004f48:	2b00      	cmp	r3, #0
 8004f4a:	db43      	blt.n	8004fd4 <VectorA8+0xa4>
 8004f4c:	f8d4 1090 	ldr.w	r1, [r4, #144]	; 0x90
 8004f50:	2900      	cmp	r1, #0
 8004f52:	d13f      	bne.n	8004fd4 <VectorA8+0xa4>
  oip->dbg.isr_cnt++;
 8004f54:	3301      	adds	r3, #1
 8004f56:	f8c4 308c 	str.w	r3, [r4, #140]	; 0x8c
 8004f5a:	f381 8811 	msr	BASEPRI, r1
 8004f5e:	f382 8811 	msr	BASEPRI, r2
  if (unlikely((oip->dbg.isr_cnt <= (cnt_t)0) ||
 8004f62:	f8d4 308c 	ldr.w	r3, [r4, #140]	; 0x8c
 8004f66:	2b00      	cmp	r3, #0
 8004f68:	dd37      	ble.n	8004fda <VectorA8+0xaa>
 8004f6a:	f8d4 1090 	ldr.w	r1, [r4, #144]	; 0x90
 8004f6e:	bba1      	cbnz	r1, 8004fda <VectorA8+0xaa>
  oip->dbg.isr_cnt--;
 8004f70:	3b01      	subs	r3, #1
 8004f72:	f8c4 308c 	str.w	r3, [r4, #140]	; 0x8c
 8004f76:	f381 8811 	msr	BASEPRI, r1
  if ((oip->trace_buffer.suspended & CH_DBG_TRACE_MASK_ISR) == 0U) {
 8004f7a:	f8b4 3094 	ldrh.w	r3, [r4, #148]	; 0x94
 8004f7e:	f013 0504 	ands.w	r5, r3, #4
 8004f82:	d003      	beq.n	8004f8c <VectorA8+0x5c>
  st_lld_serve_interrupt();
#endif
#endif

  OSAL_IRQ_EPILOGUE();
}
 8004f84:	e8bd 4038 	ldmia.w	sp!, {r3, r4, r5, lr}
  OSAL_IRQ_EPILOGUE();
 8004f88:	f7fb bd72 	b.w	8000a70 <__port_irq_epilogue>
 8004f8c:	f382 8811 	msr	BASEPRI, r2
    oip->trace_buffer.ptr->type        = CH_TRACE_TYPE_ISR_LEAVE;
 8004f90:	f8d4 3098 	ldr.w	r3, [r4, #152]	; 0x98
    oip->trace_buffer.ptr->u.isr.name  = isr;
 8004f94:	4a13      	ldr	r2, [pc, #76]	; (8004fe4 <VectorA8+0xb4>)
 8004f96:	609a      	str	r2, [r3, #8]
    oip->trace_buffer.ptr->type        = CH_TRACE_TYPE_ISR_LEAVE;
 8004f98:	2104      	movs	r1, #4
 8004f9a:	7019      	strb	r1, [r3, #0]
    trace_next(oip);
 8004f9c:	f7fb fe50 	bl	8000c40 <trace_next.constprop.0>
 8004fa0:	f385 8811 	msr	BASEPRI, r5
}
 8004fa4:	e8bd 4038 	ldmia.w	sp!, {r3, r4, r5, lr}
  OSAL_IRQ_EPILOGUE();
 8004fa8:	f7fb bd62 	b.w	8000a70 <__port_irq_epilogue>
 8004fac:	2330      	movs	r3, #48	; 0x30
 8004fae:	f383 8811 	msr	BASEPRI, r3
    oip->trace_buffer.ptr->type        = CH_TRACE_TYPE_ISR_ENTER;
 8004fb2:	f8d4 3098 	ldr.w	r3, [r4, #152]	; 0x98
    oip->trace_buffer.ptr->u.isr.name  = isr;
 8004fb6:	4a0b      	ldr	r2, [pc, #44]	; (8004fe4 <VectorA8+0xb4>)
 8004fb8:	609a      	str	r2, [r3, #8]
    oip->trace_buffer.ptr->type        = CH_TRACE_TYPE_ISR_ENTER;
 8004fba:	2103      	movs	r1, #3
 8004fbc:	7019      	strb	r1, [r3, #0]
    trace_next(oip);
 8004fbe:	f7fb fe3f 	bl	8000c40 <trace_next.constprop.0>
 8004fc2:	f385 8811 	msr	BASEPRI, r5
 8004fc6:	2230      	movs	r2, #48	; 0x30
 8004fc8:	f382 8811 	msr	BASEPRI, r2
  if (unlikely((oip->dbg.isr_cnt < (cnt_t)0) ||
 8004fcc:	f8d4 308c 	ldr.w	r3, [r4, #140]	; 0x8c
 8004fd0:	2b00      	cmp	r3, #0
 8004fd2:	dabb      	bge.n	8004f4c <VectorA8+0x1c>
    chSysHalt("SV#8");
 8004fd4:	4804      	ldr	r0, [pc, #16]	; (8004fe8 <VectorA8+0xb8>)
 8004fd6:	f7fb fe53 	bl	8000c80 <chSysHalt>
    chSysHalt("SV#9");
 8004fda:	4804      	ldr	r0, [pc, #16]	; (8004fec <VectorA8+0xbc>)
 8004fdc:	f7fb fe50 	bl	8000c80 <chSysHalt>
 8004fe0:	20000ec8 	.word	0x20000ec8
 8004fe4:	08007ee4 	.word	0x08007ee4
 8004fe8:	08007b64 	.word	0x08007b64
 8004fec:	08007b6c 	.word	0x08007b6c

08004ff0 <VectorAC>:
/**
 * @brief   TIM1-CC interrupt handler.
 *
 * @isr
 */
OSAL_IRQ_HANDLER(STM32_TIM1_CC_HANDLER) {
 8004ff0:	b570      	push	{r4, r5, r6, lr}
  if ((oip->trace_buffer.suspended & CH_DBG_TRACE_MASK_ISR) == 0U) {
 8004ff2:	4c2c      	ldr	r4, [pc, #176]	; (80050a4 <VectorAC+0xb4>)
 8004ff4:	f8b4 3094 	ldrh.w	r3, [r4, #148]	; 0x94
 8004ff8:	f013 0504 	ands.w	r5, r3, #4
 8004ffc:	d038      	beq.n	8005070 <VectorAC+0x80>
 8004ffe:	2530      	movs	r5, #48	; 0x30
 8005000:	f385 8811 	msr	BASEPRI, r5
  if (unlikely((oip->dbg.isr_cnt < (cnt_t)0) ||
 8005004:	f8d4 308c 	ldr.w	r3, [r4, #140]	; 0x8c
 8005008:	2b00      	cmp	r3, #0
 800500a:	db45      	blt.n	8005098 <VectorAC+0xa8>
 800500c:	f8d4 2090 	ldr.w	r2, [r4, #144]	; 0x90
 8005010:	2a00      	cmp	r2, #0
 8005012:	d141      	bne.n	8005098 <VectorAC+0xa8>
  oip->dbg.isr_cnt++;
 8005014:	3301      	adds	r3, #1
 8005016:	f8c4 308c 	str.w	r3, [r4, #140]	; 0x8c
 800501a:	f382 8811 	msr	BASEPRI, r2
#if HAL_USE_GPT
  /* Not used by GPT.*/
#endif
#if HAL_USE_ICU
#if STM32_ICU_USE_TIM1
  icu_lld_serve_interrupt(&ICUD1);
 800501e:	f7fb fdbf 	bl	8000ba0 <icu_lld_serve_interrupt.constprop.0>
 8005022:	f385 8811 	msr	BASEPRI, r5
  if (unlikely((oip->dbg.isr_cnt <= (cnt_t)0) ||
 8005026:	f8d4 308c 	ldr.w	r3, [r4, #140]	; 0x8c
 800502a:	2b00      	cmp	r3, #0
 800502c:	dd37      	ble.n	800509e <VectorAC+0xae>
 800502e:	f8d4 2090 	ldr.w	r2, [r4, #144]	; 0x90
 8005032:	bba2      	cbnz	r2, 800509e <VectorAC+0xae>
  oip->dbg.isr_cnt--;
 8005034:	3b01      	subs	r3, #1
 8005036:	f8c4 308c 	str.w	r3, [r4, #140]	; 0x8c
 800503a:	f382 8811 	msr	BASEPRI, r2
  if ((oip->trace_buffer.suspended & CH_DBG_TRACE_MASK_ISR) == 0U) {
 800503e:	f8b4 3094 	ldrh.w	r3, [r4, #148]	; 0x94
 8005042:	f013 0604 	ands.w	r6, r3, #4
 8005046:	d003      	beq.n	8005050 <VectorAC+0x60>
  pwm_lld_serve_interrupt(&PWMD1);
#endif
#endif

  OSAL_IRQ_EPILOGUE();
}
 8005048:	e8bd 4070 	ldmia.w	sp!, {r4, r5, r6, lr}
  OSAL_IRQ_EPILOGUE();
 800504c:	f7fb bd10 	b.w	8000a70 <__port_irq_epilogue>
 8005050:	f385 8811 	msr	BASEPRI, r5
    oip->trace_buffer.ptr->type        = CH_TRACE_TYPE_ISR_LEAVE;
 8005054:	f8d4 3098 	ldr.w	r3, [r4, #152]	; 0x98
    oip->trace_buffer.ptr->u.isr.name  = isr;
 8005058:	4a13      	ldr	r2, [pc, #76]	; (80050a8 <VectorAC+0xb8>)
 800505a:	609a      	str	r2, [r3, #8]
    oip->trace_buffer.ptr->type        = CH_TRACE_TYPE_ISR_LEAVE;
 800505c:	2104      	movs	r1, #4
 800505e:	7019      	strb	r1, [r3, #0]
    trace_next(oip);
 8005060:	f7fb fdee 	bl	8000c40 <trace_next.constprop.0>
 8005064:	f386 8811 	msr	BASEPRI, r6
}
 8005068:	e8bd 4070 	ldmia.w	sp!, {r4, r5, r6, lr}
  OSAL_IRQ_EPILOGUE();
 800506c:	f7fb bd00 	b.w	8000a70 <__port_irq_epilogue>
 8005070:	2330      	movs	r3, #48	; 0x30
 8005072:	f383 8811 	msr	BASEPRI, r3
    oip->trace_buffer.ptr->type        = CH_TRACE_TYPE_ISR_ENTER;
 8005076:	f8d4 3098 	ldr.w	r3, [r4, #152]	; 0x98
    oip->trace_buffer.ptr->u.isr.name  = isr;
 800507a:	4a0b      	ldr	r2, [pc, #44]	; (80050a8 <VectorAC+0xb8>)
 800507c:	609a      	str	r2, [r3, #8]
    oip->trace_buffer.ptr->type        = CH_TRACE_TYPE_ISR_ENTER;
 800507e:	2103      	movs	r1, #3
 8005080:	7019      	strb	r1, [r3, #0]
    trace_next(oip);
 8005082:	f7fb fddd 	bl	8000c40 <trace_next.constprop.0>
 8005086:	f385 8811 	msr	BASEPRI, r5
 800508a:	2530      	movs	r5, #48	; 0x30
 800508c:	f385 8811 	msr	BASEPRI, r5
  if (unlikely((oip->dbg.isr_cnt < (cnt_t)0) ||
 8005090:	f8d4 308c 	ldr.w	r3, [r4, #140]	; 0x8c
 8005094:	2b00      	cmp	r3, #0
 8005096:	dab9      	bge.n	800500c <VectorAC+0x1c>
    chSysHalt("SV#8");
 8005098:	4804      	ldr	r0, [pc, #16]	; (80050ac <VectorAC+0xbc>)
 800509a:	f7fb fdf1 	bl	8000c80 <chSysHalt>
    chSysHalt("SV#9");
 800509e:	4804      	ldr	r0, [pc, #16]	; (80050b0 <VectorAC+0xc0>)
 80050a0:	f7fb fdee 	bl	8000c80 <chSysHalt>
 80050a4:	20000ec8 	.word	0x20000ec8
 80050a8:	08007dc0 	.word	0x08007dc0
 80050ac:	08007b64 	.word	0x08007b64
 80050b0:	08007b6c 	.word	0x08007b6c
	...

080050c0 <VectorB0>:
/**
 * @brief   TIM2 interrupt handler.
 *
 * @isr
 */
OSAL_IRQ_HANDLER(STM32_TIM2_HANDLER) {
 80050c0:	e92d 4ff8 	stmdb	sp!, {r3, r4, r5, r6, r7, r8, r9, sl, fp, lr}
  if ((oip->trace_buffer.suspended & CH_DBG_TRACE_MASK_ISR) == 0U) {
 80050c4:	4c7a      	ldr	r4, [pc, #488]	; (80052b0 <VectorB0+0x1f0>)
 80050c6:	f8b4 3094 	ldrh.w	r3, [r4, #148]	; 0x94
 80050ca:	f013 0504 	ands.w	r5, r3, #4
 80050ce:	d035      	beq.n	800513c <VectorB0+0x7c>
 80050d0:	2130      	movs	r1, #48	; 0x30
 80050d2:	f381 8811 	msr	BASEPRI, r1
  if (unlikely((oip->dbg.isr_cnt < (cnt_t)0) ||
 80050d6:	f8d4 308c 	ldr.w	r3, [r4, #140]	; 0x8c
 80050da:	2b00      	cmp	r3, #0
 80050dc:	db42      	blt.n	8005164 <VectorB0+0xa4>
 80050de:	f8d4 2090 	ldr.w	r2, [r4, #144]	; 0x90
 80050e2:	2a00      	cmp	r2, #0
 80050e4:	d13e      	bne.n	8005164 <VectorB0+0xa4>
  oip->dbg.isr_cnt++;
 80050e6:	3301      	adds	r3, #1
 80050e8:	f8c4 308c 	str.w	r3, [r4, #140]	; 0x8c
 80050ec:	f382 8811 	msr	BASEPRI, r2
void st_lld_serve_interrupt(void) {
#if OSAL_ST_MODE == OSAL_ST_MODE_FREERUNNING
  uint32_t sr;
  stm32_tim_t *timp = STM32_ST_TIM;

  sr  = timp->SR;
 80050f0:	f04f 4580 	mov.w	r5, #1073741824	; 0x40000000
 80050f4:	692b      	ldr	r3, [r5, #16]
  sr &= timp->DIER & STM32_TIM_DIER_IRQ_MASK;
 80050f6:	68ea      	ldr	r2, [r5, #12]
 80050f8:	4013      	ands	r3, r2
 80050fa:	b2da      	uxtb	r2, r3
  timp->SR = ~sr;
 80050fc:	43d2      	mvns	r2, r2

  if ((sr & TIM_SR_CC1IF) != 0U)
 80050fe:	079b      	lsls	r3, r3, #30
  timp->SR = ~sr;
 8005100:	612a      	str	r2, [r5, #16]
  if ((sr & TIM_SR_CC1IF) != 0U)
 8005102:	d432      	bmi.n	800516a <VectorB0+0xaa>
 8005104:	2130      	movs	r1, #48	; 0x30
 8005106:	f381 8811 	msr	BASEPRI, r1
  if (unlikely((oip->dbg.isr_cnt <= (cnt_t)0) ||
 800510a:	f8d4 308c 	ldr.w	r3, [r4, #140]	; 0x8c
 800510e:	2b00      	cmp	r3, #0
 8005110:	f340 8093 	ble.w	800523a <VectorB0+0x17a>
 8005114:	f8d4 2090 	ldr.w	r2, [r4, #144]	; 0x90
 8005118:	2a00      	cmp	r2, #0
 800511a:	f040 808e 	bne.w	800523a <VectorB0+0x17a>
  oip->dbg.isr_cnt--;
 800511e:	3b01      	subs	r3, #1
 8005120:	f8c4 308c 	str.w	r3, [r4, #140]	; 0x8c
 8005124:	f382 8811 	msr	BASEPRI, r2
  if ((oip->trace_buffer.suspended & CH_DBG_TRACE_MASK_ISR) == 0U) {
 8005128:	f8b4 3094 	ldrh.w	r3, [r4, #148]	; 0x94
 800512c:	f013 0504 	ands.w	r5, r3, #4
 8005130:	f000 8086 	beq.w	8005240 <VectorB0+0x180>
  st_lld_serve_interrupt();
#endif
#endif

  OSAL_IRQ_EPILOGUE();
}
 8005134:	e8bd 4ff8 	ldmia.w	sp!, {r3, r4, r5, r6, r7, r8, r9, sl, fp, lr}
  OSAL_IRQ_EPILOGUE();
 8005138:	f7fb bc9a 	b.w	8000a70 <__port_irq_epilogue>
 800513c:	2330      	movs	r3, #48	; 0x30
 800513e:	f383 8811 	msr	BASEPRI, r3
    oip->trace_buffer.ptr->type        = CH_TRACE_TYPE_ISR_ENTER;
 8005142:	f8d4 3098 	ldr.w	r3, [r4, #152]	; 0x98
    oip->trace_buffer.ptr->u.isr.name  = isr;
 8005146:	4a5b      	ldr	r2, [pc, #364]	; (80052b4 <VectorB0+0x1f4>)
 8005148:	609a      	str	r2, [r3, #8]
    oip->trace_buffer.ptr->type        = CH_TRACE_TYPE_ISR_ENTER;
 800514a:	2103      	movs	r1, #3
 800514c:	7019      	strb	r1, [r3, #0]
    trace_next(oip);
 800514e:	f7fb fd77 	bl	8000c40 <trace_next.constprop.0>
 8005152:	f385 8811 	msr	BASEPRI, r5
 8005156:	2130      	movs	r1, #48	; 0x30
 8005158:	f381 8811 	msr	BASEPRI, r1
  if (unlikely((oip->dbg.isr_cnt < (cnt_t)0) ||
 800515c:	f8d4 308c 	ldr.w	r3, [r4, #140]	; 0x8c
 8005160:	2b00      	cmp	r3, #0
 8005162:	dabc      	bge.n	80050de <VectorB0+0x1e>
    chSysHalt("SV#8");
 8005164:	4854      	ldr	r0, [pc, #336]	; (80052b8 <VectorB0+0x1f8>)
 8005166:	f7fb fd8b 	bl	8000c80 <chSysHalt>
 800516a:	f381 8811 	msr	BASEPRI, r1
  if (unlikely((oip->dbg.isr_cnt <= (cnt_t)0) ||
 800516e:	f8d4 308c 	ldr.w	r3, [r4, #140]	; 0x8c
 8005172:	2b00      	cmp	r3, #0
 8005174:	dd74      	ble.n	8005260 <VectorB0+0x1a0>
 8005176:	f8d4 a090 	ldr.w	sl, [r4, #144]	; 0x90
 800517a:	f1ba 0f00 	cmp.w	sl, #0
 800517e:	d16f      	bne.n	8005260 <VectorB0+0x1a0>
  oip->dbg.lock_cnt = (cnt_t)1;
 8005180:	2301      	movs	r3, #1
 8005182:	f8df b138 	ldr.w	fp, [pc, #312]	; 80052bc <VectorB0+0x1fc>
 8005186:	f8c4 3090 	str.w	r3, [r4, #144]	; 0x90
    lasttime = chTimeAddX(vtlp->lasttime, vtp->dlist.delta);
    vtlp->lasttime = lasttime;

    /* Removing the timer from the list, marking it as not armed.*/
    (void) ch_dlist_dequeue(&vtp->dlist);
    vtp->dlist.next = NULL;
 800518a:	46d0      	mov	r8, sl
 800518c:	f04f 0930 	mov.w	r9, #48	; 0x30
    vtp = (virtual_timer_t *)vtlp->dlist.next;
 8005190:	6926      	ldr	r6, [r4, #16]
 8005192:	6a68      	ldr	r0, [r5, #36]	; 0x24
    nowdelta = chTimeDiffX(vtlp->lasttime, now);
 8005194:	69e7      	ldr	r7, [r4, #28]
    if (nowdelta < vtp->dlist.delta) {
 8005196:	68b2      	ldr	r2, [r6, #8]
 8005198:	1bc1      	subs	r1, r0, r7
 800519a:	4291      	cmp	r1, r2
 800519c:	d366      	bcc.n	800526c <VectorB0+0x1ac>
  return systime + (systime_t)interval;
 800519e:	4417      	add	r7, r2
  dlp->prev->next = dlp->next;
 80051a0:	e9d6 3200 	ldrd	r3, r2, [r6]
    vtlp->lasttime = lasttime;
 80051a4:	61e7      	str	r7, [r4, #28]
 80051a6:	6013      	str	r3, [r2, #0]
  dlp->next->prev = dlp->prev;
 80051a8:	605a      	str	r2, [r3, #4]
    vtp->dlist.next = NULL;
 80051aa:	f8c6 a000 	str.w	sl, [r6]

    /* If the list becomes empty then the alarm is disabled.*/
    if (ch_dlist_isempty(&vtlp->dlist)) {
 80051ae:	6923      	ldr	r3, [r4, #16]
 80051b0:	455b      	cmp	r3, fp
  STM32_ST_TIM->DIER = 0U;
 80051b2:	bf08      	it	eq
 80051b4:	f8c5 a00c 	streq.w	sl, [r5, #12]
  if (unlikely((oip->dbg.isr_cnt <= (cnt_t)0) ||
 80051b8:	f8d4 308c 	ldr.w	r3, [r4, #140]	; 0x8c
 80051bc:	2b00      	cmp	r3, #0
 80051be:	dd52      	ble.n	8005266 <VectorB0+0x1a6>
 80051c0:	f8d4 3090 	ldr.w	r3, [r4, #144]	; 0x90
 80051c4:	2b00      	cmp	r3, #0
 80051c6:	dd4e      	ble.n	8005266 <VectorB0+0x1a6>
  oip->dbg.lock_cnt = (cnt_t)0;
 80051c8:	f8c4 a090 	str.w	sl, [r4, #144]	; 0x90
 80051cc:	f388 8811 	msr	BASEPRI, r8
    /* The callback is invoked outside the kernel critical section, it
       is re-entered on the callback return. Note that "lasttime" can be
       modified within the callback if some timer function is called.*/
    chSysUnlockFromISR();

    vtp->func(vtp, vtp->par);
 80051d0:	e9d6 3103 	ldrd	r3, r1, [r6, #12]
 80051d4:	4630      	mov	r0, r6
 80051d6:	4798      	blx	r3
 80051d8:	f389 8811 	msr	BASEPRI, r9
  if (unlikely((oip->dbg.isr_cnt <= (cnt_t)0) ||
 80051dc:	f8d4 308c 	ldr.w	r3, [r4, #140]	; 0x8c
 80051e0:	2b00      	cmp	r3, #0
 80051e2:	dd3d      	ble.n	8005260 <VectorB0+0x1a0>
 80051e4:	f8d4 3090 	ldr.w	r3, [r4, #144]	; 0x90
 80051e8:	2b00      	cmp	r3, #0
 80051ea:	d139      	bne.n	8005260 <VectorB0+0x1a0>

    chSysLockFromISR();

    /* If a reload is defined the timer needs to be restarted.*/
    if (unlikely(vtp->reload > (sysinterval_t)0)) {
 80051ec:	6973      	ldr	r3, [r6, #20]
  oip->dbg.lock_cnt = (cnt_t)1;
 80051ee:	2201      	movs	r2, #1
 80051f0:	f8c4 2090 	str.w	r2, [r4, #144]	; 0x90
 80051f4:	2b00      	cmp	r3, #0
 80051f6:	d0cb      	beq.n	8005190 <VectorB0+0xd0>
  return (systime_t)STM32_ST_TIM->CNT;
 80051f8:	6a69      	ldr	r1, [r5, #36]	; 0x24
  return (sysinterval_t)((systime_t)(end - start));
 80051fa:	1bca      	subs	r2, r1, r7
      now = chVTGetSystemTimeX();
      nowdelta = chTimeDiffX(lasttime, now);

#if !defined(CH_VT_RFCU_DISABLED)
      /* Checking if the required reload is feasible.*/
      if (nowdelta > vtp->reload) {
 80051fc:	4293      	cmp	r3, r2
 80051fe:	d34b      	bcc.n	8005298 <VectorB0+0x1d8>
  return (bool)(dlhp == dlhp->next);
 8005200:	6920      	ldr	r0, [r4, #16]
      /* Enqueuing the timer again using the calculated delta.*/
      delay = vtp->reload - nowdelta;
#endif

      /* Special case where the timers list is empty.*/
      if (ch_dlist_isempty(&vtlp->dlist)) {
 8005202:	4558      	cmp	r0, fp
 8005204:	d04e      	beq.n	80052a4 <VectorB0+0x1e4>
  while (likely(dlp->delta < delta)) {
 8005206:	6882      	ldr	r2, [r0, #8]
 8005208:	4293      	cmp	r3, r2
 800520a:	d909      	bls.n	8005220 <VectorB0+0x160>
    chDbgAssert(dlp != dlep, "element already in list");
 800520c:	42b0      	cmp	r0, r6
 800520e:	d102      	bne.n	8005216 <VectorB0+0x156>
 8005210:	e045      	b.n	800529e <VectorB0+0x1de>
 8005212:	4286      	cmp	r6, r0
 8005214:	d043      	beq.n	800529e <VectorB0+0x1de>
    dlp = dlp->next;
 8005216:	6800      	ldr	r0, [r0, #0]
    delta -= dlp->delta;
 8005218:	1a9b      	subs	r3, r3, r2
  while (likely(dlp->delta < delta)) {
 800521a:	6882      	ldr	r2, [r0, #8]
 800521c:	4293      	cmp	r3, r2
 800521e:	d8f8      	bhi.n	8005212 <VectorB0+0x152>
  dlp->delta      = delta;
 8005220:	60b3      	str	r3, [r6, #8]
  dlp->delta -= delta;
 8005222:	6882      	ldr	r2, [r0, #8]
  dlp->next       = dlhp;
 8005224:	6030      	str	r0, [r6, #0]
  dlp->delta -= delta;
 8005226:	1ad2      	subs	r2, r2, r3
  dlp->prev       = dlp->next->prev;
 8005228:	6843      	ldr	r3, [r0, #4]
 800522a:	6073      	str	r3, [r6, #4]
  dlp->prev->next = dlp;
 800522c:	601e      	str	r6, [r3, #0]
  dlhp->delta = (sysinterval_t)-1;
 800522e:	f04f 33ff 	mov.w	r3, #4294967295	; 0xffffffff
  dlp->delta -= delta;
 8005232:	e9c0 6201 	strd	r6, r2, [r0, #4]
  dlhp->delta = (sysinterval_t)-1;
 8005236:	61a3      	str	r3, [r4, #24]
}
 8005238:	e7a8      	b.n	800518c <VectorB0+0xcc>
    chSysHalt("SV#9");
 800523a:	4821      	ldr	r0, [pc, #132]	; (80052c0 <VectorB0+0x200>)
 800523c:	f7fb fd20 	bl	8000c80 <chSysHalt>
 8005240:	f381 8811 	msr	BASEPRI, r1
    oip->trace_buffer.ptr->type        = CH_TRACE_TYPE_ISR_LEAVE;
 8005244:	f8d4 3098 	ldr.w	r3, [r4, #152]	; 0x98
    oip->trace_buffer.ptr->u.isr.name  = isr;
 8005248:	4a1a      	ldr	r2, [pc, #104]	; (80052b4 <VectorB0+0x1f4>)
 800524a:	609a      	str	r2, [r3, #8]
    oip->trace_buffer.ptr->type        = CH_TRACE_TYPE_ISR_LEAVE;
 800524c:	2104      	movs	r1, #4
 800524e:	7019      	strb	r1, [r3, #0]
    trace_next(oip);
 8005250:	f7fb fcf6 	bl	8000c40 <trace_next.constprop.0>
 8005254:	f385 8811 	msr	BASEPRI, r5
}
 8005258:	e8bd 4ff8 	ldmia.w	sp!, {r3, r4, r5, r6, r7, r8, r9, sl, fp, lr}
  OSAL_IRQ_EPILOGUE();
 800525c:	f7fb bc08 	b.w	8000a70 <__port_irq_epilogue>
    chSysHalt("SV#6");
 8005260:	4818      	ldr	r0, [pc, #96]	; (80052c4 <VectorB0+0x204>)
 8005262:	f7fb fd0d 	bl	8000c80 <chSysHalt>
    chSysHalt("SV#7");
 8005266:	4818      	ldr	r0, [pc, #96]	; (80052c8 <VectorB0+0x208>)
 8005268:	f7fb fd0a 	bl	8000c80 <chSysHalt>
      ch_dlist_insert(&vtlp->dlist, &vtp->dlist, delta);
    }
  }

  /* If the list is empty, nothing else to do.*/
  if (ch_dlist_isempty(&vtlp->dlist)) {
 800526c:	455e      	cmp	r6, fp
 800526e:	d005      	beq.n	800527c <VectorB0+0x1bc>
  }

  /* The "unprocessed nowdelta" time slice is added to "last time"
     and subtracted to next timer's delta.*/
  vtlp->lasttime += nowdelta;
  vtp->dlist.delta -= nowdelta;
 8005270:	1a12      	subs	r2, r2, r0
 8005272:	19d1      	adds	r1, r2, r7
  vtlp->lasttime += nowdelta;
 8005274:	61e0      	str	r0, [r4, #28]
  vtp->dlist.delta -= nowdelta;
 8005276:	60b1      	str	r1, [r6, #8]

  /* Update alarm time to next timer.*/
  vt_set_alarm(now, vtp->dlist.delta);
 8005278:	f7fb ff6a 	bl	8001150 <vt_set_alarm>
  if (unlikely((oip->dbg.isr_cnt <= (cnt_t)0) ||
 800527c:	f8d4 308c 	ldr.w	r3, [r4, #140]	; 0x8c
 8005280:	2b00      	cmp	r3, #0
 8005282:	ddf0      	ble.n	8005266 <VectorB0+0x1a6>
 8005284:	f8d4 3090 	ldr.w	r3, [r4, #144]	; 0x90
 8005288:	2b00      	cmp	r3, #0
 800528a:	ddec      	ble.n	8005266 <VectorB0+0x1a6>
  oip->dbg.lock_cnt = (cnt_t)0;
 800528c:	2300      	movs	r3, #0
 800528e:	f8c4 3090 	str.w	r3, [r4, #144]	; 0x90
 8005292:	f383 8811 	msr	BASEPRI, r3
}
 8005296:	e735      	b.n	8005104 <VectorB0+0x44>
        chDbgAssert(false, "skipped deadline");
 8005298:	480c      	ldr	r0, [pc, #48]	; (80052cc <VectorB0+0x20c>)
 800529a:	f7fb fcf1 	bl	8000c80 <chSysHalt>
    chDbgAssert(dlp != dlep, "element already in list");
 800529e:	480c      	ldr	r0, [pc, #48]	; (80052d0 <VectorB0+0x210>)
 80052a0:	f7fb fcee 	bl	8000c80 <chSysHalt>
        delay = vtp->reload - nowdelta;
 80052a4:	1a5b      	subs	r3, r3, r1
        vt_insert_first(vtlp, vtp, now, delay);
 80052a6:	19da      	adds	r2, r3, r7
 80052a8:	4630      	mov	r0, r6
 80052aa:	f7fc fab9 	bl	8001820 <vt_insert_first.constprop.0>
        return;
 80052ae:	e7e5      	b.n	800527c <VectorB0+0x1bc>
 80052b0:	20000ec8 	.word	0x20000ec8
 80052b4:	08007cdc 	.word	0x08007cdc
 80052b8:	08007b64 	.word	0x08007b64
 80052bc:	20000ed8 	.word	0x20000ed8
 80052c0:	08007b6c 	.word	0x08007b6c
 80052c4:	080072ec 	.word	0x080072ec
 80052c8:	080072fc 	.word	0x080072fc
 80052cc:	08007e0c 	.word	0x08007e0c
 80052d0:	08008004 	.word	0x08008004
	...

080052e0 <Vector14C>:
OSAL_IRQ_HANDLER(STM32_OTG1_HANDLER) {
 80052e0:	e92d 4ff8 	stmdb	sp!, {r3, r4, r5, r6, r7, r8, r9, sl, fp, lr}
  if ((oip->trace_buffer.suspended & CH_DBG_TRACE_MASK_ISR) == 0U) {
 80052e4:	f8df 82b8 	ldr.w	r8, [pc, #696]	; 80055a0 <Vector14C+0x2c0>
 80052e8:	f8b8 3094 	ldrh.w	r3, [r8, #148]	; 0x94
 80052ec:	f013 0404 	ands.w	r4, r3, #4
 80052f0:	f000 815e 	beq.w	80055b0 <Vector14C+0x2d0>
 80052f4:	2330      	movs	r3, #48	; 0x30
 80052f6:	f383 8811 	msr	BASEPRI, r3
  if (unlikely((oip->dbg.isr_cnt < (cnt_t)0) ||
 80052fa:	f8d8 308c 	ldr.w	r3, [r8, #140]	; 0x8c
 80052fe:	2b00      	cmp	r3, #0
 8005300:	f2c0 816b 	blt.w	80055da <Vector14C+0x2fa>
 8005304:	f8d8 2090 	ldr.w	r2, [r8, #144]	; 0x90
 8005308:	2a00      	cmp	r2, #0
 800530a:	f040 8166 	bne.w	80055da <Vector14C+0x2fa>
  oip->dbg.isr_cnt++;
 800530e:	3301      	adds	r3, #1
 8005310:	f8c8 308c 	str.w	r3, [r8, #140]	; 0x8c
 8005314:	f382 8811 	msr	BASEPRI, r2
  stm32_otg_t *otgp = usbp->otg;
 8005318:	4ea2      	ldr	r6, [pc, #648]	; (80055a4 <Vector14C+0x2c4>)
 800531a:	6d74      	ldr	r4, [r6, #84]	; 0x54
  sts  = otgp->GINTSTS;
 800531c:	6967      	ldr	r7, [r4, #20]
  sts &= otgp->GINTMSK;
 800531e:	69a3      	ldr	r3, [r4, #24]
 8005320:	401f      	ands	r7, r3
  if (sts & GINTSTS_USBRST) {
 8005322:	f417 5980 	ands.w	r9, r7, #4096	; 0x1000
  otgp->GINTSTS = sts;
 8005326:	6167      	str	r7, [r4, #20]
  if (sts & GINTSTS_USBRST) {
 8005328:	f040 818e 	bne.w	8005648 <Vector14C+0x368>
  if (sts & GINTSTS_WKUPINT) {
 800532c:	2f00      	cmp	r7, #0
 800532e:	db5a      	blt.n	80053e6 <Vector14C+0x106>
  if (sts & GINTSTS_USBSUSP) {
 8005330:	053b      	lsls	r3, r7, #20
 8005332:	f100 8110 	bmi.w	8005556 <Vector14C+0x276>
  if (sts & GINTSTS_ENUMDNE) {
 8005336:	04bd      	lsls	r5, r7, #18
 8005338:	d50c      	bpl.n	8005354 <Vector14C+0x74>
    if ((otgp->DSTS & DSTS_ENUMSPD_MASK) == DSTS_ENUMSPD_HS_480) {
 800533a:	f8d4 3808 	ldr.w	r3, [r4, #2056]	; 0x808
 800533e:	f013 0f06 	tst.w	r3, #6
      otgp->GUSBCFG = (otgp->GUSBCFG & ~(GUSBCFG_TRDT_MASK)) |
 8005342:	68e3      	ldr	r3, [r4, #12]
 8005344:	f423 5370 	bic.w	r3, r3, #15360	; 0x3c00
 8005348:	bf0c      	ite	eq
 800534a:	f443 5310 	orreq.w	r3, r3, #9216	; 0x2400
      otgp->GUSBCFG = (otgp->GUSBCFG & ~(GUSBCFG_TRDT_MASK)) |
 800534e:	f443 53a0 	orrne.w	r3, r3, #5120	; 0x1400
 8005352:	60e3      	str	r3, [r4, #12]
  if (sts & GINTSTS_SOF) {
 8005354:	0738      	lsls	r0, r7, #28
 8005356:	d504      	bpl.n	8005362 <Vector14C+0x82>
    _usb_isr_invoke_sof_cb(usbp);
 8005358:	6873      	ldr	r3, [r6, #4]
 800535a:	68db      	ldr	r3, [r3, #12]
 800535c:	b10b      	cbz	r3, 8005362 <Vector14C+0x82>
 800535e:	4891      	ldr	r0, [pc, #580]	; (80055a4 <Vector14C+0x2c4>)
 8005360:	4798      	blx	r3
  if (sts & GINTSTS_IISOIXFR) {
 8005362:	02f9      	lsls	r1, r7, #11
 8005364:	f100 8082 	bmi.w	800546c <Vector14C+0x18c>
  if (sts & GINTSTS_IISOOXFR) {
 8005368:	02ba      	lsls	r2, r7, #10
 800536a:	f100 80c9 	bmi.w	8005500 <Vector14C+0x220>
  if ((sts & GINTSTS_RXFLVL) != 0U) {
 800536e:	06fb      	lsls	r3, r7, #27
 8005370:	d456      	bmi.n	8005420 <Vector14C+0x140>
  if (sts & GINTSTS_OEPINT) {
 8005372:	0338      	lsls	r0, r7, #12
  src = otgp->DAINT;
 8005374:	f8d4 4818 	ldr.w	r4, [r4, #2072]	; 0x818
  if (sts & GINTSTS_OEPINT) {
 8005378:	d50b      	bpl.n	8005392 <Vector14C+0xb2>
    if (src & (1 << 16))
 800537a:	03e1      	lsls	r1, r4, #15
 800537c:	f100 81d4 	bmi.w	8005728 <Vector14C+0x448>
    if (src & (1 << 17))
 8005380:	03a2      	lsls	r2, r4, #14
 8005382:	f100 81d7 	bmi.w	8005734 <Vector14C+0x454>
    if (src & (1 << 18))
 8005386:	0363      	lsls	r3, r4, #13
 8005388:	f100 81da 	bmi.w	8005740 <Vector14C+0x460>
    if (src & (1 << 19))
 800538c:	0326      	lsls	r6, r4, #12
 800538e:	f100 8127 	bmi.w	80055e0 <Vector14C+0x300>
  if (sts & GINTSTS_IEPINT) {
 8005392:	037d      	lsls	r5, r7, #13
 8005394:	d50b      	bpl.n	80053ae <Vector14C+0xce>
    if (src & (1 << 0))
 8005396:	07e0      	lsls	r0, r4, #31
 8005398:	f100 81d6 	bmi.w	8005748 <Vector14C+0x468>
    if (src & (1 << 1))
 800539c:	07a1      	lsls	r1, r4, #30
 800539e:	f100 81d9 	bmi.w	8005754 <Vector14C+0x474>
    if (src & (1 << 2))
 80053a2:	0762      	lsls	r2, r4, #29
 80053a4:	f100 81dc 	bmi.w	8005760 <Vector14C+0x480>
    if (src & (1 << 3))
 80053a8:	0723      	lsls	r3, r4, #28
 80053aa:	f100 8120 	bmi.w	80055ee <Vector14C+0x30e>
 80053ae:	2130      	movs	r1, #48	; 0x30
 80053b0:	f381 8811 	msr	BASEPRI, r1
  if (unlikely((oip->dbg.isr_cnt <= (cnt_t)0) ||
 80053b4:	f8d8 308c 	ldr.w	r3, [r8, #140]	; 0x8c
 80053b8:	2b00      	cmp	r3, #0
 80053ba:	f340 81b2 	ble.w	8005722 <Vector14C+0x442>
 80053be:	f8d8 2090 	ldr.w	r2, [r8, #144]	; 0x90
 80053c2:	2a00      	cmp	r2, #0
 80053c4:	f040 81ad 	bne.w	8005722 <Vector14C+0x442>
  oip->dbg.isr_cnt--;
 80053c8:	3b01      	subs	r3, #1
 80053ca:	f8c8 308c 	str.w	r3, [r8, #140]	; 0x8c
 80053ce:	f382 8811 	msr	BASEPRI, r2
  if ((oip->trace_buffer.suspended & CH_DBG_TRACE_MASK_ISR) == 0U) {
 80053d2:	f8b8 3094 	ldrh.w	r3, [r8, #148]	; 0x94
 80053d6:	f013 0404 	ands.w	r4, r3, #4
 80053da:	f000 80d1 	beq.w	8005580 <Vector14C+0x2a0>
}
 80053de:	e8bd 4ff8 	ldmia.w	sp!, {r3, r4, r5, r6, r7, r8, r9, sl, fp, lr}
  OSAL_IRQ_EPILOGUE();
 80053e2:	f7fb bb45 	b.w	8000a70 <__port_irq_epilogue>
    if (otgp->PCGCCTL & (PCGCCTL_STPPCLK | PCGCCTL_GATEHCLK)) {
 80053e6:	f8d4 3e00 	ldr.w	r3, [r4, #3584]	; 0xe00
 80053ea:	079a      	lsls	r2, r3, #30
 80053ec:	d005      	beq.n	80053fa <Vector14C+0x11a>
      otgp->PCGCCTL &= ~(PCGCCTL_STPPCLK | PCGCCTL_GATEHCLK);
 80053ee:	f8d4 3e00 	ldr.w	r3, [r4, #3584]	; 0xe00
 80053f2:	f023 0303 	bic.w	r3, r3, #3
 80053f6:	f8c4 3e00 	str.w	r3, [r4, #3584]	; 0xe00
  usbp->state = usbp->saved_state;
 80053fa:	f896 3050 	ldrb.w	r3, [r6, #80]	; 0x50
 80053fe:	7033      	strb	r3, [r6, #0]
  _usb_isr_invoke_event_cb(usbp, USB_EVENT_WAKEUP);
 8005400:	6873      	ldr	r3, [r6, #4]
 8005402:	681a      	ldr	r2, [r3, #0]
    otgp->DCTL &= ~DCTL_RWUSIG;
 8005404:	f8d4 3804 	ldr.w	r3, [r4, #2052]	; 0x804
 8005408:	f023 0301 	bic.w	r3, r3, #1
 800540c:	f8c4 3804 	str.w	r3, [r4, #2052]	; 0x804
 8005410:	2a00      	cmp	r2, #0
 8005412:	d08d      	beq.n	8005330 <Vector14C+0x50>
 8005414:	4863      	ldr	r0, [pc, #396]	; (80055a4 <Vector14C+0x2c4>)
 8005416:	2105      	movs	r1, #5
 8005418:	4790      	blx	r2
  if (sts & GINTSTS_USBSUSP) {
 800541a:	053b      	lsls	r3, r7, #20
 800541c:	d58b      	bpl.n	8005336 <Vector14C+0x56>
 800541e:	e09a      	b.n	8005556 <Vector14C+0x276>
  sts = usbp->otg->GRXSTSP;
 8005420:	6d75      	ldr	r5, [r6, #84]	; 0x54
 8005422:	6a2b      	ldr	r3, [r5, #32]
  switch (sts & GRXSTSP_PKTSTS_MASK) {
 8005424:	f403 12f0 	and.w	r2, r3, #1966080	; 0x1e0000
 8005428:	f5b2 2f80 	cmp.w	r2, #262144	; 0x40000
  cnt = (sts & GRXSTSP_BCNT_MASK) >> GRXSTSP_BCNT_OFF;
 800542c:	f3c3 110a 	ubfx	r1, r3, #4, #11
  ep  = (sts & GRXSTSP_EPNUM_MASK) >> GRXSTSP_EPNUM_OFF;
 8005430:	f003 030f 	and.w	r3, r3, #15
  switch (sts & GRXSTSP_PKTSTS_MASK) {
 8005434:	f000 80df 	beq.w	80055f6 <Vector14C+0x316>
 8005438:	f5b2 2f40 	cmp.w	r2, #786432	; 0xc0000
 800543c:	d199      	bne.n	8005372 <Vector14C+0x92>
    otg_fifo_read_to_buffer(usbp->otg->FIFO[0], usbp->epc[ep]->setup_buf,
 800543e:	eb06 0383 	add.w	r3, r6, r3, lsl #2
 8005442:	68db      	ldr	r3, [r3, #12]
 8005444:	6a1a      	ldr	r2, [r3, #32]
  while (i < n) {
 8005446:	2900      	cmp	r1, #0
 8005448:	d093      	beq.n	8005372 <Vector14C+0x92>
      w = *fifop;
 800544a:	f505 5580 	add.w	r5, r5, #4096	; 0x1000
  size_t i = 0;
 800544e:	2300      	movs	r3, #0
 8005450:	4648      	mov	r0, r9
    if ((i & 3) == 0) {
 8005452:	079e      	lsls	r6, r3, #30
      w = *fifop;
 8005454:	bf08      	it	eq
 8005456:	6828      	ldreq	r0, [r5, #0]
    if (i < max) {
 8005458:	2b07      	cmp	r3, #7
    i++;
 800545a:	f103 0301 	add.w	r3, r3, #1
      *buf++ = (uint8_t)w;
 800545e:	bf9c      	itt	ls
 8005460:	f802 0b01 	strbls.w	r0, [r2], #1
      w >>= 8;
 8005464:	0a00      	lsrls	r0, r0, #8
  while (i < n) {
 8005466:	4299      	cmp	r1, r3
 8005468:	d1f3      	bne.n	8005452 <Vector14C+0x172>
 800546a:	e782      	b.n	8005372 <Vector14C+0x92>
  for (ep = 0; ep <= usbp->otgparams->num_endpoints; ep++) {
 800546c:	f04f 0c00 	mov.w	ip, #0
  stm32_otg_t *otgp = usbp->otg;
 8005470:	f8d6 a054 	ldr.w	sl, [r6, #84]	; 0x54
 8005474:	f8df b130 	ldr.w	fp, [pc, #304]	; 80055a8 <Vector14C+0x2c8>
      _usb_isr_invoke_in_cb(usbp, ep);
 8005478:	484a      	ldr	r0, [pc, #296]	; (80055a4 <Vector14C+0x2c4>)
  for (ep = 0; ep <= usbp->otgparams->num_endpoints; ep++) {
 800547a:	4665      	mov	r5, ip
      _usb_isr_invoke_in_cb(usbp, ep);
 800547c:	2201      	movs	r2, #1
 800547e:	e007      	b.n	8005490 <Vector14C+0x1b0>
  for (ep = 0; ep <= usbp->otgparams->num_endpoints; ep++) {
 8005480:	6db3      	ldr	r3, [r6, #88]	; 0x58
 8005482:	3501      	adds	r5, #1
 8005484:	689b      	ldr	r3, [r3, #8]
 8005486:	b2ed      	uxtb	r5, r5
 8005488:	429d      	cmp	r5, r3
 800548a:	46ac      	mov	ip, r5
 800548c:	f63f af6c 	bhi.w	8005368 <Vector14C+0x88>
 8005490:	eb0a 1145 	add.w	r1, sl, r5, lsl #5
    if (((otgp->ie[ep].DIEPCTL & DIEPCTL_EPTYP_MASK) == DIEPCTL_EPTYP_ISO) &&
 8005494:	f8d1 3900 	ldr.w	r3, [r1, #2304]	; 0x900
 8005498:	f403 2340 	and.w	r3, r3, #786432	; 0xc0000
 800549c:	f5b3 2f80 	cmp.w	r3, #262144	; 0x40000
 80054a0:	d1ee      	bne.n	8005480 <Vector14C+0x1a0>
        ((otgp->ie[ep].DIEPCTL & DIEPCTL_EPENA) != 0)) {
 80054a2:	f8d1 3900 	ldr.w	r3, [r1, #2304]	; 0x900
    if (((otgp->ie[ep].DIEPCTL & DIEPCTL_EPTYP_MASK) == DIEPCTL_EPTYP_ISO) &&
 80054a6:	2b00      	cmp	r3, #0
 80054a8:	daea      	bge.n	8005480 <Vector14C+0x1a0>
      otgp->ie[ep].DIEPCTL |= (DIEPCTL_EPDIS | DIEPCTL_SNAK);
 80054aa:	f8d1 3900 	ldr.w	r3, [r1, #2304]	; 0x900
 80054ae:	f043 4390 	orr.w	r3, r3, #1207959552	; 0x48000000
 80054b2:	f8c1 3900 	str.w	r3, [r1, #2304]	; 0x900
      while (otgp->ie[ep].DIEPCTL & DIEPCTL_EPENA)
 80054b6:	f8d1 3900 	ldr.w	r3, [r1, #2304]	; 0x900
 80054ba:	2b00      	cmp	r3, #0
 80054bc:	dbfb      	blt.n	80054b6 <Vector14C+0x1d6>
 80054be:	6d71      	ldr	r1, [r6, #84]	; 0x54
  otgp->GRSTCTL = GRSTCTL_TXFNUM(fifo) | GRSTCTL_TXFFLSH;
 80054c0:	ea4f 1c8c 	mov.w	ip, ip, lsl #6
 80054c4:	f04c 0320 	orr.w	r3, ip, #32
 80054c8:	610b      	str	r3, [r1, #16]
  while ((otgp->GRSTCTL & GRSTCTL_TXFFLSH) != 0)
 80054ca:	690b      	ldr	r3, [r1, #16]
 80054cc:	069b      	lsls	r3, r3, #26
 80054ce:	d4fc      	bmi.n	80054ca <Vector14C+0x1ea>
 80054d0:	f8db 1004 	ldr.w	r1, [fp, #4]
 80054d4:	f8db 3004 	ldr.w	r3, [fp, #4]
  return (bool)(((rtcnt_t)cnt - (rtcnt_t)start) <
 80054d8:	1a5b      	subs	r3, r3, r1
  while (chSysIsCounterWithinX(chSysGetRealtimeCounterX(), start, end)) {
 80054da:	2b11      	cmp	r3, #17
 80054dc:	d9fa      	bls.n	80054d4 <Vector14C+0x1f4>
      _usb_isr_invoke_in_cb(usbp, ep);
 80054de:	eb06 0385 	add.w	r3, r6, r5, lsl #2
 80054e2:	8931      	ldrh	r1, [r6, #8]
 80054e4:	68db      	ldr	r3, [r3, #12]
 80054e6:	fa02 fc05 	lsl.w	ip, r2, r5
 80054ea:	689b      	ldr	r3, [r3, #8]
 80054ec:	ea21 010c 	bic.w	r1, r1, ip
 80054f0:	8131      	strh	r1, [r6, #8]
 80054f2:	2b00      	cmp	r3, #0
 80054f4:	d0c4      	beq.n	8005480 <Vector14C+0x1a0>
 80054f6:	4629      	mov	r1, r5
 80054f8:	4798      	blx	r3
 80054fa:	482a      	ldr	r0, [pc, #168]	; (80055a4 <Vector14C+0x2c4>)
 80054fc:	2201      	movs	r2, #1
 80054fe:	e7bf      	b.n	8005480 <Vector14C+0x1a0>
  stm32_otg_t *otgp = usbp->otg;
 8005500:	f8d6 a054 	ldr.w	sl, [r6, #84]	; 0x54
      _usb_isr_invoke_out_cb(usbp, ep);
 8005504:	4827      	ldr	r0, [pc, #156]	; (80055a4 <Vector14C+0x2c4>)
  for (ep = 0; ep <= usbp->otgparams->num_endpoints; ep++) {
 8005506:	2500      	movs	r5, #0
      _usb_isr_invoke_out_cb(usbp, ep);
 8005508:	f04f 0b01 	mov.w	fp, #1
 800550c:	e006      	b.n	800551c <Vector14C+0x23c>
  for (ep = 0; ep <= usbp->otgparams->num_endpoints; ep++) {
 800550e:	6db3      	ldr	r3, [r6, #88]	; 0x58
 8005510:	3501      	adds	r5, #1
 8005512:	689b      	ldr	r3, [r3, #8]
 8005514:	b2ed      	uxtb	r5, r5
 8005516:	429d      	cmp	r5, r3
 8005518:	f63f af29 	bhi.w	800536e <Vector14C+0x8e>
 800551c:	eb0a 1245 	add.w	r2, sl, r5, lsl #5
    if (((otgp->oe[ep].DOEPCTL & DOEPCTL_EPTYP_MASK) == DOEPCTL_EPTYP_ISO) &&
 8005520:	f8d2 3b00 	ldr.w	r3, [r2, #2816]	; 0xb00
 8005524:	f403 2340 	and.w	r3, r3, #786432	; 0xc0000
 8005528:	f5b3 2f80 	cmp.w	r3, #262144	; 0x40000
 800552c:	d1ef      	bne.n	800550e <Vector14C+0x22e>
        ((otgp->oe[ep].DOEPCTL & DOEPCTL_EPENA) != 0)) {
 800552e:	f8d2 3b00 	ldr.w	r3, [r2, #2816]	; 0xb00
    if (((otgp->oe[ep].DOEPCTL & DOEPCTL_EPTYP_MASK) == DOEPCTL_EPTYP_ISO) &&
 8005532:	2b00      	cmp	r3, #0
 8005534:	daeb      	bge.n	800550e <Vector14C+0x22e>
      _usb_isr_invoke_out_cb(usbp, ep);
 8005536:	eb06 0385 	add.w	r3, r6, r5, lsl #2
 800553a:	fa0b f105 	lsl.w	r1, fp, r5
 800553e:	68db      	ldr	r3, [r3, #12]
 8005540:	68da      	ldr	r2, [r3, #12]
 8005542:	8973      	ldrh	r3, [r6, #10]
 8005544:	ea23 0301 	bic.w	r3, r3, r1
 8005548:	8173      	strh	r3, [r6, #10]
 800554a:	2a00      	cmp	r2, #0
 800554c:	d0df      	beq.n	800550e <Vector14C+0x22e>
 800554e:	4629      	mov	r1, r5
 8005550:	4790      	blx	r2
 8005552:	4814      	ldr	r0, [pc, #80]	; (80055a4 <Vector14C+0x2c4>)
 8005554:	e7db      	b.n	800550e <Vector14C+0x22e>
    otg_disable_ep(usbp);
 8005556:	e9d6 0115 	ldrd	r0, r1, [r6, #84]	; 0x54
 800555a:	f7fb fbb1 	bl	8000cc0 <otg_disable_ep.isra.0>
  usbp->saved_state = usbp->state;
 800555e:	7833      	ldrb	r3, [r6, #0]
 8005560:	f886 3050 	strb.w	r3, [r6, #80]	; 0x50
  usbp->state       = USB_SUSPENDED;
 8005564:	2205      	movs	r2, #5
  _usb_isr_invoke_event_cb(usbp, USB_EVENT_SUSPEND);
 8005566:	6873      	ldr	r3, [r6, #4]
  usbp->state       = USB_SUSPENDED;
 8005568:	7032      	strb	r2, [r6, #0]
  _usb_isr_invoke_event_cb(usbp, USB_EVENT_SUSPEND);
 800556a:	681b      	ldr	r3, [r3, #0]
 800556c:	b113      	cbz	r3, 8005574 <Vector14C+0x294>
 800556e:	480d      	ldr	r0, [pc, #52]	; (80055a4 <Vector14C+0x2c4>)
 8005570:	2104      	movs	r1, #4
 8005572:	4798      	blx	r3
  usbp->transmitting  = 0;
 8005574:	2300      	movs	r3, #0
  if (sts & GINTSTS_ENUMDNE) {
 8005576:	04bd      	lsls	r5, r7, #18
 8005578:	60b3      	str	r3, [r6, #8]
 800557a:	f57f aeeb 	bpl.w	8005354 <Vector14C+0x74>
 800557e:	e6dc      	b.n	800533a <Vector14C+0x5a>
 8005580:	f381 8811 	msr	BASEPRI, r1
    oip->trace_buffer.ptr->type        = CH_TRACE_TYPE_ISR_LEAVE;
 8005584:	f8d8 3098 	ldr.w	r3, [r8, #152]	; 0x98
    oip->trace_buffer.ptr->u.isr.name  = isr;
 8005588:	4a08      	ldr	r2, [pc, #32]	; (80055ac <Vector14C+0x2cc>)
 800558a:	609a      	str	r2, [r3, #8]
    oip->trace_buffer.ptr->type        = CH_TRACE_TYPE_ISR_LEAVE;
 800558c:	2104      	movs	r1, #4
 800558e:	7019      	strb	r1, [r3, #0]
    trace_next(oip);
 8005590:	f7fb fb56 	bl	8000c40 <trace_next.constprop.0>
 8005594:	f384 8811 	msr	BASEPRI, r4
}
 8005598:	e8bd 4ff8 	ldmia.w	sp!, {r3, r4, r5, r6, r7, r8, r9, sl, fp, lr}
  OSAL_IRQ_EPILOGUE();
 800559c:	f7fb ba68 	b.w	8000a70 <__port_irq_epilogue>
 80055a0:	20000ec8 	.word	0x20000ec8
 80055a4:	20000de0 	.word	0x20000de0
 80055a8:	e0001000 	.word	0xe0001000
 80055ac:	08007ef0 	.word	0x08007ef0
 80055b0:	2330      	movs	r3, #48	; 0x30
 80055b2:	f383 8811 	msr	BASEPRI, r3
    oip->trace_buffer.ptr->type        = CH_TRACE_TYPE_ISR_ENTER;
 80055b6:	f8d8 3098 	ldr.w	r3, [r8, #152]	; 0x98
    oip->trace_buffer.ptr->u.isr.name  = isr;
 80055ba:	4a6d      	ldr	r2, [pc, #436]	; (8005770 <Vector14C+0x490>)
 80055bc:	609a      	str	r2, [r3, #8]
    oip->trace_buffer.ptr->type        = CH_TRACE_TYPE_ISR_ENTER;
 80055be:	2103      	movs	r1, #3
 80055c0:	7019      	strb	r1, [r3, #0]
    trace_next(oip);
 80055c2:	f7fb fb3d 	bl	8000c40 <trace_next.constprop.0>
 80055c6:	f384 8811 	msr	BASEPRI, r4
 80055ca:	2330      	movs	r3, #48	; 0x30
 80055cc:	f383 8811 	msr	BASEPRI, r3
  if (unlikely((oip->dbg.isr_cnt < (cnt_t)0) ||
 80055d0:	f8d8 308c 	ldr.w	r3, [r8, #140]	; 0x8c
 80055d4:	2b00      	cmp	r3, #0
 80055d6:	f6bf ae95 	bge.w	8005304 <Vector14C+0x24>
    chSysHalt("SV#8");
 80055da:	4866      	ldr	r0, [pc, #408]	; (8005774 <Vector14C+0x494>)
 80055dc:	f7fb fb50 	bl	8000c80 <chSysHalt>
      otg_epout_handler(usbp, 3);
 80055e0:	2003      	movs	r0, #3
 80055e2:	f7fc f855 	bl	8001690 <otg_epout_handler.constprop.0>
  if (sts & GINTSTS_IEPINT) {
 80055e6:	037d      	lsls	r5, r7, #13
 80055e8:	f57f aee1 	bpl.w	80053ae <Vector14C+0xce>
 80055ec:	e6d3      	b.n	8005396 <Vector14C+0xb6>
      otg_epin_handler(usbp, 3);
 80055ee:	2003      	movs	r0, #3
 80055f0:	f7fb ffae 	bl	8001550 <otg_epin_handler.constprop.0>
 80055f4:	e6db      	b.n	80053ae <Vector14C+0xce>
                            usbp->epc[ep]->out_state->rxbuf,
 80055f6:	1c98      	adds	r0, r3, #2
 80055f8:	eb06 0380 	add.w	r3, r6, r0, lsl #2
 80055fc:	685b      	ldr	r3, [r3, #4]
 80055fe:	699b      	ldr	r3, [r3, #24]
    otg_fifo_read_to_buffer(usbp->otg->FIFO[0],
 8005600:	e9d3 2a00 	ldrd	r2, sl, [r3]
 8005604:	eba2 0c0a 	sub.w	ip, r2, sl
 8005608:	689a      	ldr	r2, [r3, #8]
  while (i < n) {
 800560a:	b1c1      	cbz	r1, 800563e <Vector14C+0x35e>
      w = *fifop;
 800560c:	f505 5580 	add.w	r5, r5, #4096	; 0x1000
  size_t i = 0;
 8005610:	46ae      	mov	lr, r5
 8005612:	2300      	movs	r3, #0
 8005614:	464d      	mov	r5, r9
    if ((i & 3) == 0) {
 8005616:	f013 0f03 	tst.w	r3, #3
      w = *fifop;
 800561a:	bf08      	it	eq
 800561c:	f8de 5000 	ldreq.w	r5, [lr]
    if (i < max) {
 8005620:	459c      	cmp	ip, r3
    i++;
 8005622:	f103 0301 	add.w	r3, r3, #1
      *buf++ = (uint8_t)w;
 8005626:	bf84      	itt	hi
 8005628:	f802 5b01 	strbhi.w	r5, [r2], #1
      w >>= 8;
 800562c:	0a2d      	lsrhi	r5, r5, #8
  while (i < n) {
 800562e:	4299      	cmp	r1, r3
 8005630:	d1f1      	bne.n	8005616 <Vector14C+0x336>
    usbp->epc[ep]->out_state->rxbuf += cnt;
 8005632:	eb06 0680 	add.w	r6, r6, r0, lsl #2
 8005636:	6873      	ldr	r3, [r6, #4]
 8005638:	699b      	ldr	r3, [r3, #24]
    usbp->epc[ep]->out_state->rxcnt += cnt;
 800563a:	e9d3 a201 	ldrd	sl, r2, [r3, #4]
    usbp->epc[ep]->out_state->rxbuf += cnt;
 800563e:	440a      	add	r2, r1
    usbp->epc[ep]->out_state->rxcnt += cnt;
 8005640:	4451      	add	r1, sl
 8005642:	e9c3 1201 	strd	r1, r2, [r3, #4]
    break;
 8005646:	e694      	b.n	8005372 <Vector14C+0x92>
  usbp->state         = USB_READY;
 8005648:	2302      	movs	r3, #2
 800564a:	7033      	strb	r3, [r6, #0]
  otgp->GRSTCTL = GRSTCTL_TXFNUM(fifo) | GRSTCTL_TXFFLSH;
 800564c:	2320      	movs	r3, #32
    usbp->epc[i] = NULL;
 800564e:	e9c6 2204 	strd	r2, r2, [r6, #16]
  usbp->status        = 0;
 8005652:	64f2      	str	r2, [r6, #76]	; 0x4c
    usbp->epc[i] = NULL;
 8005654:	61b2      	str	r2, [r6, #24]
  usbp->ep0state = USB_EP0_STP_WAITING;
 8005656:	f886 2034 	strb.w	r2, [r6, #52]	; 0x34
  usbp->transmitting  = 0;
 800565a:	60b2      	str	r2, [r6, #8]
 800565c:	6123      	str	r3, [r4, #16]
  while ((otgp->GRSTCTL & GRSTCTL_TXFFLSH) != 0)
 800565e:	6923      	ldr	r3, [r4, #16]
 8005660:	f013 0320 	ands.w	r3, r3, #32
 8005664:	d1fb      	bne.n	800565e <Vector14C+0x37e>
 8005666:	4944      	ldr	r1, [pc, #272]	; (8005778 <Vector14C+0x498>)
 8005668:	6848      	ldr	r0, [r1, #4]
 800566a:	684a      	ldr	r2, [r1, #4]
  return (bool)(((rtcnt_t)cnt - (rtcnt_t)start) <
 800566c:	1a12      	subs	r2, r2, r0
  while (chSysIsCounterWithinX(chSysGetRealtimeCounterX(), start, end)) {
 800566e:	2a11      	cmp	r2, #17
 8005670:	d9fb      	bls.n	800566a <Vector14C+0x38a>
  for (i = 0; i <= usbp->otgparams->num_endpoints; i++) {
 8005672:	6db5      	ldr	r5, [r6, #88]	; 0x58
  otgp->DIEPEMPMSK = 0;
 8005674:	2200      	movs	r2, #0
 8005676:	f8c4 2834 	str.w	r2, [r4, #2100]	; 0x834
  for (i = 0; i <= usbp->otgparams->num_endpoints; i++) {
 800567a:	68af      	ldr	r7, [r5, #8]
  otgp->DAINTMSK   = DAINTMSK_OEPM(0) | DAINTMSK_IEPM(0);
 800567c:	f04f 1201 	mov.w	r2, #65537	; 0x10001
 8005680:	f8c4 281c 	str.w	r2, [r4, #2076]	; 0x81c
    otgp->ie[i].DIEPCTL = DIEPCTL_SNAK;
 8005684:	f04f 6000 	mov.w	r0, #134217728	; 0x8000000
    otgp->ie[i].DIEPINT = 0xFFFFFFFF;
 8005688:	f04f 31ff 	mov.w	r1, #4294967295	; 0xffffffff
 800568c:	eb04 1243 	add.w	r2, r4, r3, lsl #5
  for (i = 0; i <= usbp->otgparams->num_endpoints; i++) {
 8005690:	429f      	cmp	r7, r3
    otgp->ie[i].DIEPCTL = DIEPCTL_SNAK;
 8005692:	f8c2 0900 	str.w	r0, [r2, #2304]	; 0x900
  for (i = 0; i <= usbp->otgparams->num_endpoints; i++) {
 8005696:	f103 0301 	add.w	r3, r3, #1
    otgp->oe[i].DOEPCTL = DOEPCTL_SNAK;
 800569a:	f8c2 0b00 	str.w	r0, [r2, #2816]	; 0xb00
    otgp->ie[i].DIEPINT = 0xFFFFFFFF;
 800569e:	f8c2 1908 	str.w	r1, [r2, #2312]	; 0x908
    otgp->oe[i].DOEPINT = 0xFFFFFFFF;
 80056a2:	f8c2 1b08 	str.w	r1, [r2, #2824]	; 0xb08
  for (i = 0; i <= usbp->otgparams->num_endpoints; i++) {
 80056a6:	d1f1      	bne.n	800568c <Vector14C+0x3ac>
  usbp->pmnext = usbp->otgparams->rx_fifo_size;
 80056a8:	6828      	ldr	r0, [r5, #0]
  otgp->GRXFSIZ = usbp->otgparams->rx_fifo_size;
 80056aa:	6260      	str	r0, [r4, #36]	; 0x24
  otgp->GRSTCTL = GRSTCTL_RXFFLSH;
 80056ac:	2310      	movs	r3, #16
 80056ae:	6123      	str	r3, [r4, #16]
  while ((otgp->GRSTCTL & GRSTCTL_RXFFLSH) != 0)
 80056b0:	6923      	ldr	r3, [r4, #16]
 80056b2:	06d9      	lsls	r1, r3, #27
 80056b4:	d4fc      	bmi.n	80056b0 <Vector14C+0x3d0>
 80056b6:	4a30      	ldr	r2, [pc, #192]	; (8005778 <Vector14C+0x498>)
 80056b8:	6851      	ldr	r1, [r2, #4]
 80056ba:	6853      	ldr	r3, [r2, #4]
  return (bool)(((rtcnt_t)cnt - (rtcnt_t)start) <
 80056bc:	1a5b      	subs	r3, r3, r1
  while (chSysIsCounterWithinX(chSysGetRealtimeCounterX(), start, end)) {
 80056be:	2b11      	cmp	r3, #17
 80056c0:	d9fb      	bls.n	80056ba <Vector14C+0x3da>
  otgp->DCFG = (otgp->DCFG & ~DCFG_DAD_MASK) | DCFG_DAD(0);
 80056c2:	f8d4 3800 	ldr.w	r3, [r4, #2048]	; 0x800
  osalDbgAssert(usbp->pmnext <= usbp->otgparams->otg_ram_size,
 80056c6:	686d      	ldr	r5, [r5, #4]
  otgp->DCFG = (otgp->DCFG & ~DCFG_DAD_MASK) | DCFG_DAD(0);
 80056c8:	f423 63fe 	bic.w	r3, r3, #2032	; 0x7f0
 80056cc:	f8c4 3800 	str.w	r3, [r4, #2048]	; 0x800
  otgp->GINTMSK  |= GINTMSK_RXFLVLM | GINTMSK_OEPM  | GINTMSK_IEPM;
 80056d0:	69a3      	ldr	r3, [r4, #24]
 80056d2:	f443 2340 	orr.w	r3, r3, #786432	; 0xc0000
  otgp->DIEPMSK   = DIEPMSK_TOCM    | DIEPMSK_XFRCM;
 80056d6:	2209      	movs	r2, #9
  otgp->GINTMSK  |= GINTMSK_RXFLVLM | GINTMSK_OEPM  | GINTMSK_IEPM;
 80056d8:	f043 0310 	orr.w	r3, r3, #16
 80056dc:	61a3      	str	r3, [r4, #24]
  otgp->DIEPMSK   = DIEPMSK_TOCM    | DIEPMSK_XFRCM;
 80056de:	f8c4 2810 	str.w	r2, [r4, #2064]	; 0x810
  otgp->DOEPMSK   = DOEPMSK_STUPM   | DOEPMSK_XFRCM;
 80056e2:	f8c4 2814 	str.w	r2, [r4, #2068]	; 0x814
  usbp->epc[0] = &ep0config;
 80056e6:	4a25      	ldr	r2, [pc, #148]	; (800577c <Vector14C+0x49c>)
  otgp->oe[0].DOEPCTL = DOEPCTL_SD0PID | DOEPCTL_USBAEP | DOEPCTL_EPTYP_CTRL |
 80056e8:	4b25      	ldr	r3, [pc, #148]	; (8005780 <Vector14C+0x4a0>)
  usbp->epc[0] = &ep0config;
 80056ea:	60f2      	str	r2, [r6, #12]
  otgp->ie[0].DIEPTSIZ = 0;
 80056ec:	2100      	movs	r1, #0
  otgp->oe[0].DOEPTSIZ = DOEPTSIZ_STUPCNT(3);
 80056ee:	f04f 42c0 	mov.w	r2, #1610612736	; 0x60000000
 80056f2:	f8c4 2b10 	str.w	r2, [r4, #2832]	; 0xb10
  otgp->oe[0].DOEPCTL = DOEPCTL_SD0PID | DOEPCTL_USBAEP | DOEPCTL_EPTYP_CTRL |
 80056f6:	f8c4 3b00 	str.w	r3, [r4, #2816]	; 0xb00
  otgp->ie[0].DIEPTSIZ = 0;
 80056fa:	f8c4 1910 	str.w	r1, [r4, #2320]	; 0x910
  otgp->ie[0].DIEPCTL = DIEPCTL_SD0PID | DIEPCTL_USBAEP | DIEPCTL_EPTYP_CTRL |
 80056fe:	f8c4 3900 	str.w	r3, [r4, #2304]	; 0x900
  usbp->pmnext += size;
 8005702:	f100 0310 	add.w	r3, r0, #16
  osalDbgAssert(usbp->pmnext <= usbp->otgparams->otg_ram_size,
 8005706:	42ab      	cmp	r3, r5
  usbp->pmnext += size;
 8005708:	65f3      	str	r3, [r6, #92]	; 0x5c
  osalDbgAssert(usbp->pmnext <= usbp->otgparams->otg_ram_size,
 800570a:	d82d      	bhi.n	8005768 <Vector14C+0x488>
  _usb_isr_invoke_event_cb(usbp, USB_EVENT_RESET);
 800570c:	6873      	ldr	r3, [r6, #4]
 800570e:	681b      	ldr	r3, [r3, #0]
  otgp->DIEPTXF0 = DIEPTXF_INEPTXFD(ep0config.in_maxsize / 4) |
 8005710:	f440 1080 	orr.w	r0, r0, #1048576	; 0x100000
 8005714:	62a0      	str	r0, [r4, #40]	; 0x28
 8005716:	2b00      	cmp	r3, #0
 8005718:	f43f ae49 	beq.w	80053ae <Vector14C+0xce>
 800571c:	4819      	ldr	r0, [pc, #100]	; (8005784 <Vector14C+0x4a4>)
 800571e:	4798      	blx	r3
 8005720:	e645      	b.n	80053ae <Vector14C+0xce>
    chSysHalt("SV#9");
 8005722:	4819      	ldr	r0, [pc, #100]	; (8005788 <Vector14C+0x4a8>)
 8005724:	f7fb faac 	bl	8000c80 <chSysHalt>
      otg_epout_handler(usbp, 0);
 8005728:	2000      	movs	r0, #0
 800572a:	f7fb ffb1 	bl	8001690 <otg_epout_handler.constprop.0>
    if (src & (1 << 17))
 800572e:	03a2      	lsls	r2, r4, #14
 8005730:	f57f ae29 	bpl.w	8005386 <Vector14C+0xa6>
      otg_epout_handler(usbp, 1);
 8005734:	2001      	movs	r0, #1
 8005736:	f7fb ffab 	bl	8001690 <otg_epout_handler.constprop.0>
    if (src & (1 << 18))
 800573a:	0363      	lsls	r3, r4, #13
 800573c:	f57f ae26 	bpl.w	800538c <Vector14C+0xac>
      otg_epout_handler(usbp, 2);
 8005740:	2002      	movs	r0, #2
 8005742:	f7fb ffa5 	bl	8001690 <otg_epout_handler.constprop.0>
 8005746:	e621      	b.n	800538c <Vector14C+0xac>
      otg_epin_handler(usbp, 0);
 8005748:	2000      	movs	r0, #0
 800574a:	f7fb ff01 	bl	8001550 <otg_epin_handler.constprop.0>
    if (src & (1 << 1))
 800574e:	07a1      	lsls	r1, r4, #30
 8005750:	f57f ae27 	bpl.w	80053a2 <Vector14C+0xc2>
      otg_epin_handler(usbp, 1);
 8005754:	2001      	movs	r0, #1
 8005756:	f7fb fefb 	bl	8001550 <otg_epin_handler.constprop.0>
    if (src & (1 << 2))
 800575a:	0762      	lsls	r2, r4, #29
 800575c:	f57f ae24 	bpl.w	80053a8 <Vector14C+0xc8>
      otg_epin_handler(usbp, 2);
 8005760:	2002      	movs	r0, #2
 8005762:	f7fb fef5 	bl	8001550 <otg_epin_handler.constprop.0>
 8005766:	e61f      	b.n	80053a8 <Vector14C+0xc8>
  osalDbgAssert(usbp->pmnext <= usbp->otgparams->otg_ram_size,
 8005768:	4808      	ldr	r0, [pc, #32]	; (800578c <Vector14C+0x4ac>)
 800576a:	f7fb fa89 	bl	8000c80 <chSysHalt>
 800576e:	bf00      	nop
 8005770:	08007ef0 	.word	0x08007ef0
 8005774:	08007b64 	.word	0x08007b64
 8005778:	e0001000 	.word	0xe0001000
 800577c:	080081e8 	.word	0x080081e8
 8005780:	10008040 	.word	0x10008040
 8005784:	20000de0 	.word	0x20000de0
 8005788:	08007b6c 	.word	0x08007b6c
 800578c:	08007d04 	.word	0x08007d04

08005790 <__early_init>:

static void stm32_gpio_init(void) {

  /* Enabling GPIO-related clocks, the mask comes from the
     registry header file.*/
  rccResetAHB1(STM32_GPIO_EN_MASK);
 8005790:	4b6c      	ldr	r3, [pc, #432]	; (8005944 <__early_init+0x1b4>)
  gpiop->OTYPER  = config->otyper;
 8005792:	4a6d      	ldr	r2, [pc, #436]	; (8005948 <__early_init+0x1b8>)
  rccResetAHB1(STM32_GPIO_EN_MASK);
 8005794:	6919      	ldr	r1, [r3, #16]
 8005796:	f041 011f 	orr.w	r1, r1, #31
/**
 * @brief   Early initialization code.
 * @details GPIO ports and system clocks are initialized before everything
 *          else.
 */
void __early_init(void) {
 800579a:	e92d 4ff0 	stmdb	sp!, {r4, r5, r6, r7, r8, r9, sl, fp, lr}
  rccResetAHB1(STM32_GPIO_EN_MASK);
 800579e:	6119      	str	r1, [r3, #16]
 80057a0:	6919      	ldr	r1, [r3, #16]
  gpiop->OTYPER  = config->otyper;
 80057a2:	4e6a      	ldr	r6, [pc, #424]	; (800594c <__early_init+0x1bc>)
  gpiop->PUPDR   = config->pupdr;
 80057a4:	f8df 91a8 	ldr.w	r9, [pc, #424]	; 8005950 <__early_init+0x1c0>
  gpiop->OTYPER  = config->otyper;
 80057a8:	4d6a      	ldr	r5, [pc, #424]	; (8005954 <__early_init+0x1c4>)
 80057aa:	4c6b      	ldr	r4, [pc, #428]	; (8005958 <__early_init+0x1c8>)
  RCC->APB1ENR = RCC_APB1ENR_PWREN;
#endif

  /* PWR initialization.*/
#if defined(STM32F4XX) || defined(__DOXYGEN__)
  PWR->CR = STM32_VOS;
 80057ac:	f8df 81ac 	ldr.w	r8, [pc, #428]	; 800595c <__early_init+0x1cc>
  gpiop->PUPDR   = config->pupdr;
 80057b0:	f8df a1ac 	ldr.w	sl, [pc, #428]	; 8005960 <__early_init+0x1d0>
  rccResetAHB1(STM32_GPIO_EN_MASK);
 80057b4:	f021 011f 	bic.w	r1, r1, #31
 80057b8:	6119      	str	r1, [r3, #16]
 80057ba:	6919      	ldr	r1, [r3, #16]
  rccEnableAHB1(STM32_GPIO_EN_MASK, true);
 80057bc:	6b19      	ldr	r1, [r3, #48]	; 0x30
 80057be:	f041 011f 	orr.w	r1, r1, #31
 80057c2:	6319      	str	r1, [r3, #48]	; 0x30
 80057c4:	6d19      	ldr	r1, [r3, #80]	; 0x50
 80057c6:	f041 011f 	orr.w	r1, r1, #31
 80057ca:	6519      	str	r1, [r3, #80]	; 0x50
  gpiop->OTYPER  = config->otyper;
 80057cc:	f44f 7180 	mov.w	r1, #256	; 0x100
  rccEnableAHB1(STM32_GPIO_EN_MASK, true);
 80057d0:	6d18      	ldr	r0, [r3, #80]	; 0x50
  gpiop->OTYPER  = config->otyper;
 80057d2:	6051      	str	r1, [r2, #4]
  gpiop->OSPEEDR = config->ospeedr;
 80057d4:	f06f 0150 	mvn.w	r1, #80	; 0x50
 80057d8:	6091      	str	r1, [r2, #8]
  gpiop->PUPDR   = config->pupdr;
 80057da:	4962      	ldr	r1, [pc, #392]	; (8005964 <__early_init+0x1d4>)
 80057dc:	60d1      	str	r1, [r2, #12]
  gpiop->ODR     = config->odr;
 80057de:	f64f 77ff 	movw	r7, #65535	; 0xffff
  gpiop->AFRL    = config->afrl;
 80057e2:	4961      	ldr	r1, [pc, #388]	; (8005968 <__early_init+0x1d8>)
  gpiop->ODR     = config->odr;
 80057e4:	6157      	str	r7, [r2, #20]
  gpiop->AFRL    = config->afrl;
 80057e6:	6211      	str	r1, [r2, #32]
  gpiop->AFRH    = config->afrh;
 80057e8:	f44f 212a 	mov.w	r1, #696320	; 0xaa000
 80057ec:	6251      	str	r1, [r2, #36]	; 0x24
  gpiop->MODER   = config->moder;
 80057ee:	495f      	ldr	r1, [pc, #380]	; (800596c <__early_init+0x1dc>)
 80057f0:	6011      	str	r1, [r2, #0]
  gpiop->OTYPER  = config->otyper;
 80057f2:	485f      	ldr	r0, [pc, #380]	; (8005970 <__early_init+0x1e0>)
 80057f4:	495f      	ldr	r1, [pc, #380]	; (8005974 <__early_init+0x1e4>)
 80057f6:	2200      	movs	r2, #0
  gpiop->OSPEEDR = config->ospeedr;
 80057f8:	f04f 3cff 	mov.w	ip, #4294967295	; 0xffffffff
  gpiop->MODER   = config->moder;
 80057fc:	f04f 0b80 	mov.w	fp, #128	; 0x80
  gpiop->OTYPER  = config->otyper;
 8005800:	6072      	str	r2, [r6, #4]
  gpiop->PUPDR   = config->pupdr;
 8005802:	f04f 3e55 	mov.w	lr, #1431655765	; 0x55555555
  gpiop->OSPEEDR = config->ospeedr;
 8005806:	f8c6 c008 	str.w	ip, [r6, #8]
  gpiop->PUPDR   = config->pupdr;
 800580a:	f8c6 900c 	str.w	r9, [r6, #12]
  gpiop->ODR     = config->odr;
 800580e:	6177      	str	r7, [r6, #20]
  gpiop->PUPDR   = config->pupdr;
 8005810:	f109 09fb 	add.w	r9, r9, #251	; 0xfb
  gpiop->AFRL    = config->afrl;
 8005814:	6232      	str	r2, [r6, #32]
  gpiop->AFRH    = config->afrh;
 8005816:	6272      	str	r2, [r6, #36]	; 0x24
  gpiop->MODER   = config->moder;
 8005818:	f8c6 b000 	str.w	fp, [r6]
 800581c:	f04f 6680 	mov.w	r6, #67108864	; 0x4000000
  gpiop->OTYPER  = config->otyper;
 8005820:	606a      	str	r2, [r5, #4]
  gpiop->OSPEEDR = config->ospeedr;
 8005822:	f8c5 c008 	str.w	ip, [r5, #8]
  gpiop->PUPDR   = config->pupdr;
 8005826:	f8c5 a00c 	str.w	sl, [r5, #12]
  gpiop->ODR     = config->odr;
 800582a:	616f      	str	r7, [r5, #20]
  gpiop->AFRL    = config->afrl;
 800582c:	622a      	str	r2, [r5, #32]
  gpiop->AFRH    = config->afrh;
 800582e:	626a      	str	r2, [r5, #36]	; 0x24
  gpiop->MODER   = config->moder;
 8005830:	602e      	str	r6, [r5, #0]
  gpiop->OTYPER  = config->otyper;
 8005832:	6062      	str	r2, [r4, #4]
  gpiop->OSPEEDR = config->ospeedr;
 8005834:	f8c4 c008 	str.w	ip, [r4, #8]
  gpiop->PUPDR   = config->pupdr;
 8005838:	f8c4 e00c 	str.w	lr, [r4, #12]
  gpiop->ODR     = config->odr;
 800583c:	6167      	str	r7, [r4, #20]
  gpiop->AFRL    = config->afrl;
 800583e:	6222      	str	r2, [r4, #32]
  gpiop->AFRH    = config->afrh;
 8005840:	6262      	str	r2, [r4, #36]	; 0x24
  gpiop->MODER   = config->moder;
 8005842:	6022      	str	r2, [r4, #0]
  gpiop->OTYPER  = config->otyper;
 8005844:	6042      	str	r2, [r0, #4]
  gpiop->OSPEEDR = config->ospeedr;
 8005846:	f8c0 c008 	str.w	ip, [r0, #8]
  gpiop->PUPDR   = config->pupdr;
 800584a:	f8c0 e00c 	str.w	lr, [r0, #12]
  gpiop->ODR     = config->odr;
 800584e:	6147      	str	r7, [r0, #20]
  gpiop->AFRL    = config->afrl;
 8005850:	6202      	str	r2, [r0, #32]
  gpiop->AFRH    = config->afrh;
 8005852:	6242      	str	r2, [r0, #36]	; 0x24
  gpiop->MODER   = config->moder;
 8005854:	6002      	str	r2, [r0, #0]
  gpiop->OTYPER  = config->otyper;
 8005856:	604a      	str	r2, [r1, #4]
  RCC->APB1ENR = RCC_APB1ENR_PWREN;
 8005858:	f04f 5080 	mov.w	r0, #268435456	; 0x10000000
  gpiop->OSPEEDR = config->ospeedr;
 800585c:	f8c1 c008 	str.w	ip, [r1, #8]
  gpiop->PUPDR   = config->pupdr;
 8005860:	f8c1 900c 	str.w	r9, [r1, #12]
  gpiop->ODR     = config->odr;
 8005864:	614f      	str	r7, [r1, #20]
  gpiop->AFRL    = config->afrl;
 8005866:	620a      	str	r2, [r1, #32]
  gpiop->AFRH    = config->afrh;
 8005868:	624a      	str	r2, [r1, #36]	; 0x24
  gpiop->MODER   = config->moder;
 800586a:	600a      	str	r2, [r1, #0]
  PWR->CR = STM32_VOS;
 800586c:	f44f 4200 	mov.w	r2, #32768	; 0x8000
  RCC->APB1ENR = RCC_APB1ENR_PWREN;
 8005870:	6418      	str	r0, [r3, #64]	; 0x40
  PWR->CR = STM32_VOS;
 8005872:	f8c8 2000 	str.w	r2, [r8]
  PWR->CR = 0;
#endif

  /* HSI setup, it enforces the reset situation in order to handle possible
     problems with JTAG probes and re-initializations.*/
  RCC->CR |= RCC_CR_HSION;                  /* Make sure HSI is ON.         */
 8005876:	681a      	ldr	r2, [r3, #0]
 8005878:	f042 0201 	orr.w	r2, r2, #1
 800587c:	601a      	str	r2, [r3, #0]
  while (!(RCC->CR & RCC_CR_HSIRDY))
 800587e:	681a      	ldr	r2, [r3, #0]
 8005880:	0794      	lsls	r4, r2, #30
 8005882:	d5fc      	bpl.n	800587e <__early_init+0xee>
    ;                                       /* Wait until HSI is stable.    */

  /* HSI is selected as new source without touching the other fields in
     CFGR. Clearing the register has to be postponed after HSI is the
     new source.*/
  RCC->CFGR &= ~RCC_CFGR_SW;                /* Reset SW, selecting HSI.     */
 8005884:	6899      	ldr	r1, [r3, #8]
  while ((RCC->CFGR & RCC_CFGR_SWS) != RCC_CFGR_SWS_HSI)
 8005886:	4a2f      	ldr	r2, [pc, #188]	; (8005944 <__early_init+0x1b4>)
  RCC->CFGR &= ~RCC_CFGR_SW;                /* Reset SW, selecting HSI.     */
 8005888:	f021 0103 	bic.w	r1, r1, #3
 800588c:	6099      	str	r1, [r3, #8]
  while ((RCC->CFGR & RCC_CFGR_SWS) != RCC_CFGR_SWS_HSI)
 800588e:	6893      	ldr	r3, [r2, #8]
 8005890:	f013 030c 	ands.w	r3, r3, #12
 8005894:	d1fb      	bne.n	800588e <__early_init+0xfe>
    ;                                       /* Wait until HSI is selected.  */

  /* Registers finally cleared to reset values.*/
  RCC->CR &= RCC_CR_HSITRIM | RCC_CR_HSION; /* CR Reset value.              */
 8005896:	6810      	ldr	r0, [r2, #0]
  RCC->CR |= RCC_CR_HSEON | RCC_CR_HSEBYP;
#else
  /* No HSE Bypass.*/
  RCC->CR |= RCC_CR_HSEON;
#endif
  while ((RCC->CR & RCC_CR_HSERDY) == 0)
 8005898:	492a      	ldr	r1, [pc, #168]	; (8005944 <__early_init+0x1b4>)
  RCC->CR &= RCC_CR_HSITRIM | RCC_CR_HSION; /* CR Reset value.              */
 800589a:	f000 00f9 	and.w	r0, r0, #249	; 0xf9
 800589e:	6010      	str	r0, [r2, #0]
  RCC->CFGR = 0;                            /* CFGR reset value.            */
 80058a0:	6093      	str	r3, [r2, #8]
  RCC->CR |= RCC_CR_HSEON;
 80058a2:	6813      	ldr	r3, [r2, #0]
 80058a4:	f443 3380 	orr.w	r3, r3, #65536	; 0x10000
 80058a8:	6013      	str	r3, [r2, #0]
  while ((RCC->CR & RCC_CR_HSERDY) == 0)
 80058aa:	680b      	ldr	r3, [r1, #0]
 80058ac:	0398      	lsls	r0, r3, #14
 80058ae:	d5fc      	bpl.n	80058aa <__early_init+0x11a>
    ;                           /* Waits until HSE is stable.               */
#endif

#if STM32_LSI_ENABLED
  /* LSI activation.*/
  RCC->CSR |= RCC_CSR_LSION;
 80058b0:	6f4b      	ldr	r3, [r1, #116]	; 0x74
  while ((RCC->CSR & RCC_CSR_LSIRDY) == 0)
 80058b2:	4a24      	ldr	r2, [pc, #144]	; (8005944 <__early_init+0x1b4>)
  RCC->CSR |= RCC_CSR_LSION;
 80058b4:	f043 0301 	orr.w	r3, r3, #1
 80058b8:	674b      	str	r3, [r1, #116]	; 0x74
  while ((RCC->CSR & RCC_CSR_LSIRDY) == 0)
 80058ba:	6f53      	ldr	r3, [r2, #116]	; 0x74
 80058bc:	0799      	lsls	r1, r3, #30
 80058be:	d5fc      	bpl.n	80058ba <__early_init+0x12a>
    ;                           /* Waits until LSI is stable.               */
#endif

#if STM32_ACTIVATE_PLL
  /* PLL activation.*/
  RCC->PLLCFGR = STM32_PLLQ | STM32_PLLSRC | STM32_PLLP | STM32_PLLN |
 80058c0:	4b2d      	ldr	r3, [pc, #180]	; (8005978 <__early_init+0x1e8>)
 80058c2:	6053      	str	r3, [r2, #4]
                 STM32_PLLM;
  RCC->CR |= RCC_CR_PLLON;
 80058c4:	6813      	ldr	r3, [r2, #0]

  /* Synchronization with voltage regulator stabilization.*/
#if defined(STM32F4XX)
  while ((PWR->CSR & PWR_CSR_VOSRDY) == 0)
 80058c6:	4925      	ldr	r1, [pc, #148]	; (800595c <__early_init+0x1cc>)
  RCC->CR |= RCC_CR_PLLON;
 80058c8:	f043 7380 	orr.w	r3, r3, #16777216	; 0x1000000
 80058cc:	6013      	str	r3, [r2, #0]
  while ((PWR->CSR & PWR_CSR_VOSRDY) == 0)
 80058ce:	684b      	ldr	r3, [r1, #4]
 80058d0:	045a      	lsls	r2, r3, #17
 80058d2:	d5fc      	bpl.n	80058ce <__early_init+0x13e>
      ;
#endif /* STM32_OVERDRIVE_REQUIRED */
#endif /* defined(STM32F4XX) */

  /* Waiting for PLL lock.*/
  while (!(RCC->CR & RCC_CR_PLLRDY))
 80058d4:	4a1b      	ldr	r2, [pc, #108]	; (8005944 <__early_init+0x1b4>)
 80058d6:	6813      	ldr	r3, [r2, #0]
 80058d8:	019b      	lsls	r3, r3, #6
 80058da:	d5fc      	bpl.n	80058d6 <__early_init+0x146>

  /* Flash setup.*/
#if !defined(STM32_REMOVE_REVISION_A_FIX)
  /* Some old revisions of F4x MCUs randomly crashes with compiler
     optimizations enabled AND flash caches enabled. */
  if ((DBGMCU->IDCODE == 0x20006411) && (SCB->CPUID == 0x410FC241))
 80058dc:	4b27      	ldr	r3, [pc, #156]	; (800597c <__early_init+0x1ec>)
  RCC->CFGR = STM32_MCO2PRE | STM32_MCO2SEL | STM32_MCO1PRE | STM32_MCO1SEL |
 80058de:	4828      	ldr	r0, [pc, #160]	; (8005980 <__early_init+0x1f0>)
 80058e0:	6090      	str	r0, [r2, #8]
    RCC->DCKCFGR = dckcfgr |
 80058e2:	2103      	movs	r1, #3
 80058e4:	f8c2 108c 	str.w	r1, [r2, #140]	; 0x8c
  if ((DBGMCU->IDCODE == 0x20006411) && (SCB->CPUID == 0x410FC241))
 80058e8:	681a      	ldr	r2, [r3, #0]
 80058ea:	4b26      	ldr	r3, [pc, #152]	; (8005984 <__early_init+0x1f4>)
 80058ec:	429a      	cmp	r2, r3
 80058ee:	d01e      	beq.n	800592e <__early_init+0x19e>
    FLASH->ACR = FLASH_ACR_PRFTEN | STM32_FLASHBITS;
  else
    FLASH->ACR = FLASH_ACR_PRFTEN | FLASH_ACR_ICEN |
 80058f0:	4b25      	ldr	r3, [pc, #148]	; (8005988 <__early_init+0x1f8>)
 80058f2:	f240 7202 	movw	r2, #1794	; 0x702
 80058f6:	601a      	str	r2, [r3, #0]
                 FLASH_ACR_DCEN | STM32_FLASHBITS;
#else
  FLASH->ACR = FLASH_ACR_PRFTEN | FLASH_ACR_ICEN |
               FLASH_ACR_DCEN | STM32_FLASHBITS;
#endif
  while ((FLASH->ACR & FLASH_ACR_LATENCY_Msk) !=
 80058f8:	4a23      	ldr	r2, [pc, #140]	; (8005988 <__early_init+0x1f8>)
 80058fa:	6813      	ldr	r3, [r2, #0]
 80058fc:	f003 030f 	and.w	r3, r3, #15
 8005900:	2b02      	cmp	r3, #2
 8005902:	d1fa      	bne.n	80058fa <__early_init+0x16a>
         (STM32_FLASHBITS & FLASH_ACR_LATENCY_Msk)) {
  }

  /* Switching to the configured clock source if it is different from HSI.*/
#if (STM32_SW != STM32_SW_HSI)
  RCC->CFGR |= STM32_SW;        /* Switches on the selected clock source.   */
 8005904:	4a0f      	ldr	r2, [pc, #60]	; (8005944 <__early_init+0x1b4>)
 8005906:	6893      	ldr	r3, [r2, #8]
 8005908:	f043 0302 	orr.w	r3, r3, #2
 800590c:	6093      	str	r3, [r2, #8]
  while ((RCC->CFGR & RCC_CFGR_SWS) != (STM32_SW << 2))
 800590e:	6893      	ldr	r3, [r2, #8]
 8005910:	f003 030c 	and.w	r3, r3, #12
 8005914:	2b08      	cmp	r3, #8
 8005916:	d1fa      	bne.n	800590e <__early_init+0x17e>
#endif
#endif /* STM32_NO_INIT */

  /* SYSCFG clock enabled here because it is a multi-functional unit shared
     among multiple drivers.*/
  rccEnableAPB2(RCC_APB2ENR_SYSCFGEN, true);
 8005918:	6c53      	ldr	r3, [r2, #68]	; 0x44
 800591a:	f443 4380 	orr.w	r3, r3, #16384	; 0x4000
 800591e:	6453      	str	r3, [r2, #68]	; 0x44
 8005920:	6e53      	ldr	r3, [r2, #100]	; 0x64
 8005922:	f443 4380 	orr.w	r3, r3, #16384	; 0x4000
 8005926:	6653      	str	r3, [r2, #100]	; 0x64
 8005928:	6e53      	ldr	r3, [r2, #100]	; 0x64

  stm32_gpio_init();
  stm32_clock_init();
}
 800592a:	e8bd 8ff0 	ldmia.w	sp!, {r4, r5, r6, r7, r8, r9, sl, fp, pc}
  if ((DBGMCU->IDCODE == 0x20006411) && (SCB->CPUID == 0x410FC241))
 800592e:	4a17      	ldr	r2, [pc, #92]	; (800598c <__early_init+0x1fc>)
 8005930:	4b17      	ldr	r3, [pc, #92]	; (8005990 <__early_init+0x200>)
 8005932:	6812      	ldr	r2, [r2, #0]
 8005934:	429a      	cmp	r2, r3
 8005936:	d1db      	bne.n	80058f0 <__early_init+0x160>
    FLASH->ACR = FLASH_ACR_PRFTEN | STM32_FLASHBITS;
 8005938:	4b13      	ldr	r3, [pc, #76]	; (8005988 <__early_init+0x1f8>)
 800593a:	f44f 7281 	mov.w	r2, #258	; 0x102
 800593e:	601a      	str	r2, [r3, #0]
 8005940:	e7da      	b.n	80058f8 <__early_init+0x168>
 8005942:	bf00      	nop
 8005944:	40023800 	.word	0x40023800
 8005948:	40020000 	.word	0x40020000
 800594c:	40020400 	.word	0x40020400
 8005950:	55555455 	.word	0x55555455
 8005954:	40020800 	.word	0x40020800
 8005958:	40020c00 	.word	0x40020c00
 800595c:	40007000 	.word	0x40007000
 8005960:	01555555 	.word	0x01555555
 8005964:	64150005 	.word	0x64150005
 8005968:	55507700 	.word	0x55507700
 800596c:	2a80a9a0 	.word	0x2a80a9a0
 8005970:	40021000 	.word	0x40021000
 8005974:	40021c00 	.word	0x40021c00
 8005978:	07415419 	.word	0x07415419
 800597c:	e0042000 	.word	0xe0042000
 8005980:	38881000 	.word	0x38881000
 8005984:	20006411 	.word	0x20006411
 8005988:	40023c00 	.word	0x40023c00
 800598c:	e000ed00 	.word	0xe000ed00
 8005990:	410fc241 	.word	0x410fc241
	...

080059a0 <chSchDoPreemption>:
static void __sch_reschedule_ahead(void) {
 80059a0:	b570      	push	{r4, r5, r6, lr}
  thread_t *otp = __instance_get_currthread(oip);
 80059a2:	4c19      	ldr	r4, [pc, #100]	; (8005a08 <chSchDoPreemption+0x68>)
  ch_priority_queue_t *p = pqp->next;
 80059a4:	6826      	ldr	r6, [r4, #0]
 80059a6:	68e0      	ldr	r0, [r4, #12]
  pqp->next       = p->next;
 80059a8:	6833      	ldr	r3, [r6, #0]
 80059aa:	6023      	str	r3, [r4, #0]
  ntp->state = CH_STATE_CURRENT;
 80059ac:	2201      	movs	r2, #1
  pqp->next->prev = pqp;
 80059ae:	605c      	str	r4, [r3, #4]
 80059b0:	f886 2028 	strb.w	r2, [r6, #40]	; 0x28
  __instance_set_currthread(oip, ntp);
 80059b4:	60e6      	str	r6, [r4, #12]
  otp = __sch_ready_ahead(otp);
 80059b6:	f7fb fc43 	bl	8001240 <__sch_ready_ahead>
  if ((oip->trace_buffer.suspended & CH_DBG_TRACE_MASK_SWITCH) == 0U) {
 80059ba:	f8b4 3094 	ldrh.w	r3, [r4, #148]	; 0x94
 80059be:	079b      	lsls	r3, r3, #30
 80059c0:	4605      	mov	r5, r0
 80059c2:	d50b      	bpl.n	80059dc <chSchDoPreemption+0x3c>
  __ASM volatile ("MRS %0, psp"  : "=r" (result) );
 80059c4:	f3ef 8309 	mrs	r3, PSP
  chSysSwitch(ntp, otp);
 80059c8:	6a2a      	ldr	r2, [r5, #32]
 80059ca:	3b24      	subs	r3, #36	; 0x24
 80059cc:	429a      	cmp	r2, r3
 80059ce:	d818      	bhi.n	8005a02 <chSchDoPreemption+0x62>
 80059d0:	4629      	mov	r1, r5
 80059d2:	4630      	mov	r0, r6
}
 80059d4:	e8bd 4070 	ldmia.w	sp!, {r4, r5, r6, lr}
  chSysSwitch(ntp, otp);
 80059d8:	f7fa bc82 	b.w	80002e0 <__port_switch>
    oip->trace_buffer.ptr->type        = CH_TRACE_TYPE_SWITCH;
 80059dc:	f890 3028 	ldrb.w	r3, [r0, #40]	; 0x28
 80059e0:	f8d4 2098 	ldr.w	r2, [r4, #152]	; 0x98
 80059e4:	6ac1      	ldr	r1, [r0, #44]	; 0x2c
    oip->trace_buffer.ptr->u.sw.wtobjp = otp->u.wtobjp;
 80059e6:	60d1      	str	r1, [r2, #12]
    oip->trace_buffer.ptr->type        = CH_TRACE_TYPE_SWITCH;
 80059e8:	00db      	lsls	r3, r3, #3
 80059ea:	f043 0302 	orr.w	r3, r3, #2
 80059ee:	7013      	strb	r3, [r2, #0]
    oip->trace_buffer.ptr->u.sw.ntp    = ntp;
 80059f0:	6096      	str	r6, [r2, #8]
    trace_next(oip);
 80059f2:	f7fb f925 	bl	8000c40 <trace_next.constprop.0>
 80059f6:	f3ef 8309 	mrs	r3, PSP
 80059fa:	6a2a      	ldr	r2, [r5, #32]
 80059fc:	3b24      	subs	r3, #36	; 0x24
 80059fe:	429a      	cmp	r2, r3
 8005a00:	d9e6      	bls.n	80059d0 <chSchDoPreemption+0x30>
 8005a02:	4802      	ldr	r0, [pc, #8]	; (8005a0c <chSchDoPreemption+0x6c>)
 8005a04:	f7fb f93c 	bl	8000c80 <chSysHalt>
 8005a08:	20000ec8 	.word	0x20000ec8
 8005a0c:	08007304 	.word	0x08007304

08005a10 <chMtxUnlock>:
 *
 * @param[in] mp        pointer to the @p mutex_t structure
 *
 * @api
 */
void chMtxUnlock(mutex_t *mp) {
 8005a10:	b570      	push	{r4, r5, r6, lr}
  return __sch_get_currthread();
 8005a12:	4c33      	ldr	r4, [pc, #204]	; (8005ae0 <chMtxUnlock+0xd0>)
  __ASM volatile ("MSR basepri, %0" : : "r" (basePri) : "memory");
 8005a14:	2230      	movs	r2, #48	; 0x30
 8005a16:	68e5      	ldr	r5, [r4, #12]
 8005a18:	f382 8811 	msr	BASEPRI, r2
  if (unlikely((oip->dbg.isr_cnt != (cnt_t)0) ||
 8005a1c:	e9d4 2123 	ldrd	r2, r1, [r4, #140]	; 0x8c
 8005a20:	4311      	orrs	r1, r2
 8005a22:	d14e      	bne.n	8005ac2 <chMtxUnlock+0xb2>
 8005a24:	4603      	mov	r3, r0

  chDbgCheck(mp != NULL);

  chSysLock();

  chDbgAssert(currtp->mtxlist != NULL, "owned mutexes list empty");
 8005a26:	6c28      	ldr	r0, [r5, #64]	; 0x40
  oip->dbg.lock_cnt = (cnt_t)1;
 8005a28:	2201      	movs	r2, #1
 8005a2a:	f8c4 2090 	str.w	r2, [r4, #144]	; 0x90
 8005a2e:	2800      	cmp	r0, #0
 8005a30:	d044      	beq.n	8005abc <chMtxUnlock+0xac>
  chDbgAssert(currtp->mtxlist->owner == currtp, "ownership failure");
 8005a32:	6882      	ldr	r2, [r0, #8]
 8005a34:	42aa      	cmp	r2, r5
 8005a36:	d141      	bne.n	8005abc <chMtxUnlock+0xac>
  chDbgAssert(mp->cnt >= (cnt_t)1, "counter is not positive");

  if (--mp->cnt == (cnt_t)0) {
#endif

    chDbgAssert(currtp->mtxlist == mp, "not next in list");
 8005a38:	4298      	cmp	r0, r3
 8005a3a:	d13f      	bne.n	8005abc <chMtxUnlock+0xac>
       it as not owned. Note, it is assumed to be the same mutex passed as
       parameter of this function.*/
    currtp->mtxlist = mp->next;

    /* If a thread is waiting on the mutex then the fun part begins.*/
    if (chMtxQueueNotEmptyS(mp)) {
 8005a3c:	681e      	ldr	r6, [r3, #0]
    currtp->mtxlist = mp->next;
 8005a3e:	68da      	ldr	r2, [r3, #12]
 8005a40:	642a      	str	r2, [r5, #64]	; 0x40
    if (chMtxQueueNotEmptyS(mp)) {
 8005a42:	42b3      	cmp	r3, r6
 8005a44:	d02f      	beq.n	8005aa6 <chMtxUnlock+0x96>
      thread_t *tp;

      /* Recalculates the optimal thread priority by scanning the owned
         mutexes list.*/
      tprio_t newprio = currtp->realprio;
 8005a46:	6c68      	ldr	r0, [r5, #68]	; 0x44
      lmp = currtp->mtxlist;
      while (lmp != NULL) {
 8005a48:	b14a      	cbz	r2, 8005a5e <chMtxUnlock+0x4e>
  return (bool)(qp->next != qp);
 8005a4a:	6811      	ldr	r1, [r2, #0]
        /* If the highest priority thread waiting in the mutexes list has a
           greater priority than the current thread base priority then the
           final priority will have at least that priority.*/
        if (chMtxQueueNotEmptyS(lmp) &&
 8005a4c:	428a      	cmp	r2, r1
 8005a4e:	d003      	beq.n	8005a58 <chMtxUnlock+0x48>
 8005a50:	6889      	ldr	r1, [r1, #8]
 8005a52:	4288      	cmp	r0, r1
 8005a54:	bf38      	it	cc
 8005a56:	4608      	movcc	r0, r1
            ((threadref(lmp->queue.next))->hdr.pqueue.prio > newprio)) {
          newprio = (threadref(lmp->queue.next))->hdr.pqueue.prio;
        }
        lmp = lmp->next;
 8005a58:	68d2      	ldr	r2, [r2, #12]
      while (lmp != NULL) {
 8005a5a:	2a00      	cmp	r2, #0
 8005a5c:	d1f5      	bne.n	8005a4a <chMtxUnlock+0x3a>
      }

      /* Assigns to the current thread the highest priority among all the
         waiting threads.*/
      currtp->hdr.pqueue.prio = newprio;
 8005a5e:	60a8      	str	r0, [r5, #8]
  ch_queue_t *p = qp->next;
 8005a60:	6818      	ldr	r0, [r3, #0]
#if CH_CFG_USE_MUTEXES_RECURSIVE == TRUE
      mp->cnt = (cnt_t)1;
#endif
      tp = threadref(ch_queue_fifo_remove(&mp->queue));
      mp->owner = tp;
      mp->next = tp->mtxlist;
 8005a62:	6c01      	ldr	r1, [r0, #64]	; 0x40
  qp->next       = p->next;
 8005a64:	6802      	ldr	r2, [r0, #0]
 8005a66:	601a      	str	r2, [r3, #0]
  qp->next->prev = qp;
 8005a68:	6053      	str	r3, [r2, #4]
 8005a6a:	e9c3 0102 	strd	r0, r1, [r3, #8]
      tp->mtxlist = mp;
 8005a6e:	6403      	str	r3, [r0, #64]	; 0x40
  return __sch_ready_behind(tp);
 8005a70:	f7fb fffe 	bl	8001a70 <__sch_ready_behind.isra.0>
  if (unlikely((oip->dbg.isr_cnt != (cnt_t)0) ||
 8005a74:	f8d4 308c 	ldr.w	r3, [r4, #140]	; 0x8c
 8005a78:	bb33      	cbnz	r3, 8005ac8 <chMtxUnlock+0xb8>
 8005a7a:	f8d4 3090 	ldr.w	r3, [r4, #144]	; 0x90
 8005a7e:	2b00      	cmp	r3, #0
 8005a80:	dd22      	ble.n	8005ac8 <chMtxUnlock+0xb8>
  if (likely(firstprio(&oip->rlist.pqueue) > tp->hdr.pqueue.prio)) {
 8005a82:	6822      	ldr	r2, [r4, #0]
 8005a84:	68e3      	ldr	r3, [r4, #12]
 8005a86:	6892      	ldr	r2, [r2, #8]
 8005a88:	689b      	ldr	r3, [r3, #8]
 8005a8a:	429a      	cmp	r2, r3
 8005a8c:	d90c      	bls.n	8005aa8 <chMtxUnlock+0x98>
    __sch_reschedule_ahead();
 8005a8e:	f7ff ff87 	bl	80059a0 <chSchDoPreemption>
  if (unlikely((oip->dbg.isr_cnt != (cnt_t)0) ||
 8005a92:	f8d4 308c 	ldr.w	r3, [r4, #140]	; 0x8c
 8005a96:	b91b      	cbnz	r3, 8005aa0 <chMtxUnlock+0x90>
 8005a98:	f8d4 3090 	ldr.w	r3, [r4, #144]	; 0x90
 8005a9c:	2b00      	cmp	r3, #0
 8005a9e:	dc03      	bgt.n	8005aa8 <chMtxUnlock+0x98>
    chSysHalt("SV#5");
 8005aa0:	4810      	ldr	r0, [pc, #64]	; (8005ae4 <chMtxUnlock+0xd4>)
 8005aa2:	f7fb f8ed 	bl	8000c80 <chSysHalt>
         just changed priority.*/
      (void) chSchReadyI(tp);
      chSchRescheduleS();
    }
    else {
      mp->owner = NULL;
 8005aa6:	6081      	str	r1, [r0, #8]
 8005aa8:	6823      	ldr	r3, [r4, #0]
  oip->dbg.lock_cnt = (cnt_t)0;
 8005aaa:	2200      	movs	r2, #0
 8005aac:	42a3      	cmp	r3, r4
 8005aae:	f8c4 2090 	str.w	r2, [r4, #144]	; 0x90
 8005ab2:	d10c      	bne.n	8005ace <chMtxUnlock+0xbe>
 8005ab4:	2300      	movs	r3, #0
 8005ab6:	f383 8811 	msr	BASEPRI, r3
#if CH_CFG_USE_MUTEXES_RECURSIVE == TRUE
  }
#endif

  chSysUnlock();
}
 8005aba:	bd70      	pop	{r4, r5, r6, pc}
  chDbgAssert(currtp->mtxlist != NULL, "owned mutexes list empty");
 8005abc:	480a      	ldr	r0, [pc, #40]	; (8005ae8 <chMtxUnlock+0xd8>)
 8005abe:	f7fb f8df 	bl	8000c80 <chSysHalt>
    chSysHalt("SV#4");
 8005ac2:	480a      	ldr	r0, [pc, #40]	; (8005aec <chMtxUnlock+0xdc>)
 8005ac4:	f7fb f8dc 	bl	8000c80 <chSysHalt>
    chSysHalt("SV#11");
 8005ac8:	4809      	ldr	r0, [pc, #36]	; (8005af0 <chMtxUnlock+0xe0>)
 8005aca:	f7fb f8d9 	bl	8000c80 <chSysHalt>
 8005ace:	68e2      	ldr	r2, [r4, #12]
 8005ad0:	689b      	ldr	r3, [r3, #8]
 8005ad2:	6892      	ldr	r2, [r2, #8]
 8005ad4:	429a      	cmp	r2, r3
 8005ad6:	d2ed      	bcs.n	8005ab4 <chMtxUnlock+0xa4>
 8005ad8:	4806      	ldr	r0, [pc, #24]	; (8005af4 <chMtxUnlock+0xe4>)
 8005ada:	f7fb f8d1 	bl	8000c80 <chSysHalt>
 8005ade:	bf00      	nop
 8005ae0:	20000ec8 	.word	0x20000ec8
 8005ae4:	08007314 	.word	0x08007314
 8005ae8:	08007d70 	.word	0x08007d70
 8005aec:	080072f4 	.word	0x080072f4
 8005af0:	080072dc 	.word	0x080072dc
 8005af4:	08007fbc 	.word	0x08007fbc
	...

08005b00 <chThdRelease>:
void chThdRelease(thread_t *tp) {
 8005b00:	b5f8      	push	{r3, r4, r5, r6, r7, lr}
 8005b02:	2330      	movs	r3, #48	; 0x30
 8005b04:	f383 8811 	msr	BASEPRI, r3
  if (unlikely((oip->dbg.isr_cnt != (cnt_t)0) ||
 8005b08:	4c70      	ldr	r4, [pc, #448]	; (8005ccc <chThdRelease+0x1cc>)
 8005b0a:	e9d4 3223 	ldrd	r3, r2, [r4, #140]	; 0x8c
 8005b0e:	4313      	orrs	r3, r2
 8005b10:	d134      	bne.n	8005b7c <chThdRelease+0x7c>
  oip->dbg.lock_cnt = (cnt_t)1;
 8005b12:	2201      	movs	r2, #1
 8005b14:	f8c4 2090 	str.w	r2, [r4, #144]	; 0x90
  chDbgAssert(tp->refs > (trefs_t)0, "not referenced");
 8005b18:	f890 202a 	ldrb.w	r2, [r0, #42]	; 0x2a
 8005b1c:	b38a      	cbz	r2, 8005b82 <chThdRelease+0x82>
  tp->refs--;
 8005b1e:	3a01      	subs	r2, #1
 8005b20:	f880 202a 	strb.w	r2, [r0, #42]	; 0x2a
  if ((tp->refs == (trefs_t)0) && (tp->state == CH_STATE_FINAL)) {
 8005b24:	6a82      	ldr	r2, [r0, #40]	; 0x28
 8005b26:	f002 12ff 	and.w	r2, r2, #16711935	; 0xff00ff
 8005b2a:	2a0f      	cmp	r2, #15
 8005b2c:	d008      	beq.n	8005b40 <chThdRelease+0x40>
 8005b2e:	6822      	ldr	r2, [r4, #0]
  oip->dbg.lock_cnt = (cnt_t)0;
 8005b30:	f8c4 3090 	str.w	r3, [r4, #144]	; 0x90
 8005b34:	42a2      	cmp	r2, r4
 8005b36:	d127      	bne.n	8005b88 <chThdRelease+0x88>
 8005b38:	2300      	movs	r3, #0
 8005b3a:	f383 8811 	msr	BASEPRI, r3
}
 8005b3e:	bdf8      	pop	{r3, r4, r5, r6, r7, pc}
  p->prev->next = p->next;
 8005b40:	e9d0 2104 	ldrd	r2, r1, [r0, #16]
 8005b44:	600a      	str	r2, [r1, #0]
  p->next->prev = p->prev;
 8005b46:	6051      	str	r1, [r2, #4]
 8005b48:	6822      	ldr	r2, [r4, #0]
 8005b4a:	f8c4 3090 	str.w	r3, [r4, #144]	; 0x90
 8005b4e:	42a2      	cmp	r2, r4
 8005b50:	f040 8097 	bne.w	8005c82 <chThdRelease+0x182>
 8005b54:	2300      	movs	r3, #0
 8005b56:	f383 8811 	msr	BASEPRI, r3
    switch (tp->flags & CH_FLAG_MODE_MASK) {
 8005b5a:	f890 3029 	ldrb.w	r3, [r0, #41]	; 0x29
 8005b5e:	f003 0303 	and.w	r3, r3, #3
 8005b62:	2b01      	cmp	r3, #1
 8005b64:	d033      	beq.n	8005bce <chThdRelease+0xce>
 8005b66:	2b02      	cmp	r3, #2
 8005b68:	d1e9      	bne.n	8005b3e <chThdRelease+0x3e>
      chPoolFree(tp->mpool, chThdGetWorkingAreaX(tp));
 8005b6a:	6c81      	ldr	r1, [r0, #72]	; 0x48
  return tp->wabase;
 8005b6c:	6a02      	ldr	r2, [r0, #32]
 8005b6e:	2330      	movs	r3, #48	; 0x30
 8005b70:	f383 8811 	msr	BASEPRI, r3
  if (unlikely((oip->dbg.isr_cnt != (cnt_t)0) ||
 8005b74:	e9d4 3023 	ldrd	r3, r0, [r4, #140]	; 0x8c
 8005b78:	4303      	orrs	r3, r0
 8005b7a:	d00d      	beq.n	8005b98 <chThdRelease+0x98>
    chSysHalt("SV#4");
 8005b7c:	4854      	ldr	r0, [pc, #336]	; (8005cd0 <chThdRelease+0x1d0>)
 8005b7e:	f7fb f87f 	bl	8000c80 <chSysHalt>
  chDbgAssert(tp->refs > (trefs_t)0, "not referenced");
 8005b82:	4854      	ldr	r0, [pc, #336]	; (8005cd4 <chThdRelease+0x1d4>)
 8005b84:	f7fb f87c 	bl	8000c80 <chSysHalt>
 8005b88:	68e1      	ldr	r1, [r4, #12]
 8005b8a:	6893      	ldr	r3, [r2, #8]
 8005b8c:	688a      	ldr	r2, [r1, #8]
 8005b8e:	429a      	cmp	r2, r3
 8005b90:	d2d2      	bcs.n	8005b38 <chThdRelease+0x38>
 8005b92:	4851      	ldr	r0, [pc, #324]	; (8005cd8 <chThdRelease+0x1d8>)
 8005b94:	f7fb f874 	bl	8000c80 <chSysHalt>
  oip->dbg.lock_cnt = (cnt_t)1;
 8005b98:	2301      	movs	r3, #1
 8005b9a:	f8c4 3090 	str.w	r3, [r4, #144]	; 0x90
 */
void chPoolFreeI(memory_pool_t *mp, void *objp) {
  struct pool_header *php = objp;

  chDbgCheckClassI();
  chDbgCheck((mp != NULL) &&
 8005b9e:	2900      	cmp	r1, #0
 8005ba0:	d076      	beq.n	8005c90 <chThdRelease+0x190>
 8005ba2:	2a00      	cmp	r2, #0
 8005ba4:	d074      	beq.n	8005c90 <chThdRelease+0x190>
 8005ba6:	688b      	ldr	r3, [r1, #8]
 8005ba8:	3b01      	subs	r3, #1
 8005baa:	4013      	ands	r3, r2
 8005bac:	d170      	bne.n	8005c90 <chThdRelease+0x190>
             (objp != NULL) &&
             MEM_IS_ALIGNED(objp, mp->align));

  php->next = mp->next;
 8005bae:	6808      	ldr	r0, [r1, #0]
 8005bb0:	6010      	str	r0, [r2, #0]
 8005bb2:	6820      	ldr	r0, [r4, #0]
  mp->next = php;
 8005bb4:	600a      	str	r2, [r1, #0]
 8005bb6:	42a0      	cmp	r0, r4
  oip->dbg.lock_cnt = (cnt_t)0;
 8005bb8:	f8c4 3090 	str.w	r3, [r4, #144]	; 0x90
 8005bbc:	d0bc      	beq.n	8005b38 <chThdRelease+0x38>
 8005bbe:	68e2      	ldr	r2, [r4, #12]
 8005bc0:	6883      	ldr	r3, [r0, #8]
 8005bc2:	6892      	ldr	r2, [r2, #8]
 8005bc4:	429a      	cmp	r2, r3
 8005bc6:	d2b7      	bcs.n	8005b38 <chThdRelease+0x38>
 8005bc8:	4844      	ldr	r0, [pc, #272]	; (8005cdc <chThdRelease+0x1dc>)
 8005bca:	f7fb f859 	bl	8000c80 <chSysHalt>
 8005bce:	6a06      	ldr	r6, [r0, #32]
 */
void chHeapFree(void *p) {
  heap_header_t *qp, *hp;
  memory_heap_t *heapp;

  chDbgCheck((p != NULL) && MEM_IS_ALIGNED(p, CH_HEAP_ALIGNMENT));
 8005bd0:	2e00      	cmp	r6, #0
 8005bd2:	d053      	beq.n	8005c7c <chThdRelease+0x17c>
 8005bd4:	0772      	lsls	r2, r6, #29
 8005bd6:	d151      	bne.n	8005c7c <chThdRelease+0x17c>

  /*lint -save -e9087 [11.3] Safe cast.*/
  hp = (heap_header_t *)p - 1U;
  /*lint -restore*/
  heapp = H_USED_HEAP(hp);
 8005bd8:	e956 5202 	ldrd	r5, r2, [r6, #-8]
#if CH_CFG_HARDENING_LEVEL > 0
  memset((void *)p, 0, MEM_ALIGN_NEXT(H_USED_SIZE(hp), CH_HEAP_ALIGNMENT));
#endif

  /* Size is converted in number of elementary allocation units.*/
  H_FREE_PAGES(hp) = MEM_ALIGN_NEXT(H_USED_SIZE(hp),
 8005bdc:	3207      	adds	r2, #7
                                    CH_HEAP_ALIGNMENT) / CH_HEAP_ALIGNMENT;
 8005bde:	08d2      	lsrs	r2, r2, #3
  H_FREE_PAGES(hp) = MEM_ALIGN_NEXT(H_USED_SIZE(hp),
 8005be0:	f846 2c04 	str.w	r2, [r6, #-4]

  /* Taking heap mutex.*/
  H_LOCK(heapp);
 8005be4:	f105 0714 	add.w	r7, r5, #20
 8005be8:	2230      	movs	r2, #48	; 0x30
 8005bea:	f382 8811 	msr	BASEPRI, r2
  if (unlikely((oip->dbg.isr_cnt != (cnt_t)0) ||
 8005bee:	e9d4 2123 	ldrd	r2, r1, [r4, #140]	; 0x8c
 8005bf2:	430a      	orrs	r2, r1
 8005bf4:	d1c2      	bne.n	8005b7c <chThdRelease+0x7c>
  chMtxLockS(mp);
 8005bf6:	4638      	mov	r0, r7
  oip->dbg.lock_cnt = (cnt_t)1;
 8005bf8:	f8c4 3090 	str.w	r3, [r4, #144]	; 0x90
 8005bfc:	f7fd fbb0 	bl	8003360 <chMtxLockS>
  if (unlikely((oip->dbg.isr_cnt != (cnt_t)0) ||
 8005c00:	f8d4 308c 	ldr.w	r3, [r4, #140]	; 0x8c
 8005c04:	2b00      	cmp	r3, #0
 8005c06:	d155      	bne.n	8005cb4 <chThdRelease+0x1b4>
 8005c08:	f8d4 2090 	ldr.w	r2, [r4, #144]	; 0x90
 8005c0c:	2a00      	cmp	r2, #0
 8005c0e:	dd51      	ble.n	8005cb4 <chThdRelease+0x1b4>
  oip->dbg.lock_cnt = (cnt_t)0;
 8005c10:	f8c4 3090 	str.w	r3, [r4, #144]	; 0x90
 8005c14:	6823      	ldr	r3, [r4, #0]
 8005c16:	42a3      	cmp	r3, r4
 8005c18:	d14f      	bne.n	8005cba <chThdRelease+0x1ba>
  hp = (heap_header_t *)p - 1U;
 8005c1a:	f1a6 0108 	sub.w	r1, r6, #8
  qp = &heapp->header;
 8005c1e:	f105 040c 	add.w	r4, r5, #12
 8005c22:	2300      	movs	r3, #0
 8005c24:	f383 8811 	msr	BASEPRI, r3
 8005c28:	4623      	mov	r3, r4

  while (true) {
    chDbgAssert((hp < qp) || (hp >= H_FREE_LIMIT(qp)), "within free block");
 8005c2a:	4299      	cmp	r1, r3
 8005c2c:	d220      	bcs.n	8005c70 <chThdRelease+0x170>

    if (((qp == &heapp->header) || (hp > qp)) &&
 8005c2e:	429c      	cmp	r4, r3
        ((H_FREE_NEXT(qp) == NULL) || (hp < H_FREE_NEXT(qp)))) {
 8005c30:	681a      	ldr	r2, [r3, #0]
    if (((qp == &heapp->header) || (hp > qp)) &&
 8005c32:	d001      	beq.n	8005c38 <chThdRelease+0x138>
 8005c34:	4299      	cmp	r1, r3
 8005c36:	d919      	bls.n	8005c6c <chThdRelease+0x16c>
 8005c38:	b10a      	cbz	r2, 8005c3e <chThdRelease+0x13e>
        ((H_FREE_NEXT(qp) == NULL) || (hp < H_FREE_NEXT(qp)))) {
 8005c3a:	4291      	cmp	r1, r2
 8005c3c:	d216      	bcs.n	8005c6c <chThdRelease+0x16c>
      /* Insertion after qp.*/
      H_FREE_NEXT(hp) = H_FREE_NEXT(qp);
 8005c3e:	f846 2c08 	str.w	r2, [r6, #-8]
      H_FREE_NEXT(qp) = hp;
      /* Verifies if the newly inserted block should be merged.*/
      if (H_FREE_LIMIT(hp) == H_FREE_NEXT(hp)) {
 8005c42:	f856 2c04 	ldr.w	r2, [r6, #-4]
      H_FREE_NEXT(qp) = hp;
 8005c46:	6019      	str	r1, [r3, #0]
      if (H_FREE_LIMIT(hp) == H_FREE_NEXT(hp)) {
 8005c48:	f856 0c08 	ldr.w	r0, [r6, #-8]
 8005c4c:	3201      	adds	r2, #1
 8005c4e:	eb01 04c2 	add.w	r4, r1, r2, lsl #3
 8005c52:	42a0      	cmp	r0, r4
 8005c54:	d026      	beq.n	8005ca4 <chThdRelease+0x1a4>
        /* Merge with the next block.*/
        H_FREE_PAGES(hp) += H_FREE_PAGES(H_FREE_NEXT(hp)) + 1U;
        H_FREE_NEXT(hp) = H_FREE_NEXT(H_FREE_NEXT(hp));
      }
      if ((H_FREE_LIMIT(qp) == hp)) {
 8005c56:	6858      	ldr	r0, [r3, #4]
 8005c58:	1c42      	adds	r2, r0, #1
 8005c5a:	eb03 02c2 	add.w	r2, r3, r2, lsl #3
 8005c5e:	4291      	cmp	r1, r2
 8005c60:	d019      	beq.n	8005c96 <chThdRelease+0x196>
    }
    qp = H_FREE_NEXT(qp);
  }

  /* Releasing heap mutex.*/
  H_UNLOCK(heapp);
 8005c62:	4638      	mov	r0, r7
}
 8005c64:	e8bd 40f8 	ldmia.w	sp!, {r3, r4, r5, r6, r7, lr}
 8005c68:	f7ff bed2 	b.w	8005a10 <chMtxUnlock>
    qp = H_FREE_NEXT(qp);
 8005c6c:	4613      	mov	r3, r2
    chDbgAssert((hp < qp) || (hp >= H_FREE_LIMIT(qp)), "within free block");
 8005c6e:	e7dc      	b.n	8005c2a <chThdRelease+0x12a>
 8005c70:	685a      	ldr	r2, [r3, #4]
 8005c72:	3201      	adds	r2, #1
 8005c74:	eb03 02c2 	add.w	r2, r3, r2, lsl #3
 8005c78:	4291      	cmp	r1, r2
 8005c7a:	d2d8      	bcs.n	8005c2e <chThdRelease+0x12e>
  chDbgCheck((p != NULL) && MEM_IS_ALIGNED(p, CH_HEAP_ALIGNMENT));
 8005c7c:	4818      	ldr	r0, [pc, #96]	; (8005ce0 <chThdRelease+0x1e0>)
 8005c7e:	f7fa ffff 	bl	8000c80 <chSysHalt>
 8005c82:	68e1      	ldr	r1, [r4, #12]
 8005c84:	6893      	ldr	r3, [r2, #8]
 8005c86:	688a      	ldr	r2, [r1, #8]
 8005c88:	429a      	cmp	r2, r3
 8005c8a:	f4bf af63 	bcs.w	8005b54 <chThdRelease+0x54>
 8005c8e:	e780      	b.n	8005b92 <chThdRelease+0x92>
  chDbgCheck((mp != NULL) &&
 8005c90:	4814      	ldr	r0, [pc, #80]	; (8005ce4 <chThdRelease+0x1e4>)
 8005c92:	f7fa fff5 	bl	8000c80 <chSysHalt>
        H_FREE_NEXT(qp) = H_FREE_NEXT(hp);
 8005c96:	e956 1202 	ldrd	r1, r2, [r6, #-8]
        H_FREE_PAGES(qp) += H_FREE_PAGES(hp) + 1U;
 8005c9a:	3201      	adds	r2, #1
 8005c9c:	4402      	add	r2, r0
        H_FREE_NEXT(qp) = H_FREE_NEXT(hp);
 8005c9e:	e9c3 1200 	strd	r1, r2, [r3]
 8005ca2:	e7de      	b.n	8005c62 <chThdRelease+0x162>
        H_FREE_PAGES(hp) += H_FREE_PAGES(H_FREE_NEXT(hp)) + 1U;
 8005ca4:	6844      	ldr	r4, [r0, #4]
 8005ca6:	4414      	add	r4, r2
        H_FREE_NEXT(hp) = H_FREE_NEXT(H_FREE_NEXT(hp));
 8005ca8:	6802      	ldr	r2, [r0, #0]
        H_FREE_PAGES(hp) += H_FREE_PAGES(H_FREE_NEXT(hp)) + 1U;
 8005caa:	f846 4c04 	str.w	r4, [r6, #-4]
        H_FREE_NEXT(hp) = H_FREE_NEXT(H_FREE_NEXT(hp));
 8005cae:	f846 2c08 	str.w	r2, [r6, #-8]
 8005cb2:	e7d0      	b.n	8005c56 <chThdRelease+0x156>
    chSysHalt("SV#5");
 8005cb4:	480c      	ldr	r0, [pc, #48]	; (8005ce8 <chThdRelease+0x1e8>)
 8005cb6:	f7fa ffe3 	bl	8000c80 <chSysHalt>
 8005cba:	68e2      	ldr	r2, [r4, #12]
 8005cbc:	689b      	ldr	r3, [r3, #8]
 8005cbe:	6892      	ldr	r2, [r2, #8]
 8005cc0:	429a      	cmp	r2, r3
 8005cc2:	d2aa      	bcs.n	8005c1a <chThdRelease+0x11a>
 8005cc4:	4809      	ldr	r0, [pc, #36]	; (8005cec <chThdRelease+0x1ec>)
 8005cc6:	f7fa ffdb 	bl	8000c80 <chSysHalt>
 8005cca:	bf00      	nop
 8005ccc:	20000ec8 	.word	0x20000ec8
 8005cd0:	080072f4 	.word	0x080072f4
 8005cd4:	08007e64 	.word	0x08007e64
 8005cd8:	08007e88 	.word	0x08007e88
 8005cdc:	08007f0c 	.word	0x08007f0c
 8005ce0:	08007d9c 	.word	0x08007d9c
 8005ce4:	08007da8 	.word	0x08007da8
 8005ce8:	08007314 	.word	0x08007314
 8005cec:	08007fbc 	.word	0x08007fbc

08005cf0 <chThdCreateStatic.constprop.0.isra.0>:
thread_t *chThdCreateStatic(void *wsp, size_t size,
 8005cf0:	e92d 47f0 	stmdb	sp!, {r4, r5, r6, r7, r8, r9, sl, lr}
 8005cf4:	2330      	movs	r3, #48	; 0x30
 8005cf6:	4606      	mov	r6, r0
 8005cf8:	460f      	mov	r7, r1
 8005cfa:	f383 8811 	msr	BASEPRI, r3
thread_t *chRegFirstThread(void) {
  thread_t *tp;
  uint8_t *p;

  chSysLock();
  p = (uint8_t *)REG_HEADER(currcore)->next;
 8005cfe:	4c5a      	ldr	r4, [pc, #360]	; (8005e68 <chThdCreateStatic.constprop.0.isra.0+0x178>)
  __dbg_check_lock();
 8005d00:	f7fe fc86 	bl	8004610 <__dbg_check_lock>
 8005d04:	6aa5      	ldr	r5, [r4, #40]	; 0x28
  /*lint -save -e413 [1.3] Safe to subtract a calculated offset.*/
  tp = threadref((p - __CH_OFFSETOF(thread_t, rqueue)));
  /*lint -restore*/
#if CH_CFG_USE_DYNAMIC == TRUE
  tp->refs++;
 8005d06:	7eab      	ldrb	r3, [r5, #26]
 8005d08:	3301      	adds	r3, #1
 8005d0a:	76ab      	strb	r3, [r5, #26]
  __dbg_check_unlock();
 8005d0c:	f7fe fc98 	bl	8004640 <__dbg_check_unlock>
  chDbgAssert((currcore->rlist.pqueue.next == &currcore->rlist.pqueue) ||
 8005d10:	6823      	ldr	r3, [r4, #0]
 8005d12:	42a3      	cmp	r3, r4
 8005d14:	f040 8093 	bne.w	8005e3e <chThdCreateStatic.constprop.0.isra.0+0x14e>
  tp = threadref((p - __CH_OFFSETOF(thread_t, rqueue)));
 8005d18:	f1a5 0010 	sub.w	r0, r5, #16
 8005d1c:	2300      	movs	r3, #0
 8005d1e:	f383 8811 	msr	BASEPRI, r3

  chSysLock();

  /* Next element in the registry queue.*/
  nqp = tp->rqueue.next;
  if (nqp == REG_HEADER(currcore)) {
 8005d22:	f8df 9148 	ldr.w	r9, [pc, #328]	; 8005e6c <chThdCreateStatic.constprop.0.isra.0+0x17c>
 8005d26:	f04f 0830 	mov.w	r8, #48	; 0x30
  oip->dbg.lock_cnt = (cnt_t)1;
 8005d2a:	f04f 0a01 	mov.w	sl, #1
  thread_t *ctp;

  /* Scanning registry.*/
  ctp = chRegFirstThread();
  do {
    if (chThdGetWorkingAreaX(ctp) == wa) {
 8005d2e:	6a03      	ldr	r3, [r0, #32]
 8005d30:	429e      	cmp	r6, r3
 8005d32:	f000 808e 	beq.w	8005e52 <chThdCreateStatic.constprop.0.isra.0+0x162>
 8005d36:	f388 8811 	msr	BASEPRI, r8
  if (unlikely((oip->dbg.isr_cnt != (cnt_t)0) ||
 8005d3a:	e9d4 3523 	ldrd	r3, r5, [r4, #140]	; 0x8c
 8005d3e:	432b      	orrs	r3, r5
 8005d40:	d119      	bne.n	8005d76 <chThdCreateStatic.constprop.0.isra.0+0x86>
  nqp = tp->rqueue.next;
 8005d42:	6902      	ldr	r2, [r0, #16]
  oip->dbg.lock_cnt = (cnt_t)1;
 8005d44:	f8c4 a090 	str.w	sl, [r4, #144]	; 0x90
  if (nqp == REG_HEADER(currcore)) {
 8005d48:	454a      	cmp	r2, r9
 8005d4a:	d017      	beq.n	8005d7c <chThdCreateStatic.constprop.0.isra.0+0x8c>
    chDbgAssert(ntp->refs < (trefs_t)255, "too many references");
 8005d4c:	7e93      	ldrb	r3, [r2, #26]
 8005d4e:	2bff      	cmp	r3, #255	; 0xff
    ntp = threadref((p - __CH_OFFSETOF(thread_t, rqueue)));
 8005d50:	f1a2 0510 	sub.w	r5, r2, #16
    chDbgAssert(ntp->refs < (trefs_t)255, "too many references");
 8005d54:	d068      	beq.n	8005e28 <chThdCreateStatic.constprop.0.isra.0+0x138>
    ntp->refs++;
 8005d56:	3301      	adds	r3, #1
 8005d58:	7693      	strb	r3, [r2, #26]
 8005d5a:	6823      	ldr	r3, [r4, #0]
  oip->dbg.lock_cnt = (cnt_t)0;
 8005d5c:	2200      	movs	r2, #0
 8005d5e:	42a3      	cmp	r3, r4
 8005d60:	f8c4 2090 	str.w	r2, [r4, #144]	; 0x90
 8005d64:	d163      	bne.n	8005e2e <chThdCreateStatic.constprop.0.isra.0+0x13e>
 8005d66:	2300      	movs	r3, #0
 8005d68:	f383 8811 	msr	BASEPRI, r3
  chThdRelease(tp);
 8005d6c:	f7ff fec8 	bl	8005b00 <chThdRelease>
      return ctp;
    }
    ctp = chRegNextThread(ctp);
  } while (ctp != NULL);
 8005d70:	b135      	cbz	r5, 8005d80 <chThdCreateStatic.constprop.0.isra.0+0x90>
 8005d72:	4628      	mov	r0, r5
 8005d74:	e7db      	b.n	8005d2e <chThdCreateStatic.constprop.0.isra.0+0x3e>
    chSysHalt("SV#4");
 8005d76:	483e      	ldr	r0, [pc, #248]	; (8005e70 <chThdCreateStatic.constprop.0.isra.0+0x180>)
 8005d78:	f7fa ff82 	bl	8000c80 <chSysHalt>
    ntp = NULL;
 8005d7c:	461d      	mov	r5, r3
 8005d7e:	e7ec      	b.n	8005d5a <chThdCreateStatic.constprop.0.isra.0+0x6a>
    *startp++ = CH_DBG_STACK_FILL_VALUE;
 8005d80:	f44f 72b8 	mov.w	r2, #368	; 0x170
 8005d84:	2155      	movs	r1, #85	; 0x55
 8005d86:	4630      	mov	r0, r6
 8005d88:	f000 ff62 	bl	8006c50 <memset>
 8005d8c:	2330      	movs	r3, #48	; 0x30
 8005d8e:	f383 8811 	msr	BASEPRI, r3
  __dbg_check_lock();
 8005d92:	f7fe fc3d 	bl	8004610 <__dbg_check_lock>
  PORT_SETUP_CONTEXT(tp, wsp, tp, pf, arg);
 8005d96:	f8c6 70fc 	str.w	r7, [r6, #252]	; 0xfc
  tp->name              = name;
 8005d9a:	4f36      	ldr	r7, [pc, #216]	; (8005e74 <chThdCreateStatic.constprop.0.isra.0+0x184>)
 8005d9c:	f8c6 713c 	str.w	r7, [r6, #316]	; 0x13c
  __thd_stackfill((uint8_t *)wsp, (uint8_t *)wsp + size);
 8005da0:	f506 77b8 	add.w	r7, r6, #368	; 0x170
  tp->waend  = (stkalign_t *)wsp + (size / sizeof (stkalign_t));
 8005da4:	f8c6 7144 	str.w	r7, [r6, #324]	; 0x144
  PORT_SETUP_CONTEXT(tp, wsp, tp, pf, arg);
 8005da8:	4b33      	ldr	r3, [pc, #204]	; (8005e78 <chThdCreateStatic.constprop.0.isra.0+0x188>)
  p->prev       = qp->prev;
 8005daa:	6ae1      	ldr	r1, [r4, #44]	; 0x2c
 8005dac:	f8c6 311c 	str.w	r3, [r6, #284]	; 0x11c
 8005db0:	f106 07fc 	add.w	r7, r6, #252	; 0xfc
  tp->hdr.pqueue.prio   = prio;
 8005db4:	2380      	movs	r3, #128	; 0x80
  PORT_SETUP_CONTEXT(tp, wsp, tp, pf, arg);
 8005db6:	f8c6 712c 	str.w	r7, [r6, #300]	; 0x12c
  tp->state             = CH_STATE_WTSTART;
 8005dba:	2702      	movs	r7, #2
  tp->hdr.pqueue.prio   = prio;
 8005dbc:	f8c6 3128 	str.w	r3, [r6, #296]	; 0x128
  tp->realprio          = prio;
 8005dc0:	f8c6 3164 	str.w	r3, [r6, #356]	; 0x164
  REG_INSERT(oip, tp);
 8005dc4:	f506 7298 	add.w	r2, r6, #304	; 0x130
  ch_queue_init(&tp->msgqueue);
 8005dc8:	f506 73aa 	add.w	r3, r6, #340	; 0x154
  tp->state             = CH_STATE_WTSTART;
 8005dcc:	f8a6 7148 	strh.w	r7, [r6, #328]	; 0x148
  ch_list_init(&tp->waiting);
 8005dd0:	f506 70a8 	add.w	r0, r6, #336	; 0x150
  tp->refs              = (trefs_t)1;
 8005dd4:	2701      	movs	r7, #1
  tp->epending          = (eventmask_t)0;
 8005dd6:	e9c6 5557 	strd	r5, r5, [r6, #348]	; 0x15c
  p->next       = qp;
 8005dda:	f8c6 9130 	str.w	r9, [r6, #304]	; 0x130
  tp->wabase = (stkalign_t *)wsp;
 8005dde:	f8c6 6140 	str.w	r6, [r6, #320]	; 0x140
  PORT_SETUP_CONTEXT(tp, wsp, tp, pf, arg);
 8005de2:	f8c6 5100 	str.w	r5, [r6, #256]	; 0x100
  tp->owner             = oip;
 8005de6:	f8c6 4138 	str.w	r4, [r6, #312]	; 0x138
  p->prev       = qp->prev;
 8005dea:	f8c6 1134 	str.w	r1, [r6, #308]	; 0x134
  tp->refs              = (trefs_t)1;
 8005dee:	f886 714a 	strb.w	r7, [r6, #330]	; 0x14a
  p->prev->next = p;
 8005df2:	600a      	str	r2, [r1, #0]
  qp->prev = qp;
 8005df4:	e9c6 3355 	strd	r3, r3, [r6, #340]	; 0x154
  lp->next = lp;
 8005df8:	f8c6 0150 	str.w	r0, [r6, #336]	; 0x150
  chSchWakeupS(tp, MSG_OK);
 8005dfc:	f506 7090 	add.w	r0, r6, #288	; 0x120
  qp->prev      = p;
 8005e00:	62e2      	str	r2, [r4, #44]	; 0x2c
 8005e02:	f7fd fb2d 	bl	8003460 <chSchWakeupS.constprop.0>
  if (unlikely((oip->dbg.isr_cnt != (cnt_t)0) ||
 8005e06:	f8d4 308c 	ldr.w	r3, [r4, #140]	; 0x8c
 8005e0a:	b9fb      	cbnz	r3, 8005e4c <chThdCreateStatic.constprop.0.isra.0+0x15c>
 8005e0c:	f8d4 3090 	ldr.w	r3, [r4, #144]	; 0x90
 8005e10:	2b00      	cmp	r3, #0
 8005e12:	dd1b      	ble.n	8005e4c <chThdCreateStatic.constprop.0.isra.0+0x15c>
  chDbgAssert((currcore->rlist.pqueue.next == &currcore->rlist.pqueue) ||
 8005e14:	6823      	ldr	r3, [r4, #0]
  oip->dbg.lock_cnt = (cnt_t)0;
 8005e16:	f8c4 5090 	str.w	r5, [r4, #144]	; 0x90
 8005e1a:	42a3      	cmp	r3, r4
 8005e1c:	d11c      	bne.n	8005e58 <chThdCreateStatic.constprop.0.isra.0+0x168>
 8005e1e:	2300      	movs	r3, #0
 8005e20:	f383 8811 	msr	BASEPRI, r3
}
 8005e24:	e8bd 87f0 	ldmia.w	sp!, {r4, r5, r6, r7, r8, r9, sl, pc}
    chDbgAssert(ntp->refs < (trefs_t)255, "too many references");
 8005e28:	4814      	ldr	r0, [pc, #80]	; (8005e7c <chThdCreateStatic.constprop.0.isra.0+0x18c>)
 8005e2a:	f7fa ff29 	bl	8000c80 <chSysHalt>
 8005e2e:	689a      	ldr	r2, [r3, #8]
 8005e30:	68e3      	ldr	r3, [r4, #12]
 8005e32:	689b      	ldr	r3, [r3, #8]
 8005e34:	4293      	cmp	r3, r2
 8005e36:	d296      	bcs.n	8005d66 <chThdCreateStatic.constprop.0.isra.0+0x76>
 8005e38:	4811      	ldr	r0, [pc, #68]	; (8005e80 <chThdCreateStatic.constprop.0.isra.0+0x190>)
 8005e3a:	f7fa ff21 	bl	8000c80 <chSysHalt>
 8005e3e:	68e2      	ldr	r2, [r4, #12]
 8005e40:	689b      	ldr	r3, [r3, #8]
 8005e42:	6892      	ldr	r2, [r2, #8]
 8005e44:	429a      	cmp	r2, r3
 8005e46:	f4bf af67 	bcs.w	8005d18 <chThdCreateStatic.constprop.0.isra.0+0x28>
 8005e4a:	e7f5      	b.n	8005e38 <chThdCreateStatic.constprop.0.isra.0+0x148>
    chSysHalt("SV#5");
 8005e4c:	480d      	ldr	r0, [pc, #52]	; (8005e84 <chThdCreateStatic.constprop.0.isra.0+0x194>)
 8005e4e:	f7fa ff17 	bl	8000c80 <chSysHalt>
  chDbgAssert(chRegFindThreadByWorkingArea(wsp) == NULL,
 8005e52:	480d      	ldr	r0, [pc, #52]	; (8005e88 <chThdCreateStatic.constprop.0.isra.0+0x198>)
 8005e54:	f7fa ff14 	bl	8000c80 <chSysHalt>
 8005e58:	68e2      	ldr	r2, [r4, #12]
 8005e5a:	689b      	ldr	r3, [r3, #8]
 8005e5c:	6892      	ldr	r2, [r2, #8]
 8005e5e:	429a      	cmp	r2, r3
 8005e60:	d2dd      	bcs.n	8005e1e <chThdCreateStatic.constprop.0.isra.0+0x12e>
 8005e62:	480a      	ldr	r0, [pc, #40]	; (8005e8c <chThdCreateStatic.constprop.0.isra.0+0x19c>)
 8005e64:	f7fa ff0c 	bl	8000c80 <chSysHalt>
 8005e68:	20000ec8 	.word	0x20000ec8
 8005e6c:	20000ef0 	.word	0x20000ef0
 8005e70:	080072f4 	.word	0x080072f4
 8005e74:	08007b74 	.word	0x08007b74
 8005e78:	080002f1 	.word	0x080002f1
 8005e7c:	08007ca8 	.word	0x08007ca8
 8005e80:	08007e28 	.word	0x08007e28
 8005e84:	08007314 	.word	0x08007314
 8005e88:	08007e74 	.word	0x08007e74
 8005e8c:	08007e88 	.word	0x08007e88

08005e90 <DebugThread1>:
  mbp->buffer = buf;
 8005e90:	4c74      	ldr	r4, [pc, #464]	; (8006064 <DebugThread1+0x1d4>)
 8005e92:	4b75      	ldr	r3, [pc, #468]	; (8006068 <DebugThread1+0x1d8>)
 8005e94:	4d75      	ldr	r5, [pc, #468]	; (800606c <DebugThread1+0x1dc>)
    dbg_src = (uint8_t)((msg >> 24) & debuglevel); //one bit in debuglevel is for one source
 8005e96:	f8df 81d8 	ldr.w	r8, [pc, #472]	; 8006070 <DebugThread1+0x1e0>
              chprintf(dbg, "click once.\r\n");
 8005e9a:	f8df 91d8 	ldr.w	r9, [pc, #472]	; 8006074 <DebugThread1+0x1e4>
THD_FUNCTION(DebugThread1, arg) {
 8005e9e:	e92d 4880 	stmdb	sp!, {r7, fp, lr}
  qp->next = qp;
 8005ea2:	f104 0620 	add.w	r6, r4, #32
 8005ea6:	f104 0718 	add.w	r7, r4, #24
  mbp->top    = &buf[n];
 8005eaa:	f103 0120 	add.w	r1, r3, #32
  mbp->buffer = buf;
 8005eae:	e9c4 3100 	strd	r3, r1, [r4]
  mbp->wrptr  = buf;
 8005eb2:	e9c4 3302 	strd	r3, r3, [r4, #8]
  qp->prev = qp;
 8005eb6:	e9c4 7706 	strd	r7, r7, [r4, #24]
 8005eba:	e9c4 6608 	strd	r6, r6, [r4, #32]
  mbp->cnt    = (size_t)0;
 8005ebe:	2200      	movs	r2, #0
              chprintf(dbg, "click once.\r\n");
 8005ec0:	f8df b1b4 	ldr.w	fp, [pc, #436]	; 8006078 <DebugThread1+0x1e8>
 8005ec4:	6122      	str	r2, [r4, #16]
THD_FUNCTION(DebugThread1, arg) {
 8005ec6:	b083      	sub	sp, #12
  mbp->reset  = false;
 8005ec8:	7522      	strb	r2, [r4, #20]
 8005eca:	2330      	movs	r3, #48	; 0x30
 8005ecc:	f383 8811 	msr	BASEPRI, r3
  if (unlikely((oip->dbg.isr_cnt != (cnt_t)0) ||
 8005ed0:	e9d5 3223 	ldrd	r3, r2, [r5, #140]	; 0x8c
 8005ed4:	4313      	orrs	r3, r2
 8005ed6:	d168      	bne.n	8005faa <DebugThread1+0x11a>
  oip->dbg.lock_cnt = (cnt_t)1;
 8005ed8:	2301      	movs	r3, #1
 8005eda:	f8c5 3090 	str.w	r3, [r5, #144]	; 0x90
  chDbgCheckClassS();
  chDbgCheck((mbp != NULL) && (msgp != NULL));

  do {
    /* If the mailbox is in reset state then returns immediately.*/
    if (mbp->reset) {
 8005ede:	7d23      	ldrb	r3, [r4, #20]
 8005ee0:	b9f3      	cbnz	r3, 8005f20 <DebugThread1+0x90>
  if (unlikely((oip->dbg.isr_cnt < (cnt_t)0) ||
 8005ee2:	f8d5 208c 	ldr.w	r2, [r5, #140]	; 0x8c
 8005ee6:	2a00      	cmp	r2, #0
 8005ee8:	db62      	blt.n	8005fb0 <DebugThread1+0x120>
 8005eea:	f8d5 3090 	ldr.w	r3, [r5, #144]	; 0x90
 8005eee:	2b00      	cmp	r3, #0
 8005ef0:	dd5e      	ble.n	8005fb0 <DebugThread1+0x120>
 */
static inline size_t chMBGetUsedCountI(const mailbox_t *mbp) {

  chDbgCheckClassI();

  return mbp->cnt;
 8005ef2:	6923      	ldr	r3, [r4, #16]
      return MSG_RESET;
    }

    /* Is there a message in queue? if so then fetch.*/
    if (chMBGetUsedCountI(mbp) > (size_t)0) {
 8005ef4:	2b00      	cmp	r3, #0
 8005ef6:	d16c      	bne.n	8005fd2 <DebugThread1+0x142>
  return __sch_get_currthread();
 8005ef8:	f8d5 a00c 	ldr.w	sl, [r5, #12]
  p->prev       = qp->prev;
 8005efc:	6a61      	ldr	r1, [r4, #36]	; 0x24
  p->next       = qp;
 8005efe:	f8ca 6000 	str.w	r6, [sl]
  p->prev       = qp->prev;
 8005f02:	f8ca 1004 	str.w	r1, [sl, #4]
  p->prev->next = p;
 8005f06:	f8c1 a000 	str.w	sl, [r1]
  qp->prev      = p;
 8005f0a:	f8c4 a024 	str.w	sl, [r4, #36]	; 0x24
  if (unlikely((oip->dbg.isr_cnt != (cnt_t)0) ||
 8005f0e:	2a00      	cmp	r2, #0
 8005f10:	d154      	bne.n	8005fbc <DebugThread1+0x12c>
    chSchGoSleepS(newstate);
 8005f12:	2004      	movs	r0, #4
 8005f14:	f7fc fcfc 	bl	8002910 <chSchGoSleepS>
      return MSG_OK;
    }

    /* No message in the queue, waiting for a message to become available.*/
    rdymsg = chThdEnqueueTimeoutS(&mbp->qr, timeout);
  } while (rdymsg == MSG_OK);
 8005f18:	f8da 302c 	ldr.w	r3, [sl, #44]	; 0x2c
 8005f1c:	2b00      	cmp	r3, #0
 8005f1e:	d0de      	beq.n	8005ede <DebugThread1+0x4e>
  if (unlikely((oip->dbg.isr_cnt != (cnt_t)0) ||
 8005f20:	f8d5 308c 	ldr.w	r3, [r5, #140]	; 0x8c
 8005f24:	2b00      	cmp	r3, #0
 8005f26:	d17f      	bne.n	8006028 <DebugThread1+0x198>
 8005f28:	f8d5 3090 	ldr.w	r3, [r5, #144]	; 0x90
 8005f2c:	2b00      	cmp	r3, #0
 8005f2e:	dd7b      	ble.n	8006028 <DebugThread1+0x198>
 8005f30:	682b      	ldr	r3, [r5, #0]
  oip->dbg.lock_cnt = (cnt_t)0;
 8005f32:	2200      	movs	r2, #0
 8005f34:	42ab      	cmp	r3, r5
 8005f36:	f8c5 2090 	str.w	r2, [r5, #144]	; 0x90
 8005f3a:	d142      	bne.n	8005fc2 <DebugThread1+0x132>
 8005f3c:	2300      	movs	r3, #0
 8005f3e:	f383 8811 	msr	BASEPRI, r3
    dbg_src = (uint8_t)((msg >> 24) & debuglevel); //one bit in debuglevel is for one source
 8005f42:	f898 2000 	ldrb.w	r2, [r8]
    if (debuglevel){  // debug only when debuglevel > 0
 8005f46:	b182      	cbz	r2, 8005f6a <DebugThread1+0xda>
      switch (dbg_src){
 8005f48:	9b01      	ldr	r3, [sp, #4]
 8005f4a:	ea02 6223 	and.w	r2, r2, r3, asr #24
 8005f4e:	2a01      	cmp	r2, #1
 8005f50:	d10b      	bne.n	8005f6a <DebugThread1+0xda>
    lo = (uint16_t)(msg);
 8005f52:	f8bd 3004 	ldrh.w	r3, [sp, #4]
 8005f56:	2b02      	cmp	r3, #2
 8005f58:	d07b      	beq.n	8006052 <DebugThread1+0x1c2>
 8005f5a:	2b03      	cmp	r3, #3
 8005f5c:	d074      	beq.n	8006048 <DebugThread1+0x1b8>
 8005f5e:	2b01      	cmp	r3, #1
 8005f60:	d06d      	beq.n	800603e <DebugThread1+0x1ae>
              chprintf(dbg, "unknown message for %d!\r\n", dbg_src);
 8005f62:	4946      	ldr	r1, [pc, #280]	; (800607c <DebugThread1+0x1ec>)
 8005f64:	4648      	mov	r0, r9
 8005f66:	f7fd fadb 	bl	8003520 <chprintf>
 8005f6a:	2330      	movs	r3, #48	; 0x30
 8005f6c:	f383 8811 	msr	BASEPRI, r3
  if (unlikely((oip->dbg.isr_cnt != (cnt_t)0) ||
 8005f70:	e9d5 3223 	ldrd	r3, r2, [r5, #140]	; 0x8c
 8005f74:	4313      	orrs	r3, r2
 8005f76:	d118      	bne.n	8005faa <DebugThread1+0x11a>
  oip->dbg.lock_cnt = (cnt_t)1;
 8005f78:	2301      	movs	r3, #1
  (void) chSchGoSleepTimeoutS(CH_STATE_SLEEPING, ticks);
 8005f7a:	f44f 71fa 	mov.w	r1, #500	; 0x1f4
 8005f7e:	2008      	movs	r0, #8
 8005f80:	f8c5 3090 	str.w	r3, [r5, #144]	; 0x90
 8005f84:	f7fc fd1c 	bl	80029c0 <chSchGoSleepTimeoutS>
  if (unlikely((oip->dbg.isr_cnt != (cnt_t)0) ||
 8005f88:	f8d5 308c 	ldr.w	r3, [r5, #140]	; 0x8c
 8005f8c:	2b00      	cmp	r3, #0
 8005f8e:	d14b      	bne.n	8006028 <DebugThread1+0x198>
 8005f90:	f8d5 2090 	ldr.w	r2, [r5, #144]	; 0x90
 8005f94:	2a00      	cmp	r2, #0
 8005f96:	dd47      	ble.n	8006028 <DebugThread1+0x198>
  oip->dbg.lock_cnt = (cnt_t)0;
 8005f98:	f8c5 3090 	str.w	r3, [r5, #144]	; 0x90
 8005f9c:	682b      	ldr	r3, [r5, #0]
 8005f9e:	42ab      	cmp	r3, r5
 8005fa0:	d145      	bne.n	800602e <DebugThread1+0x19e>
 8005fa2:	2300      	movs	r3, #0
 8005fa4:	f383 8811 	msr	BASEPRI, r3
}
 8005fa8:	e78f      	b.n	8005eca <DebugThread1+0x3a>
    chSysHalt("SV#4");
 8005faa:	4835      	ldr	r0, [pc, #212]	; (8006080 <DebugThread1+0x1f0>)
 8005fac:	f7fa fe68 	bl	8000c80 <chSysHalt>
    chSysHalt("SV#10");
 8005fb0:	4834      	ldr	r0, [pc, #208]	; (8006084 <DebugThread1+0x1f4>)
 8005fb2:	f7fa fe65 	bl	8000c80 <chSysHalt>
  thread_t *tp = __instance_get_currthread(oip);
 8005fb6:	68eb      	ldr	r3, [r5, #12]
  if (unlikely((oip->dbg.isr_cnt != (cnt_t)0) ||
 8005fb8:	2a00      	cmp	r2, #0
 8005fba:	d02d      	beq.n	8006018 <DebugThread1+0x188>
    chSysHalt("SV#11");
 8005fbc:	4832      	ldr	r0, [pc, #200]	; (8006088 <DebugThread1+0x1f8>)
 8005fbe:	f7fa fe5f 	bl	8000c80 <chSysHalt>
  chDbgAssert((currcore->rlist.pqueue.next == &currcore->rlist.pqueue) ||
 8005fc2:	68ea      	ldr	r2, [r5, #12]
 8005fc4:	689b      	ldr	r3, [r3, #8]
 8005fc6:	6892      	ldr	r2, [r2, #8]
 8005fc8:	429a      	cmp	r2, r3
 8005fca:	d2b7      	bcs.n	8005f3c <DebugThread1+0xac>
 8005fcc:	482f      	ldr	r0, [pc, #188]	; (800608c <DebugThread1+0x1fc>)
 8005fce:	f7fa fe57 	bl	8000c80 <chSysHalt>
      *msgp = *mbp->rdptr++;
 8005fd2:	68e1      	ldr	r1, [r4, #12]
 8005fd4:	1d08      	adds	r0, r1, #4
 8005fd6:	6809      	ldr	r1, [r1, #0]
 8005fd8:	9101      	str	r1, [sp, #4]
      if (mbp->rdptr >= mbp->top) {
 8005fda:	6861      	ldr	r1, [r4, #4]
      *msgp = *mbp->rdptr++;
 8005fdc:	60e0      	str	r0, [r4, #12]
      if (mbp->rdptr >= mbp->top) {
 8005fde:	4288      	cmp	r0, r1
  return (bool)(qp->next != qp);
 8005fe0:	69a0      	ldr	r0, [r4, #24]
        mbp->rdptr = mbp->buffer;
 8005fe2:	bf24      	itt	cs
 8005fe4:	6821      	ldrcs	r1, [r4, #0]
 8005fe6:	60e1      	strcs	r1, [r4, #12]
      mbp->cnt--;
 8005fe8:	3b01      	subs	r3, #1
  if (ch_queue_notempty(&tqp->queue)) {
 8005fea:	42b8      	cmp	r0, r7
 8005fec:	6123      	str	r3, [r4, #16]
 8005fee:	d0e2      	beq.n	8005fb6 <DebugThread1+0x126>
  qp->next       = p->next;
 8005ff0:	6803      	ldr	r3, [r0, #0]
 8005ff2:	61a3      	str	r3, [r4, #24]
  qp->next->prev = qp;
 8005ff4:	605f      	str	r7, [r3, #4]
  chDbgAssert(tp->state == CH_STATE_QUEUED, "invalid state");
 8005ff6:	f890 3028 	ldrb.w	r3, [r0, #40]	; 0x28
 8005ffa:	2b04      	cmp	r3, #4
 8005ffc:	d12e      	bne.n	800605c <DebugThread1+0x1cc>
  tp->u.rdymsg = msg;
 8005ffe:	2300      	movs	r3, #0
 8006000:	62c3      	str	r3, [r0, #44]	; 0x2c
  return __sch_ready_behind(tp);
 8006002:	f7fb fd35 	bl	8001a70 <__sch_ready_behind.isra.0>
  if (unlikely((oip->dbg.isr_cnt != (cnt_t)0) ||
 8006006:	f8d5 208c 	ldr.w	r2, [r5, #140]	; 0x8c
  thread_t *tp = __instance_get_currthread(oip);
 800600a:	68eb      	ldr	r3, [r5, #12]
 800600c:	2a00      	cmp	r2, #0
 800600e:	d1d5      	bne.n	8005fbc <DebugThread1+0x12c>
 8006010:	f8d5 2090 	ldr.w	r2, [r5, #144]	; 0x90
 8006014:	2a00      	cmp	r2, #0
 8006016:	ddd1      	ble.n	8005fbc <DebugThread1+0x12c>
  if (likely(firstprio(&oip->rlist.pqueue) > tp->hdr.pqueue.prio)) {
 8006018:	682a      	ldr	r2, [r5, #0]
 800601a:	689b      	ldr	r3, [r3, #8]
 800601c:	6892      	ldr	r2, [r2, #8]
 800601e:	429a      	cmp	r2, r3
 8006020:	d986      	bls.n	8005f30 <DebugThread1+0xa0>
    __sch_reschedule_ahead();
 8006022:	f7ff fcbd 	bl	80059a0 <chSchDoPreemption>
 8006026:	e77b      	b.n	8005f20 <DebugThread1+0x90>
    chSysHalt("SV#5");
 8006028:	4819      	ldr	r0, [pc, #100]	; (8006090 <DebugThread1+0x200>)
 800602a:	f7fa fe29 	bl	8000c80 <chSysHalt>
 800602e:	68ea      	ldr	r2, [r5, #12]
 8006030:	689b      	ldr	r3, [r3, #8]
 8006032:	6892      	ldr	r2, [r2, #8]
 8006034:	429a      	cmp	r2, r3
 8006036:	d2b4      	bcs.n	8005fa2 <DebugThread1+0x112>
 8006038:	4816      	ldr	r0, [pc, #88]	; (8006094 <DebugThread1+0x204>)
 800603a:	f7fa fe21 	bl	8000c80 <chSysHalt>
              chprintf(dbg, "click long.\r\n");
 800603e:	4916      	ldr	r1, [pc, #88]	; (8006098 <DebugThread1+0x208>)
 8006040:	4648      	mov	r0, r9
 8006042:	f7fd fa6d 	bl	8003520 <chprintf>
            break;  
 8006046:	e790      	b.n	8005f6a <DebugThread1+0xda>
              chprintf(dbg, "click double.\r\n");
 8006048:	4914      	ldr	r1, [pc, #80]	; (800609c <DebugThread1+0x20c>)
 800604a:	4648      	mov	r0, r9
 800604c:	f7fd fa68 	bl	8003520 <chprintf>
            break;  
 8006050:	e78b      	b.n	8005f6a <DebugThread1+0xda>
              chprintf(dbg, "click once.\r\n");
 8006052:	4659      	mov	r1, fp
 8006054:	4648      	mov	r0, r9
 8006056:	f7fd fa63 	bl	8003520 <chprintf>
            break;  
 800605a:	e786      	b.n	8005f6a <DebugThread1+0xda>
  chDbgAssert(tp->state == CH_STATE_QUEUED, "invalid state");
 800605c:	4810      	ldr	r0, [pc, #64]	; (80060a0 <DebugThread1+0x210>)
 800605e:	f7fa fe0f 	bl	8000c80 <chSysHalt>
 8006062:	bf00      	nop
 8006064:	20001b78 	.word	0x20001b78
 8006068:	20001ba4 	.word	0x20001ba4
 800606c:	20000ec8 	.word	0x20000ec8
 8006070:	20001904 	.word	0x20001904
 8006074:	20000950 	.word	0x20000950
 8006078:	08007b8c 	.word	0x08007b8c
 800607c:	08007bac 	.word	0x08007bac
 8006080:	080072f4 	.word	0x080072f4
 8006084:	080072e4 	.word	0x080072e4
 8006088:	080072dc 	.word	0x080072dc
 800608c:	080080a4 	.word	0x080080a4
 8006090:	08007314 	.word	0x08007314
 8006094:	08007e88 	.word	0x08007e88
 8006098:	08007b7c 	.word	0x08007b7c
 800609c:	08007b9c 	.word	0x08007b9c
 80060a0:	08007d3c 	.word	0x08007d3c
	...

080060b0 <chThdExit>:
void chThdExit(msg_t msg) {
 80060b0:	b508      	push	{r3, lr}
 80060b2:	2330      	movs	r3, #48	; 0x30
 80060b4:	f383 8811 	msr	BASEPRI, r3
  if (unlikely((oip->dbg.isr_cnt != (cnt_t)0) ||
 80060b8:	4b06      	ldr	r3, [pc, #24]	; (80060d4 <chThdExit+0x24>)
 80060ba:	e9d3 2123 	ldrd	r2, r1, [r3, #140]	; 0x8c
 80060be:	430a      	orrs	r2, r1
 80060c0:	d104      	bne.n	80060cc <chThdExit+0x1c>
  oip->dbg.lock_cnt = (cnt_t)1;
 80060c2:	2201      	movs	r2, #1
 80060c4:	f8c3 2090 	str.w	r2, [r3, #144]	; 0x90
  chThdExitS(msg);
 80060c8:	f7fd f912 	bl	80032f0 <chThdExitS>
    chSysHalt("SV#4");
 80060cc:	4802      	ldr	r0, [pc, #8]	; (80060d8 <chThdExit+0x28>)
 80060ce:	f7fa fdd7 	bl	8000c80 <chSysHalt>
 80060d2:	bf00      	nop
 80060d4:	20000ec8 	.word	0x20000ec8
 80060d8:	080072f4 	.word	0x080072f4
 80060dc:	00000000 	.word	0x00000000

080060e0 <SVC_Handler>:
  __ASM volatile ("MRS %0, psp"  : "=r" (result) );
 80060e0:	f3ef 8309 	mrs	r3, PSP
  psp += sizeof (struct port_extctx);
 80060e4:	3320      	adds	r3, #32
  __ASM volatile ("MSR psp, %0" : : "r" (topOfProcStack) : );
 80060e6:	f383 8809 	msr	PSP, r3
  __ASM volatile ("MSR basepri, %0" : : "r" (basePri) : "memory");
 80060ea:	2300      	movs	r3, #0
 80060ec:	f383 8811 	msr	BASEPRI, r3
}
 80060f0:	4770      	bx	lr
 80060f2:	bf00      	nop
	...

08006100 <main>:
  rccResetAHB1(~STM32_GPIO_EN_MASK);
 8006100:	4bbc      	ldr	r3, [pc, #752]	; (80063f4 <main+0x2f4>)
  PWR->CR |= PWR_CR_DBP;
 8006102:	48bd      	ldr	r0, [pc, #756]	; (80063f8 <main+0x2f8>)
  rccResetAHB1(~STM32_GPIO_EN_MASK);
 8006104:	691a      	ldr	r2, [r3, #16]
 8006106:	f062 021f 	orn	r2, r2, #31


/*
 * Application entry point.
 */
int main(void) {
 800610a:	b580      	push	{r7, lr}
 800610c:	611a      	str	r2, [r3, #16]
 800610e:	691a      	ldr	r2, [r3, #16]
 8006110:	f002 021f 	and.w	r2, r2, #31
 8006114:	611a      	str	r2, [r3, #16]
  rccResetAHB2(~0);
 8006116:	f04f 34ff 	mov.w	r4, #4294967295	; 0xffffffff
  rccResetAHB1(~STM32_GPIO_EN_MASK);
 800611a:	691a      	ldr	r2, [r3, #16]
  rccResetAHB2(~0);
 800611c:	695a      	ldr	r2, [r3, #20]
 800611e:	615c      	str	r4, [r3, #20]
 8006120:	2100      	movs	r1, #0
 8006122:	695a      	ldr	r2, [r3, #20]
 8006124:	6159      	str	r1, [r3, #20]
 8006126:	695a      	ldr	r2, [r3, #20]
  rccResetAPB1(~RCC_APB1RSTR_PWRRST);
 8006128:	6a1a      	ldr	r2, [r3, #32]
 800612a:	f062 5280 	orn	r2, r2, #268435456	; 0x10000000
 800612e:	621a      	str	r2, [r3, #32]
 8006130:	6a1a      	ldr	r2, [r3, #32]
 8006132:	f002 5280 	and.w	r2, r2, #268435456	; 0x10000000
 8006136:	621a      	str	r2, [r3, #32]
 8006138:	6a1a      	ldr	r2, [r3, #32]
  rccResetAPB2(~0);
 800613a:	6a5a      	ldr	r2, [r3, #36]	; 0x24
 800613c:	625c      	str	r4, [r3, #36]	; 0x24
 800613e:	6a5a      	ldr	r2, [r3, #36]	; 0x24
 8006140:	6259      	str	r1, [r3, #36]	; 0x24
 8006142:	6a5a      	ldr	r2, [r3, #36]	; 0x24
  rccEnablePWRInterface(true);
 8006144:	6c1a      	ldr	r2, [r3, #64]	; 0x40
 8006146:	f042 5280 	orr.w	r2, r2, #268435456	; 0x10000000
 800614a:	641a      	str	r2, [r3, #64]	; 0x40
 800614c:	6e1a      	ldr	r2, [r3, #96]	; 0x60
 800614e:	f042 5280 	orr.w	r2, r2, #268435456	; 0x10000000
 8006152:	661a      	str	r2, [r3, #96]	; 0x60
 8006154:	6e1a      	ldr	r2, [r3, #96]	; 0x60
  PWR->CR |= PWR_CR_DBP;
 8006156:	6802      	ldr	r2, [r0, #0]
 8006158:	f442 7280 	orr.w	r2, r2, #256	; 0x100
 800615c:	6002      	str	r2, [r0, #0]
  if ((RCC->BDCR & STM32_RTCSEL_MASK) != STM32_RTCSEL) {
 800615e:	6f1a      	ldr	r2, [r3, #112]	; 0x70
 8006160:	f402 7240 	and.w	r2, r2, #768	; 0x300
 8006164:	f5b2 7f00 	cmp.w	r2, #512	; 0x200
 8006168:	b08c      	sub	sp, #48	; 0x30
 800616a:	d003      	beq.n	8006174 <main+0x74>
    RCC->BDCR = RCC_BDCR_BDRST;
 800616c:	f44f 3280 	mov.w	r2, #65536	; 0x10000
 8006170:	671a      	str	r2, [r3, #112]	; 0x70
    RCC->BDCR = 0;
 8006172:	6719      	str	r1, [r3, #112]	; 0x70
  PWR->CSR &= ~PWR_CSR_BRE;
 8006174:	4ca0      	ldr	r4, [pc, #640]	; (80063f8 <main+0x2f8>)
#if defined(__CORE_CM0_H_GENERIC) || defined(__CORE_CM0PLUS_H_GENERIC) ||   \
    defined(__CORE_CM23_H_GENERIC)
  NVIC->__IPR[_IP_IDX(n)] = (NVIC->__IPR[_IP_IDX(n)] & ~(0xFFU << _BIT_SHIFT(n))) |
                            (NVIC_PRIORITY_MASK(prio) << _BIT_SHIFT(n));
#else
  NVIC->__IPR[n] = NVIC_PRIORITY_MASK(prio);
 8006176:	4aa1      	ldr	r2, [pc, #644]	; (80063fc <main+0x2fc>)
 8006178:	6861      	ldr	r1, [r4, #4]
 800617a:	4ea1      	ldr	r6, [pc, #644]	; (8006400 <main+0x300>)
 800617c:	2360      	movs	r3, #96	; 0x60
#endif
  NVIC->__ICPR[n >> 5U] = 1U << (n & 0x1FU);
 800617e:	2040      	movs	r0, #64	; 0x40
 8006180:	f421 7100 	bic.w	r1, r1, #512	; 0x200
 8006184:	6061      	str	r1, [r4, #4]
  NVIC->__IPR[n] = NVIC_PRIORITY_MASK(prio);
 8006186:	f882 3306 	strb.w	r3, [r2, #774]	; 0x306
  NVIC->__ICPR[n >> 5U] = 1U << (n & 0x1FU);
 800618a:	2480      	movs	r4, #128	; 0x80
 800618c:	f8c2 0180 	str.w	r0, [r2, #384]	; 0x180
 8006190:	f44f 7100 	mov.w	r1, #512	; 0x200
  NVIC->__ISER[n >> 5U] = 1U << (n & 0x1FU);
 8006194:	6010      	str	r0, [r2, #0]
  NVIC->__ICPR[n >> 5U] = 1U << (n & 0x1FU);
 8006196:	f44f 7080 	mov.w	r0, #256	; 0x100
  NVIC->__IPR[n] = NVIC_PRIORITY_MASK(prio);
 800619a:	f882 3307 	strb.w	r3, [r2, #775]	; 0x307
  NVIC->__ICPR[n >> 5U] = 1U << (n & 0x1FU);
 800619e:	f8c2 4180 	str.w	r4, [r2, #384]	; 0x180
  NVIC->__ISER[n >> 5U] = 1U << (n & 0x1FU);
 80061a2:	6014      	str	r4, [r2, #0]
  NVIC->__IPR[n] = NVIC_PRIORITY_MASK(prio);
 80061a4:	f882 3308 	strb.w	r3, [r2, #776]	; 0x308
  NVIC->__ICPR[n >> 5U] = 1U << (n & 0x1FU);
 80061a8:	f44f 6480 	mov.w	r4, #1024	; 0x400
 80061ac:	f8c2 0180 	str.w	r0, [r2, #384]	; 0x180
  NVIC->__ISER[n >> 5U] = 1U << (n & 0x1FU);
 80061b0:	6010      	str	r0, [r2, #0]
  NVIC->__IPR[n] = NVIC_PRIORITY_MASK(prio);
 80061b2:	f882 3309 	strb.w	r3, [r2, #777]	; 0x309
  NVIC->__ICPR[n >> 5U] = 1U << (n & 0x1FU);
 80061b6:	f8c2 1180 	str.w	r1, [r2, #384]	; 0x180
  NVIC->__ISER[n >> 5U] = 1U << (n & 0x1FU);
 80061ba:	6011      	str	r1, [r2, #0]
  NVIC->__ICPR[n >> 5U] = 1U << (n & 0x1FU);
 80061bc:	f44f 0100 	mov.w	r1, #8388608	; 0x800000
  NVIC->__IPR[n] = NVIC_PRIORITY_MASK(prio);
 80061c0:	f882 330a 	strb.w	r3, [r2, #778]	; 0x30a
  NVIC->__ICPR[n >> 5U] = 1U << (n & 0x1FU);
 80061c4:	f04f 7580 	mov.w	r5, #16777216	; 0x1000000
 80061c8:	f8c2 4180 	str.w	r4, [r2, #384]	; 0x180
  NVIC->__ISER[n >> 5U] = 1U << (n & 0x1FU);
 80061cc:	6014      	str	r4, [r2, #0]
  NVIC->__IPR[n] = NVIC_PRIORITY_MASK(prio);
 80061ce:	f882 3317 	strb.w	r3, [r2, #791]	; 0x317
  NVIC->__ICPR[n >> 5U] = 1U << (n & 0x1FU);
 80061d2:	f8c2 1180 	str.w	r1, [r2, #384]	; 0x180
  NVIC->__ISER[n >> 5U] = 1U << (n & 0x1FU);
 80061d6:	6011      	str	r1, [r2, #0]
  NVIC->__IPR[n] = NVIC_PRIORITY_MASK(prio);
 80061d8:	f882 3328 	strb.w	r3, [r2, #808]	; 0x328
 80061dc:	2170      	movs	r1, #112	; 0x70
  NVIC->__ICPR[n >> 5U] = 1U << (n & 0x1FU);
 80061de:	f04f 7300 	mov.w	r3, #33554432	; 0x2000000
 80061e2:	f8c2 0184 	str.w	r0, [r2, #388]	; 0x184
 80061e6:	f04f 6480 	mov.w	r4, #67108864	; 0x4000000
  NVIC->__ISER[n >> 5U] = 1U << (n & 0x1FU);
 80061ea:	6050      	str	r0, [r2, #4]
  NVIC->__IPR[n] = NVIC_PRIORITY_MASK(prio);
 80061ec:	f882 1318 	strb.w	r1, [r2, #792]	; 0x318
  NVIC->__ICPR[n >> 5U] = 1U << (n & 0x1FU);
 80061f0:	f04f 5080 	mov.w	r0, #268435456	; 0x10000000
 80061f4:	f8c2 5180 	str.w	r5, [r2, #384]	; 0x180
  NVIC->__ISER[n >> 5U] = 1U << (n & 0x1FU);
 80061f8:	6015      	str	r5, [r2, #0]
  NVIC->__IPR[n] = NVIC_PRIORITY_MASK(prio);
 80061fa:	f882 1319 	strb.w	r1, [r2, #793]	; 0x319
  NVIC->__ICPR[n >> 5U] = 1U << (n & 0x1FU);
 80061fe:	f8c2 3180 	str.w	r3, [r2, #384]	; 0x180
  NVIC->__ISER[n >> 5U] = 1U << (n & 0x1FU);
 8006202:	6013      	str	r3, [r2, #0]
  NVIC->__ICPR[n >> 5U] = 1U << (n & 0x1FU);
 8006204:	f04f 6300 	mov.w	r3, #134217728	; 0x8000000
  NVIC->__IPR[n] = NVIC_PRIORITY_MASK(prio);
 8006208:	f882 131a 	strb.w	r1, [r2, #794]	; 0x31a
  NVIC->__ICPR[n >> 5U] = 1U << (n & 0x1FU);
 800620c:	f8c2 4180 	str.w	r4, [r2, #384]	; 0x180
  NVIC->__ISER[n >> 5U] = 1U << (n & 0x1FU);
 8006210:	6014      	str	r4, [r2, #0]
  NVIC->__IPR[n] = NVIC_PRIORITY_MASK(prio);
 8006212:	f882 131b 	strb.w	r1, [r2, #795]	; 0x31b
  NVIC->__ICPR[n >> 5U] = 1U << (n & 0x1FU);
 8006216:	f8c2 3180 	str.w	r3, [r2, #384]	; 0x180
  NVIC->__ISER[n >> 5U] = 1U << (n & 0x1FU);
 800621a:	6013      	str	r3, [r2, #0]
  NVIC->__IPR[n] = NVIC_PRIORITY_MASK(prio);
 800621c:	f882 131c 	strb.w	r1, [r2, #796]	; 0x31c
  NVIC->__ICPR[n >> 5U] = 1U << (n & 0x1FU);
 8006220:	4633      	mov	r3, r6
 8006222:	f8c2 0180 	str.w	r0, [r2, #384]	; 0x180
  NVIC->__ISER[n >> 5U] = 1U << (n & 0x1FU);
 8006226:	f106 0180 	add.w	r1, r6, #128	; 0x80
 800622a:	6010      	str	r0, [r2, #0]
    _pal_init_event(i);
 800622c:	2200      	movs	r2, #0
 800622e:	e9c3 2200 	strd	r2, r2, [r3]
  for (i = 0; i < 16; i++) {
 8006232:	3308      	adds	r3, #8
 8006234:	428b      	cmp	r3, r1
 8006236:	d1fa      	bne.n	800622e <main+0x12e>
 *
 * @init
 */
void icuObjectInit(ICUDriver *icup) {

  icup->state  = ICU_STOP;
 8006238:	4b72      	ldr	r3, [pc, #456]	; (8006404 <main+0x304>)
  usbp->state        = USB_STOP;
 800623a:	f8df 81cc 	ldr.w	r8, [pc, #460]	; 8006408 <main+0x308>
  ICUD1.tim = STM32_TIM1;
 800623e:	4873      	ldr	r0, [pc, #460]	; (800640c <main+0x30c>)
  icup->config = NULL;
 8006240:	605a      	str	r2, [r3, #4]
  icup->state  = ICU_STOP;
 8006242:	2101      	movs	r1, #1
 8006244:	7019      	strb	r1, [r3, #0]
 8006246:	60d8      	str	r0, [r3, #12]
  USBD1.otg       = OTG_FS;
 8006248:	f04f 43a0 	mov.w	r3, #1342177280	; 0x50000000
 800624c:	f8c8 3054 	str.w	r3, [r8, #84]	; 0x54
  USBD1.otgparams = &fsparams;
 8006250:	4b6f      	ldr	r3, [pc, #444]	; (8006410 <main+0x310>)
 8006252:	f8c8 3058 	str.w	r3, [r8, #88]	; 0x58
  ST_ENABLE_CLOCK();
 8006256:	4b67      	ldr	r3, [pc, #412]	; (80063f4 <main+0x2f4>)
 8006258:	f888 1000 	strb.w	r1, [r8]
 800625c:	6c18      	ldr	r0, [r3, #64]	; 0x40
    usbp->in_params[i]  = NULL;
 800625e:	f8c8 201c 	str.w	r2, [r8, #28]
 8006262:	4308      	orrs	r0, r1
  usbp->transmitting = 0;
 8006264:	e9c8 2201 	strd	r2, r2, [r8, #4]
    usbp->out_params[i] = NULL;
 8006268:	f8c8 2028 	str.w	r2, [r8, #40]	; 0x28
    usbp->in_params[i]  = NULL;
 800626c:	f8c8 2020 	str.w	r2, [r8, #32]
    usbp->out_params[i] = NULL;
 8006270:	f8c8 202c 	str.w	r2, [r8, #44]	; 0x2c
    usbp->in_params[i]  = NULL;
 8006274:	f8c8 2024 	str.w	r2, [r8, #36]	; 0x24
    usbp->out_params[i] = NULL;
 8006278:	f8c8 2030 	str.w	r2, [r8, #48]	; 0x30
 800627c:	6418      	str	r0, [r3, #64]	; 0x40
 800627e:	6e18      	ldr	r0, [r3, #96]	; 0x60
  ST_ENABLE_STOP();
 8006280:	4c64      	ldr	r4, [pc, #400]	; (8006414 <main+0x314>)
  ch_system.state = ch_sys_initializing;
 8006282:	4f65      	ldr	r7, [pc, #404]	; (8006418 <main+0x318>)
  ST_ENABLE_CLOCK();
 8006284:	4308      	orrs	r0, r1
 8006286:	6618      	str	r0, [r3, #96]	; 0x60
 8006288:	6e1b      	ldr	r3, [r3, #96]	; 0x60
  ST_ENABLE_STOP();
 800628a:	68a3      	ldr	r3, [r4, #8]
 800628c:	430b      	orrs	r3, r1
 800628e:	60a3      	str	r3, [r4, #8]
  STM32_ST_TIM->PSC    = (ST_CLOCK_SRC / OSAL_ST_FREQUENCY) - 1;
 8006290:	f04f 4380 	mov.w	r3, #1073741824	; 0x40000000
  STM32_ST_TIM->ARR    = ST_ARR_INIT;
 8006294:	f04f 30ff 	mov.w	r0, #4294967295	; 0xffffffff
  STM32_ST_TIM->PSC    = (ST_CLOCK_SRC / OSAL_ST_FREQUENCY) - 1;
 8006298:	f242 04cf 	movw	r4, #8399	; 0x20cf
  time_measurement_t tm;

  /* Time Measurement subsystem calibration, it does a null measurement
     and calculates the call overhead which is subtracted to real
     measurements.*/
  tcp->offset = (rtcnt_t)0;
 800629c:	60ba      	str	r2, [r7, #8]
 800629e:	629c      	str	r4, [r3, #40]	; 0x28
  STM32_ST_TIM->ARR    = ST_ARR_INIT;
 80062a0:	62d8      	str	r0, [r3, #44]	; 0x2c
  STM32_ST_TIM->CCMR1  = 0;
 80062a2:	619a      	str	r2, [r3, #24]
  STM32_ST_TIM->CCR[0] = 0;
 80062a4:	635a      	str	r2, [r3, #52]	; 0x34
  STM32_ST_TIM->DIER   = 0;
 80062a6:	60da      	str	r2, [r3, #12]
  STM32_ST_TIM->CR2    = 0;
 80062a8:	605a      	str	r2, [r3, #4]
  STM32_ST_TIM->EGR    = TIM_EGR_UG;
 80062aa:	6159      	str	r1, [r3, #20]
  STM32_ST_TIM->CR1    = TIM_CR1_CEN;
 80062ac:	6019      	str	r1, [r3, #0]
 80062ae:	7039      	strb	r1, [r7, #0]
  tmp->cumulative = (rttime_t)0;
 80062b0:	2300      	movs	r3, #0
  tmp->worst      = (rtcnt_t)0;
 80062b2:	e9cd 0206 	strd	r0, r2, [sp, #24]
  tmp->n          = (ucnt_t)0;
 80062b6:	e9cd 2208 	strd	r2, r2, [sp, #32]
  tmp->cumulative = (rttime_t)0;
 80062ba:	2200      	movs	r2, #0
 80062bc:	e9cd 230a 	strd	r2, r3, [sp, #40]	; 0x28
}
 80062c0:	2404      	movs	r4, #4
  chTMObjectInit(&tm);
  i = TM_CALIBRATION_LOOP;
  do {
    chTMStartMeasurementX(&tm);
 80062c2:	a806      	add	r0, sp, #24
 80062c4:	f7fa fba4 	bl	8000a10 <chTMStartMeasurementX>
    chTMStopMeasurementX(&tm);
 80062c8:	f7fa fbaa 	bl	8000a20 <chTMStopMeasurementX>
    i--;
  } while (i > 0U);
 80062cc:	3c01      	subs	r4, #1
 80062ce:	d1f8      	bne.n	80062c2 <main+0x1c2>
  ch_memcore.basemem = __heap_base__;
 80062d0:	4952      	ldr	r1, [pc, #328]	; (800641c <main+0x31c>)
  ch_memcore.topmem  = __heap_end__;
 80062d2:	4a53      	ldr	r2, [pc, #332]	; (8006420 <main+0x320>)
  ch_memcore.basemem = __heap_base__;
 80062d4:	4853      	ldr	r0, [pc, #332]	; (8006424 <main+0x324>)
  default_heap.provider = chCoreAllocAlignedWithOffset;
 80062d6:	f8df 9150 	ldr.w	r9, [pc, #336]	; 8006428 <main+0x328>
  qp->next = qp;
 80062da:	4b54      	ldr	r3, [pc, #336]	; (800642c <main+0x32c>)
  core_id = port_get_core_id();
#else
  core_id = 0U;
#endif
  chDbgAssert(ch_system.instances[core_id] == NULL, "instance already registered");
  ch_system.instances[core_id] = oip;
 80062dc:	4d54      	ldr	r5, [pc, #336]	; (8006430 <main+0x330>)
  mp->owner = NULL;
 80062de:	609c      	str	r4, [r3, #8]
  ch_memcore.topmem  = __heap_end__;
 80062e0:	e9c0 1200 	strd	r1, r2, [r0]
 */
void chCoreGetStatusX(memory_area_t *map) {

  map->base = ch_memcore.basemem;
  /*lint -save -e9033 [10.8] The cast is safe.*/
  map->size = (size_t)(ch_memcore.topmem - ch_memcore.basemem);
 80062e4:	1a52      	subs	r2, r2, r1
 80062e6:	f8c9 2008 	str.w	r2, [r9, #8]
  mp->provider = provider;
 80062ea:	4a52      	ldr	r2, [pc, #328]	; (8006434 <main+0x334>)
 80062ec:	621a      	str	r2, [r3, #32]
 80062ee:	639a      	str	r2, [r3, #56]	; 0x38
 80062f0:	f109 0214 	add.w	r2, r9, #20
  qp->prev = qp;
 80062f4:	e9c9 2205 	strd	r2, r2, [r9, #20]
  mp->align = align;
 80062f8:	2204      	movs	r2, #4
 80062fa:	61da      	str	r2, [r3, #28]
 80062fc:	635a      	str	r2, [r3, #52]	; 0x34
  tcp->offset = tm.best;
 80062fe:	9a06      	ldr	r2, [sp, #24]
 8006300:	60ba      	str	r2, [r7, #8]
 8006302:	4a4d      	ldr	r2, [pc, #308]	; (8006438 <main+0x338>)
 8006304:	f8c9 2000 	str.w	r2, [r9]

  /* Core associated to this instance.*/
  oip->core_id = core_id;

  /* Keeping a reference to the configuration data.*/
  oip->config = oicp;
 8006308:	4a4c      	ldr	r2, [pc, #304]	; (800643c <main+0x33c>)
 800630a:	63aa      	str	r2, [r5, #56]	; 0x38
  } while ((c != (char)0) && (i > 0U));
}

static inline void dyn_list_init(dyn_list_t *dlp) {

  dlp->next = (dyn_element_t *)dlp;
 800630c:	f103 0210 	add.w	r2, r3, #16
 8006310:	611a      	str	r2, [r3, #16]
  mp->object_size = size;
 8006312:	2214      	movs	r2, #20
 8006314:	619a      	str	r2, [r3, #24]
 8006316:	f103 0224 	add.w	r2, r3, #36	; 0x24
 800631a:	625a      	str	r2, [r3, #36]	; 0x24
 800631c:	f103 0228 	add.w	r2, r3, #40	; 0x28
 8006320:	629a      	str	r2, [r3, #40]	; 0x28
 8006322:	221c      	movs	r2, #28
 8006324:	631a      	str	r2, [r3, #48]	; 0x30
 8006326:	f103 023c 	add.w	r2, r3, #60	; 0x3c
 800632a:	63da      	str	r2, [r3, #60]	; 0x3c
 800632c:	f103 0240 	add.w	r2, r3, #64	; 0x40
 8006330:	641a      	str	r2, [r3, #64]	; 0x40
 8006332:	f103 0244 	add.w	r2, r3, #68	; 0x44
 8006336:	e9c3 3300 	strd	r3, r3, [r3]
  mp->next = NULL;
 800633a:	615c      	str	r4, [r3, #20]
 800633c:	62dc      	str	r4, [r3, #44]	; 0x2c
  H_FREE_PAGES(&default_heap.header) = 0;
 800633e:	e9c9 4403 	strd	r4, r4, [r9, #12]
 8006342:	f8c9 401c 	str.w	r4, [r9, #28]
  map->base = ch_memcore.basemem;
 8006346:	f8c9 1004 	str.w	r1, [r9, #4]
  ch_system.instances[core_id] = oip;
 800634a:	607d      	str	r5, [r7, #4]
  oip->core_id = core_id;
 800634c:	632c      	str	r4, [r5, #48]	; 0x30
 800634e:	645a      	str	r2, [r3, #68]	; 0x44
 8006350:	2030      	movs	r0, #48	; 0x30
 8006352:	f380 8811 	msr	BASEPRI, r0
  __ASM volatile ("cpsie i" : : : "memory");
 8006356:	b662      	cpsie	i
  pqp->prio = (tprio_t)0;
 8006358:	e9c5 5401 	strd	r5, r4, [r5, #4]
__STATIC_INLINE void __NVIC_SetPriorityGrouping(uint32_t PriorityGroup)
{
  uint32_t reg_value;
  uint32_t PriorityGroupTmp = (PriorityGroup & (uint32_t)0x07UL);             /* only values 0..7 are used          */

  reg_value  =  SCB->AIRCR;                                                   /* read old register configuration    */
 800635c:	4b38      	ldr	r3, [pc, #224]	; (8006440 <main+0x340>)
 *
 * @notapi
 */
static inline void __rfcu_object_init(rfcu_t *rfcup) {

  rfcup->mask = (rfcu_mask_t)0;
 800635e:	636c      	str	r4, [r5, #52]	; 0x34

  ch_dlist_init(&vtlp->dlist);
#if CH_CFG_ST_TIMEDELTA == 0
  vtlp->systime = (systime_t)0;
#else /* CH_CFG_ST_TIMEDELTA > 0 */
  vtlp->lasttime = (systime_t)0;
 8006360:	61ec      	str	r4, [r5, #28]

  sdp->panic_msg = NULL;

#if CH_DBG_SYSTEM_STATE_CHECK == TRUE
  /* The initial state is assumed to be within a critical zone.*/
  sdp->isr_cnt  = (cnt_t)0;
 8006362:	f8c5 408c 	str.w	r4, [r5, #140]	; 0x8c
 8006366:	68d9      	ldr	r1, [r3, #12]
  reg_value &= ~((uint32_t)(SCB_AIRCR_VECTKEY_Msk | SCB_AIRCR_PRIGROUP_Msk)); /* clear bits to change               */
  reg_value  =  (reg_value                                   |
 8006368:	4a36      	ldr	r2, [pc, #216]	; (8006444 <main+0x344>)
  reg_value &= ~((uint32_t)(SCB_AIRCR_VECTKEY_Msk | SCB_AIRCR_PRIGROUP_Msk)); /* clear bits to change               */
 800636a:	f64f 0cff 	movw	ip, #63743	; 0xf8ff
 800636e:	ea01 010c 	and.w	r1, r1, ip
  reg_value  =  (reg_value                                   |
 8006372:	430a      	orrs	r2, r1
                ((uint32_t)0x5FAUL << SCB_AIRCR_VECTKEY_Pos) |
                (PriorityGroupTmp << SCB_AIRCR_PRIGROUP_Pos)  );              /* Insert write key and priority group */
  SCB->AIRCR =  reg_value;
 8006374:	60da      	str	r2, [r3, #12]
  CoreDebug->DEMCR |= CoreDebug_DEMCR_TRCENA_Msk;
 8006376:	f8d3 20fc 	ldr.w	r2, [r3, #252]	; 0xfc
  DWT->CTRL |= DWT_CTRL_CYCCNTENA_Msk;
 800637a:	4933      	ldr	r1, [pc, #204]	; (8006448 <main+0x348>)
  CoreDebug->DEMCR |= CoreDebug_DEMCR_TRCENA_Msk;
 800637c:	f042 7280 	orr.w	r2, r2, #16777216	; 0x1000000
 8006380:	f8c3 20fc 	str.w	r2, [r3, #252]	; 0xfc
  DWT->CTRL |= DWT_CTRL_CYCCNTENA_Msk;
 8006384:	680a      	ldr	r2, [r1, #0]
  {
    NVIC->IP[((uint32_t)IRQn)]               = (uint8_t)((priority << (8U - __NVIC_PRIO_BITS)) & (uint32_t)0xFFUL);
  }
  else
  {
    SCB->SHP[(((uint32_t)IRQn) & 0xFUL)-4UL] = (uint8_t)((priority << (8U - __NVIC_PRIO_BITS)) & (uint32_t)0xFFUL);
 8006386:	f04f 0c20 	mov.w	ip, #32
 800638a:	f042 0201 	orr.w	r2, r2, #1
 800638e:	600a      	str	r2, [r1, #0]
 8006390:	f883 c01f 	strb.w	ip, [r3, #31]
 8006394:	f883 0022 	strb.w	r0, [r3, #34]	; 0x22
 8006398:	f04f 4380 	mov.w	r3, #1073741824	; 0x40000000
  pqp->next = pqp;
 800639c:	602d      	str	r5, [r5, #0]
 800639e:	6a59      	ldr	r1, [r3, #36]	; 0x24
  dlhp->next  = dlhp;
 80063a0:	f105 0310 	add.w	r3, r5, #16
  dlhp->prev  = dlhp;
 80063a4:	e9c5 3304 	strd	r3, r3, [r5, #16]
  tbp->suspended = (uint16_t)~CH_DBG_TRACE_MASK;
 80063a8:	4b28      	ldr	r3, [pc, #160]	; (800644c <main+0x34c>)
 80063aa:	f8c5 3094 	str.w	r3, [r5, #148]	; 0x94
  dlhp->delta = (sysinterval_t)-1;
 80063ae:	f04f 33ff 	mov.w	r3, #4294967295	; 0xffffffff
 80063b2:	61ab      	str	r3, [r5, #24]
  sdp->lock_cnt = (cnt_t)1;
 80063b4:	2301      	movs	r3, #1
 80063b6:	f8c5 3090 	str.w	r3, [r5, #144]	; 0x90
  tbp->ptr       = &tbp->buffer[0];
 80063ba:	f105 039c 	add.w	r3, r5, #156	; 0x9c
 80063be:	f8c5 3098 	str.w	r3, [r5, #152]	; 0x98
#endif /* CH_CFG_ST_TIMEDELTA > 0 */
#if CH_CFG_USE_TIMESTAMP == TRUE
  vtlp->laststamp = (systimestamp_t)chVTGetSystemTimeX();
 80063c2:	460a      	mov	r2, r1
 80063c4:	4623      	mov	r3, r4
 80063c6:	e9c5 2308 	strd	r2, r3, [r5, #32]
  sdp->panic_msg = NULL;
 80063ca:	f8c5 4088 	str.w	r4, [r5, #136]	; 0x88
    tbp->buffer[i].type = CH_TRACE_TYPE_UNUSED;
 80063ce:	eb05 1304 	add.w	r3, r5, r4, lsl #4
  for (i = 0U; i < (unsigned)CH_DBG_TRACE_BUFFER_SIZE; i++) {
 80063d2:	3401      	adds	r4, #1
    tbp->buffer[i].type = CH_TRACE_TYPE_UNUSED;
 80063d4:	f893 209c 	ldrb.w	r2, [r3, #156]	; 0x9c
  for (i = 0U; i < (unsigned)CH_DBG_TRACE_BUFFER_SIZE; i++) {
 80063d8:	2c80      	cmp	r4, #128	; 0x80
    tbp->buffer[i].type = CH_TRACE_TYPE_UNUSED;
 80063da:	f36f 0202 	bfc	r2, #0, #3
 80063de:	f883 209c 	strb.w	r2, [r3, #156]	; 0x9c
  for (i = 0U; i < (unsigned)CH_DBG_TRACE_BUFFER_SIZE; i++) {
 80063e2:	d1f4      	bne.n	80063ce <main+0x2ce>
  p->next       = qp;
 80063e4:	4b1a      	ldr	r3, [pc, #104]	; (8006450 <main+0x350>)
  /* User instance initialization hook.*/
  CH_CFG_OS_INSTANCE_INIT_HOOK(oip);

#if CH_CFG_NO_IDLE_THREAD == FALSE
  {
    thread_descriptor_t idle_descriptor = {
 80063e6:	481b      	ldr	r0, [pc, #108]	; (8006454 <main+0x354>)
  tp->hdr.pqueue.prio   = prio;
 80063e8:	646c      	str	r4, [r5, #68]	; 0x44
  tp->mtxlist           = NULL;
 80063ea:	2200      	movs	r2, #0
  tp->epending          = (eventmask_t)0;
 80063ec:	e9c5 221e 	strd	r2, r2, [r5, #120]	; 0x78
 80063f0:	e032      	b.n	8006458 <main+0x358>
 80063f2:	bf00      	nop
 80063f4:	40023800 	.word	0x40023800
 80063f8:	40007000 	.word	0x40007000
 80063fc:	e000e100 	.word	0xe000e100
 8006400:	20000e40 	.word	0x20000e40
 8006404:	20000938 	.word	0x20000938
 8006408:	20000de0 	.word	0x20000de0
 800640c:	40010000 	.word	0x40010000
 8006410:	08008254 	.word	0x08008254
 8006414:	e0042000 	.word	0xe0042000
 8006418:	200018e8 	.word	0x200018e8
 800641c:	20002188 	.word	0x20002188
 8006420:	20010000 	.word	0x20010000
 8006424:	200018e0 	.word	0x200018e0
 8006428:	20001908 	.word	0x20001908
 800642c:	20001898 	.word	0x20001898
 8006430:	20000ec8 	.word	0x20000ec8
 8006434:	08001401 	.word	0x08001401
 8006438:	08001371 	.word	0x08001371
 800643c:	080080f8 	.word	0x080080f8
 8006440:	e000ed00 	.word	0xe000ed00
 8006444:	05fa0300 	.word	0x05fa0300
 8006448:	e0001000 	.word	0xe0001000
 800644c:	0080ffe0 	.word	0x0080ffe0
 8006450:	20000ef0 	.word	0x20000ef0
 8006454:	20001768 	.word	0x20001768
 8006458:	920b      	str	r2, [sp, #44]	; 0x2c
  p->prev->next = p;
 800645a:	f103 0224 	add.w	r2, r3, #36	; 0x24
  qp->prev      = p;
 800645e:	e9c5 220a 	strd	r2, r2, [r5, #40]	; 0x28
  qp->next = qp;
 8006462:	f103 0248 	add.w	r2, r3, #72	; 0x48
  qp->prev = qp;
 8006466:	e9c5 221c 	strd	r2, r2, [r5, #112]	; 0x70
  oip->rlist.current->state = CH_STATE_CURRENT;
 800646a:	2201      	movs	r2, #1
  p->prev       = qp->prev;
 800646c:	e9c5 3313 	strd	r3, r3, [r5, #76]	; 0x4c
 8006470:	f8a5 2064 	strh.w	r2, [r5, #100]	; 0x64
  tp->refs              = (trefs_t)1;
 8006474:	f885 2066 	strb.w	r2, [r5, #102]	; 0x66
    thread_descriptor_t idle_descriptor = {
 8006478:	9209      	str	r2, [sp, #36]	; 0x24
  lp->next = lp;
 800647a:	f103 0244 	add.w	r2, r3, #68	; 0x44
  oip->rlist.current = __thd_object_init(oip, &oip->mainthread,
 800647e:	3314      	adds	r3, #20
 8006480:	60eb      	str	r3, [r5, #12]
    thread_descriptor_t idle_descriptor = {
 8006482:	f500 7398 	add.w	r3, r0, #304	; 0x130
 8006486:	9308      	str	r3, [sp, #32]
  tp->name              = name;
 8006488:	4ba9      	ldr	r3, [pc, #676]	; (8006730 <main+0x630>)
 800648a:	65ab      	str	r3, [r5, #88]	; 0x58
  oip->rlist.current->wabase = oicp->mainthread_base;
 800648c:	4ba9      	ldr	r3, [pc, #676]	; (8006734 <main+0x634>)
 800648e:	65eb      	str	r3, [r5, #92]	; 0x5c
  oip->rlist.current->waend  = oicp->mainthread_end;
 8006490:	4ba9      	ldr	r3, [pc, #676]	; (8006738 <main+0x638>)
 8006492:	662b      	str	r3, [r5, #96]	; 0x60
    thread_descriptor_t idle_descriptor = {
 8006494:	4ba9      	ldr	r3, [pc, #676]	; (800673c <main+0x63c>)
 8006496:	66ea      	str	r2, [r5, #108]	; 0x6c
    *startp++ = CH_DBG_STACK_FILL_VALUE;
 8006498:	2155      	movs	r1, #85	; 0x55
 800649a:	f44f 7298 	mov.w	r2, #304	; 0x130
 800649e:	9306      	str	r3, [sp, #24]
  tp->realprio          = prio;
 80064a0:	f8c5 4080 	str.w	r4, [r5, #128]	; 0x80
 80064a4:	4ba6      	ldr	r3, [pc, #664]	; (8006740 <main+0x640>)
  tp->owner             = oip;
 80064a6:	656d      	str	r5, [r5, #84]	; 0x54
 80064a8:	930a      	str	r3, [sp, #40]	; 0x28
 80064aa:	9007      	str	r0, [sp, #28]
    *startp++ = CH_DBG_STACK_FILL_VALUE;
 80064ac:	f000 fbd0 	bl	8006c50 <memset>
  return chSchReadyI(chThdCreateSuspendedI(tdp));
 80064b0:	a806      	add	r0, sp, #24
 80064b2:	f7fa fef5 	bl	80012a0 <chThdCreateSuspendedI>
  if (unlikely((oip->dbg.isr_cnt < (cnt_t)0) ||
 80064b6:	f8d5 208c 	ldr.w	r2, [r5, #140]	; 0x8c
 80064ba:	2a00      	cmp	r2, #0
 80064bc:	f2c0 8132 	blt.w	8006724 <main+0x624>
 80064c0:	f8d5 2090 	ldr.w	r2, [r5, #144]	; 0x90
 80064c4:	2a00      	cmp	r2, #0
 80064c6:	f340 812d 	ble.w	8006724 <main+0x624>
  chDbgCheck(tp != NULL);
 80064ca:	2800      	cmp	r0, #0
 80064cc:	f000 812d 	beq.w	800672a <main+0x62a>
  return __sch_ready_behind(tp);
 80064d0:	f7fb face 	bl	8001a70 <__sch_ready_behind.isra.0>
  ch_system.state = ch_sys_running;
 80064d4:	2302      	movs	r3, #2
 80064d6:	703b      	strb	r3, [r7, #0]
  __dbg_check_unlock();
 80064d8:	f7fe f8b2 	bl	8004640 <__dbg_check_unlock>
  chDbgAssert((currcore->rlist.pqueue.next == &currcore->rlist.pqueue) ||
 80064dc:	682b      	ldr	r3, [r5, #0]
 80064de:	42ab      	cmp	r3, r5
 80064e0:	f040 81ca 	bne.w	8006878 <main+0x778>
  __ASM volatile ("MSR basepri, %0" : : "r" (basePri) : "memory");
 80064e4:	2700      	movs	r7, #0
 80064e6:	f387 8811 	msr	BASEPRI, r7
   *   RTOS is active.
   */
  halInit();
  chSysInit();

  palSetLineMode(LED, PAL_MODE_OUTPUT_PUSHPULL);
 80064ea:	4896      	ldr	r0, [pc, #600]	; (8006744 <main+0x644>)
 80064ec:	2201      	movs	r2, #1
 80064ee:	f44f 5100 	mov.w	r1, #8192	; 0x2000
 80064f2:	f7fa f99d 	bl	8000830 <_pal_lld_setgroupmode>
  palSetLineMode(DEBUG1, PAL_MODE_OUTPUT_PUSHPULL);
 80064f6:	f5a0 6080 	sub.w	r0, r0, #1024	; 0x400
 80064fa:	2201      	movs	r2, #1
 80064fc:	f44f 7180 	mov.w	r1, #256	; 0x100
 8006500:	f7fa f996 	bl	8000830 <_pal_lld_setgroupmode>
  palSetLineMode(DEBUG2, PAL_MODE_OUTPUT_PUSHPULL);
 8006504:	2201      	movs	r2, #1
 8006506:	f44f 7100 	mov.w	r1, #512	; 0x200
 800650a:	f7fa f991 	bl	8000830 <_pal_lld_setgroupmode>
  palSetLineMode(EXTBTN, PAL_MODE_INPUT_PULLUP); // Button
 800650e:	f5a0 6080 	sub.w	r0, r0, #1024	; 0x400
 8006512:	2220      	movs	r2, #32
 8006514:	2101      	movs	r1, #1
 8006516:	f7fa f98b 	bl	8000830 <_pal_lld_setgroupmode>
 800651a:	f04f 0a30 	mov.w	sl, #48	; 0x30
 800651e:	f38a 8811 	msr	BASEPRI, sl
  __dbg_check_lock();
 8006522:	f7fe f875 	bl	8004610 <__dbg_check_lock>
  /* Enabling the event and associating the callback. */
  palEnableLineEvent(EXTBTN, PAL_EVENT_MODE_FALLING_EDGE);
 8006526:	2002      	movs	r0, #2
 8006528:	f7fb f912 	bl	8001750 <_pal_lld_enablepadevent.constprop.0>
  chSysUnlock();
 800652c:	f7fe f8a0 	bl	8004670 <chSysUnlock.lto_priv.12>
 8006530:	f38a 8811 	msr	BASEPRI, sl
 8006534:	f7fe f86c 	bl	8004610 <__dbg_check_lock>
  sdup->vmt = &vmt;
 8006538:	4c83      	ldr	r4, [pc, #524]	; (8006748 <main+0x648>)
  pep->cb = cb;
 800653a:	4b84      	ldr	r3, [pc, #528]	; (800674c <main+0x64c>)
  pep->arg = arg;
 800653c:	6077      	str	r7, [r6, #4]
  pep->cb = cb;
 800653e:	6033      	str	r3, [r6, #0]
 8006540:	f7fe f896 	bl	8004670 <chSysUnlock.lto_priv.12>
 8006544:	4623      	mov	r3, r4
 8006546:	4a82      	ldr	r2, [pc, #520]	; (8006750 <main+0x650>)
 8006548:	f843 2b04 	str.w	r2, [r3], #4
  esp->next = (event_listener_t *)esp;
 800654c:	6063      	str	r3, [r4, #4]
  ibqp->btop      = bp + ((size + sizeof (size_t)) * n);
 800654e:	f504 7321 	add.w	r3, r4, #644	; 0x284
  obqp->bwrptr    = bp;
 8006552:	e9c4 3315 	strd	r3, r3, [r4, #84]	; 0x54
  ibqp->btop      = bp + ((size + sizeof (size_t)) * n);
 8006556:	6263      	str	r3, [r4, #36]	; 0x24
  obqp->buffers   = bp;
 8006558:	66a3      	str	r3, [r4, #104]	; 0x68
  sdup->state = SDU_STOP;
 800655a:	2301      	movs	r3, #1
 800655c:	7223      	strb	r3, [r4, #8]
  ibqp->suspended = suspended;
 800655e:	7523      	strb	r3, [r4, #20]
  obqp->suspended = suspended;
 8006560:	f884 304c 	strb.w	r3, [r4, #76]	; 0x4c
  ibqp->brdptr    = bp;
 8006564:	f104 037c 	add.w	r3, r4, #124	; 0x7c
  ibqp->bwrptr    = bp;
 8006568:	e9c4 3307 	strd	r3, r3, [r4, #28]
  ibqp->buffers   = bp;
 800656c:	6323      	str	r3, [r4, #48]	; 0x30
  qp->next = qp;
 800656e:	f104 030c 	add.w	r3, r4, #12
  qp->prev = qp;
 8006572:	e9c4 3303 	strd	r3, r3, [r4, #12]
  ibqp->bsize     = size + sizeof (size_t);
 8006576:	f44f 7382 	mov.w	r3, #260	; 0x104
 800657a:	62a3      	str	r3, [r4, #40]	; 0x28
  obqp->bsize     = size + sizeof (size_t);
 800657c:	6623      	str	r3, [r4, #96]	; 0x60
  qp->next = qp;
 800657e:	f104 0344 	add.w	r3, r4, #68	; 0x44
  qp->prev = qp;
 8006582:	e9c4 3311 	strd	r3, r3, [r4, #68]	; 0x44
  ibqp->notify    = infy;
 8006586:	4b73      	ldr	r3, [pc, #460]	; (8006754 <main+0x654>)
 8006588:	63e3      	str	r3, [r4, #60]	; 0x3c
  obqp->notify    = onfy;
 800658a:	4b73      	ldr	r3, [pc, #460]	; (8006758 <main+0x658>)
 800658c:	6763      	str	r3, [r4, #116]	; 0x74
  ibqp->bn        = n;
 800658e:	2602      	movs	r6, #2
  obqp->btop      = bp + ((size + sizeof (size_t)) * n);
 8006590:	f204 438c 	addw	r3, r4, #1164	; 0x48c
  ibqp->bcounter  = 0;
 8006594:	61a7      	str	r7, [r4, #24]
  ibqp->top       = NULL;
 8006596:	e9c4 770d 	strd	r7, r7, [r4, #52]	; 0x34
  obqp->top       = NULL;
 800659a:	e9c4 771b 	strd	r7, r7, [r4, #108]	; 0x6c
  ibqp->link      = link;
 800659e:	6424      	str	r4, [r4, #64]	; 0x40
  obqp->link      = link;
 80065a0:	67a4      	str	r4, [r4, #120]	; 0x78
  ibqp->bn        = n;
 80065a2:	62e6      	str	r6, [r4, #44]	; 0x2c
  obqp->bcounter  = n;
 80065a4:	6526      	str	r6, [r4, #80]	; 0x50
  obqp->bn        = n;
 80065a6:	6666      	str	r6, [r4, #100]	; 0x64
  obqp->btop      = bp + ((size + sizeof (size_t)) * n);
 80065a8:	65e3      	str	r3, [r4, #92]	; 0x5c
 80065aa:	f38a 8811 	msr	BASEPRI, sl
 80065ae:	f7fe f82f 	bl	8004610 <__dbg_check_lock>
  osalDbgAssert((sdup->state == SDU_STOP) || (sdup->state == SDU_READY),
 80065b2:	7a23      	ldrb	r3, [r4, #8]
 80065b4:	3b01      	subs	r3, #1
 80065b6:	2b01      	cmp	r3, #1
 80065b8:	f200 8175 	bhi.w	80068a6 <main+0x7a6>
  sdup->config = config;
 80065bc:	4b67      	ldr	r3, [pc, #412]	; (800675c <main+0x65c>)
  usbp->in_params[config->bulk_in - 1U]   = sdup;
 80065be:	f8c8 4020 	str.w	r4, [r8, #32]
  usbp->out_params[config->bulk_out - 1U] = sdup;
 80065c2:	f8c8 402c 	str.w	r4, [r8, #44]	; 0x2c
    usbp->in_params[config->int_in - 1U]  = sdup;
 80065c6:	f8c8 401c 	str.w	r4, [r8, #28]
  sdup->config = config;
 80065ca:	f8c4 348c 	str.w	r3, [r4, #1164]	; 0x48c
  sdup->state = SDU_READY;
 80065ce:	7226      	strb	r6, [r4, #8]
  __dbg_check_unlock();
 80065d0:	f7fe f836 	bl	8004640 <__dbg_check_unlock>
  chDbgAssert((currcore->rlist.pqueue.next == &currcore->rlist.pqueue) ||
 80065d4:	682b      	ldr	r3, [r5, #0]
 80065d6:	42ab      	cmp	r3, r5
 80065d8:	f040 8168 	bne.w	80068ac <main+0x7ac>
 80065dc:	2600      	movs	r6, #0
 80065de:	f386 8811 	msr	BASEPRI, r6
  palSetLineCallback(EXTBTN, button_cb, NULL);

  sduObjectInit(&SHELLPORT);
  sduStart(&SHELLPORT, &serusbcfg1);

  usbDisconnectBus(serusbcfg1.usbp);
 80065e2:	f8d8 2054 	ldr.w	r2, [r8, #84]	; 0x54
 80065e6:	6b93      	ldr	r3, [r2, #56]	; 0x38
 80065e8:	f423 2300 	bic.w	r3, r3, #524288	; 0x80000
 80065ec:	6393      	str	r3, [r2, #56]	; 0x38
  chThdSleepMilliseconds(1500);
 80065ee:	f643 2098 	movw	r0, #15000	; 0x3a98
 80065f2:	f7fc fd85 	bl	8003100 <chThdSleep>
 80065f6:	2330      	movs	r3, #48	; 0x30
 80065f8:	f383 8811 	msr	BASEPRI, r3
  __dbg_check_lock();
 80065fc:	f7fe f808 	bl	8004610 <__dbg_check_lock>
  osalDbgAssert((usbp->state == USB_STOP) || (usbp->state == USB_READY),
 8006600:	f898 3000 	ldrb.w	r3, [r8]
 8006604:	1e5a      	subs	r2, r3, #1
 8006606:	2a01      	cmp	r2, #1
 8006608:	f200 8159 	bhi.w	80068be <main+0x7be>
  usbp->config = config;
 800660c:	4a54      	ldr	r2, [pc, #336]	; (8006760 <main+0x660>)
 800660e:	f8c8 2004 	str.w	r2, [r8, #4]
  if (usbp->state == USB_STOP) {
 8006612:	2b01      	cmp	r3, #1
    usbp->epc[i] = NULL;
 8006614:	e9c8 6603 	strd	r6, r6, [r8, #12]
 8006618:	e9c8 6605 	strd	r6, r6, [r8, #20]
 800661c:	f000 80b6 	beq.w	800678c <main+0x68c>
    usbp->state = USB_READY;
 8006620:	2302      	movs	r3, #2
 8006622:	f888 3000 	strb.w	r3, [r8]
  __dbg_check_unlock();
 8006626:	f7fe f80b 	bl	8004640 <__dbg_check_unlock>
  chDbgAssert((currcore->rlist.pqueue.next == &currcore->rlist.pqueue) ||
 800662a:	682b      	ldr	r3, [r5, #0]
 800662c:	42ab      	cmp	r3, r5
 800662e:	f040 8149 	bne.w	80068c4 <main+0x7c4>
 8006632:	f04f 0a00 	mov.w	sl, #0
 8006636:	f38a 8811 	msr	BASEPRI, sl
  usbStart(serusbcfg1.usbp, &usbcfg);
  usbConnectBus(serusbcfg1.usbp);
 800663a:	f8d8 2054 	ldr.w	r2, [r8, #84]	; 0x54
 800663e:	4e49      	ldr	r6, [pc, #292]	; (8006764 <main+0x664>)
 8006640:	6b93      	ldr	r3, [r2, #56]	; 0x38
 8006642:	6036      	str	r6, [r6, #0]
 8006644:	f443 2300 	orr.w	r3, r3, #524288	; 0x80000
 8006648:	6393      	str	r3, [r2, #56]	; 0x38
 800664a:	2330      	movs	r3, #48	; 0x30
 800664c:	f383 8811 	msr	BASEPRI, r3
  __dbg_check_lock();
 8006650:	f7fd ffde 	bl	8004610 <__dbg_check_lock>
 8006654:	f8d5 308c 	ldr.w	r3, [r5, #140]	; 0x8c
  return __sch_get_currthread();
 8006658:	68ef      	ldr	r7, [r5, #12]
 800665a:	4553      	cmp	r3, sl
 800665c:	db62      	blt.n	8006724 <main+0x624>
 800665e:	f8d5 3090 	ldr.w	r3, [r5, #144]	; 0x90
 8006662:	4553      	cmp	r3, sl
 8006664:	dd5e      	ble.n	8006724 <main+0x624>
  elp->next     = esp->next;
 8006666:	6833      	ldr	r3, [r6, #0]
 8006668:	9301      	str	r3, [sp, #4]
  esp->next     = elp;
 800666a:	ab01      	add	r3, sp, #4
 800666c:	6033      	str	r3, [r6, #0]
  elp->events   = events;
 800666e:	2301      	movs	r3, #1
 8006670:	9303      	str	r3, [sp, #12]
  elp->wflags   = wflags;
 8006672:	f04f 33ff 	mov.w	r3, #4294967295	; 0xffffffff
 8006676:	9305      	str	r3, [sp, #20]
  elp->flags    = (eventflags_t)0;
 8006678:	f8cd a010 	str.w	sl, [sp, #16]
  elp->listener = currtp;
 800667c:	9702      	str	r7, [sp, #8]
  __dbg_check_unlock();
 800667e:	f7fd ffdf 	bl	8004640 <__dbg_check_unlock>
  chDbgAssert((currcore->rlist.pqueue.next == &currcore->rlist.pqueue) ||
 8006682:	682b      	ldr	r3, [r5, #0]
 8006684:	42ab      	cmp	r3, r5
 8006686:	f040 812e 	bne.w	80068e6 <main+0x7e6>
 800668a:	2600      	movs	r6, #0
 800668c:	f386 8811 	msr	BASEPRI, r6
   * Shell manager initialization.
   * Event zero is shell exit.
   */
  shellInit();
  chEvtRegister(&shell_terminated, &shell_el, 0);
  chThdCreateStatic(waThread1, sizeof(waThread1), NORMALPRIO, Thread1, NULL);
 8006690:	4935      	ldr	r1, [pc, #212]	; (8006768 <main+0x668>)
 8006692:	4836      	ldr	r0, [pc, #216]	; (800676c <main+0x66c>)
  chMtxLockS(mp);
 8006694:	f8df 80d8 	ldr.w	r8, [pc, #216]	; 8006770 <main+0x670>
 8006698:	f7ff fb2a 	bl	8005cf0 <chThdCreateStatic.constprop.0.isra.0>
  init_GPIB();
  chThdCreateStatic(waGPIB_Thread, sizeof(waGPIB_Thread), NORMALPRIO, GPIB_Thread, NULL);
 800669c:	4935      	ldr	r1, [pc, #212]	; (8006774 <main+0x674>)
 800669e:	4836      	ldr	r0, [pc, #216]	; (8006778 <main+0x678>)
 80066a0:	f7ff fb26 	bl	8005cf0 <chThdCreateStatic.constprop.0.isra.0>
  chThdCreateStatic(waDebugThread1, sizeof(waDebugThread1), NORMALPRIO, DebugThread1, NULL);
 80066a4:	4935      	ldr	r1, [pc, #212]	; (800677c <main+0x67c>)
 80066a6:	4836      	ldr	r0, [pc, #216]	; (8006780 <main+0x680>)
 80066a8:	f7ff fb22 	bl	8005cf0 <chThdCreateStatic.constprop.0.isra.0>
    if ((ahp < H_FREE_LIMIT(hp)) && (pages <= NPAGES(H_FREE_LIMIT(hp), ahp + 1U))) {
 80066ac:	f640 0ae8 	movw	sl, #2280	; 0x8e8
   * Normal main() thread activity, in this demo it does nothing except
   * sleeping in a loop and check the button state.
   */
  while (true) {
#if USB_SHELL == 1
    if (SHELLPORT.config->usbp->state == USB_ACTIVE) {
 80066b0:	f8d4 348c 	ldr.w	r3, [r4, #1164]	; 0x48c
 80066b4:	681b      	ldr	r3, [r3, #0]
 80066b6:	781b      	ldrb	r3, [r3, #0]
 80066b8:	2b04      	cmp	r3, #4
 80066ba:	f040 80be 	bne.w	800683a <main+0x73a>
      /* Starting shells.*/
      if (shelltp == NULL) {
 80066be:	2e00      	cmp	r6, #0
 80066c0:	f000 8119 	beq.w	80068f6 <main+0x7f6>
 80066c4:	68ef      	ldr	r7, [r5, #12]
 80066c6:	2330      	movs	r3, #48	; 0x30
 80066c8:	f383 8811 	msr	BASEPRI, r3
  if (unlikely((oip->dbg.isr_cnt != (cnt_t)0) ||
 80066cc:	e9d5 3223 	ldrd	r3, r2, [r5, #140]	; 0x8c
 80066d0:	4313      	orrs	r3, r2
 80066d2:	f040 80dd 	bne.w	8006890 <main+0x790>
eventmask_t chEvtWaitAny(eventmask_t events) {
  thread_t *currtp = chThdGetSelfX();
  eventmask_t m;

  chSysLock();
  m = currtp->epending & events;
 80066d6:	6bfb      	ldr	r3, [r7, #60]	; 0x3c
  oip->dbg.lock_cnt = (cnt_t)1;
 80066d8:	2101      	movs	r1, #1
  if (m == (eventmask_t)0) {
 80066da:	ea13 0201 	ands.w	r2, r3, r1
 80066de:	f8c5 1090 	str.w	r1, [r5, #144]	; 0x90
 80066e2:	f000 80d8 	beq.w	8006896 <main+0x796>
    currtp->u.ewmask = events;
    chSchGoSleepS(CH_STATE_WTOREVT);
    m = currtp->epending & events;
  }
  currtp->epending &= ~m;
 80066e6:	ea23 0302 	bic.w	r3, r3, r2
 80066ea:	63fb      	str	r3, [r7, #60]	; 0x3c
  if (unlikely((oip->dbg.isr_cnt != (cnt_t)0) ||
 80066ec:	f8d5 308c 	ldr.w	r3, [r5, #140]	; 0x8c
 80066f0:	2b00      	cmp	r3, #0
 80066f2:	f040 80ca 	bne.w	800688a <main+0x78a>
 80066f6:	f8d5 2090 	ldr.w	r2, [r5, #144]	; 0x90
 80066fa:	2a00      	cmp	r2, #0
 80066fc:	f340 80c5 	ble.w	800688a <main+0x78a>
  oip->dbg.lock_cnt = (cnt_t)0;
 8006700:	f8c5 3090 	str.w	r3, [r5, #144]	; 0x90
 8006704:	682b      	ldr	r3, [r5, #0]
 8006706:	42ab      	cmp	r3, r5
 8006708:	f040 8149 	bne.w	800699e <main+0x89e>
 800670c:	2700      	movs	r7, #0
 800670e:	f387 8811 	msr	BASEPRI, r7
                                       "shell1", NORMALPRIO + 1,
                                       shellThread, (void *)&shell_cfg1);
      }
    //chThdWait(shelltp);               /* Waiting termination.             */
    chEvtWaitAny(EVENT_MASK(0));
    if (chThdTerminatedX(shelltp)) {
 8006712:	f896 3028 	ldrb.w	r3, [r6, #40]	; 0x28
 8006716:	2b0f      	cmp	r3, #15
 8006718:	d1ca      	bne.n	80066b0 <main+0x5b0>
      chThdRelease(shelltp);
 800671a:	4630      	mov	r0, r6
 800671c:	f7ff f9f0 	bl	8005b00 <chThdRelease>
      shelltp = NULL;
 8006720:	463e      	mov	r6, r7
 8006722:	e7c5      	b.n	80066b0 <main+0x5b0>
    chSysHalt("SV#10");
 8006724:	4817      	ldr	r0, [pc, #92]	; (8006784 <main+0x684>)
 8006726:	f7fa faab 	bl	8000c80 <chSysHalt>
  chDbgCheck(tp != NULL);
 800672a:	4817      	ldr	r0, [pc, #92]	; (8006788 <main+0x688>)
 800672c:	f7fa faa8 	bl	8000c80 <chSysHalt>
 8006730:	0800810c 	.word	0x0800810c
 8006734:	20000400 	.word	0x20000400
 8006738:	20000800 	.word	0x20000800
 800673c:	08007bc8 	.word	0x08007bc8
 8006740:	08000a01 	.word	0x08000a01
 8006744:	40020800 	.word	0x40020800
 8006748:	20000950 	.word	0x20000950
 800674c:	08001921 	.word	0x08001921
 8006750:	08008414 	.word	0x08008414
 8006754:	08001f71 	.word	0x08001f71
 8006758:	08000f31 	.word	0x08000f31
 800675c:	080082e4 	.word	0x080082e4
 8006760:	08008308 	.word	0x08008308
 8006764:	20001bc8 	.word	0x20001bc8
 8006768:	08003201 	.word	0x08003201
 800676c:	20001ee0 	.word	0x20001ee0
 8006770:	2000191c 	.word	0x2000191c
 8006774:	08003171 	.word	0x08003171
 8006778:	20001d70 	.word	0x20001d70
 800677c:	08005e91 	.word	0x08005e91
 8006780:	20001c00 	.word	0x20001c00
 8006784:	080072e4 	.word	0x080072e4
 8006788:	08007fb0 	.word	0x08007fb0
      rccEnableOTG_FS(true);
 800678c:	4baf      	ldr	r3, [pc, #700]	; (8006a4c <main+0x94c>)
  stm32_otg_t *otgp = usbp->otg;
 800678e:	f8d8 0054 	ldr.w	r0, [r8, #84]	; 0x54
      rccEnableOTG_FS(true);
 8006792:	6b5a      	ldr	r2, [r3, #52]	; 0x34
      otgp->GUSBCFG = GUSBCFG_FDMOD | GUSBCFG_TRDT(TRDT_VALUE_FS) |
 8006794:	4fae      	ldr	r7, [pc, #696]	; (8006a50 <main+0x950>)
      otgp->DCFG = 0x02200000 | DCFG_DSPD_FS11;
 8006796:	49af      	ldr	r1, [pc, #700]	; (8006a54 <main+0x954>)
      rccEnableOTG_FS(true);
 8006798:	f042 0280 	orr.w	r2, r2, #128	; 0x80
 800679c:	635a      	str	r2, [r3, #52]	; 0x34
 800679e:	6d5a      	ldr	r2, [r3, #84]	; 0x54
 80067a0:	f042 0280 	orr.w	r2, r2, #128	; 0x80
 80067a4:	655a      	str	r2, [r3, #84]	; 0x54
 80067a6:	6d5a      	ldr	r2, [r3, #84]	; 0x54
      rccResetOTG_FS();
 80067a8:	695a      	ldr	r2, [r3, #20]
 80067aa:	f042 0280 	orr.w	r2, r2, #128	; 0x80
 80067ae:	615a      	str	r2, [r3, #20]
 80067b0:	695a      	ldr	r2, [r3, #20]
 80067b2:	f022 0280 	bic.w	r2, r2, #128	; 0x80
 80067b6:	615a      	str	r2, [r3, #20]
 80067b8:	695b      	ldr	r3, [r3, #20]
  NVIC->__IPR[n] = NVIC_PRIORITY_MASK(prio);
 80067ba:	4ba7      	ldr	r3, [pc, #668]	; (8006a58 <main+0x958>)
  NVIC->__ICPR[n >> 5U] = 1U << (n & 0x1FU);
 80067bc:	2208      	movs	r2, #8
  NVIC->__IPR[n] = NVIC_PRIORITY_MASK(prio);
 80067be:	f04f 0ce0 	mov.w	ip, #224	; 0xe0
 80067c2:	f883 c343 	strb.w	ip, [r3, #835]	; 0x343
  NVIC->__ICPR[n >> 5U] = 1U << (n & 0x1FU);
 80067c6:	f8c3 2188 	str.w	r2, [r3, #392]	; 0x188
  NVIC->__ISER[n >> 5U] = 1U << (n & 0x1FU);
 80067ca:	609a      	str	r2, [r3, #8]
    otgp->GOTGCTL = GOTGCTL_BVALOEN | GOTGCTL_BVALOVAL;
 80067cc:	23c0      	movs	r3, #192	; 0xc0
      otgp->GUSBCFG = GUSBCFG_FDMOD | GUSBCFG_TRDT(TRDT_VALUE_FS) |
 80067ce:	60c7      	str	r7, [r0, #12]
      otgp->DCFG = 0x02200000 | DCFG_DSPD_FS11;
 80067d0:	f8c0 1800 	str.w	r1, [r0, #2048]	; 0x800
    otgp->PCGCCTL = 0;
 80067d4:	f8c0 6e00 	str.w	r6, [r0, #3584]	; 0xe00
    otgp->GOTGCTL = GOTGCTL_BVALOEN | GOTGCTL_BVALOVAL;
 80067d8:	6003      	str	r3, [r0, #0]
    otgp->GCCFG = GCCFG_INIT_VALUE;
 80067da:	f44f 1334 	mov.w	r3, #2949120	; 0x2d0000
 80067de:	6383      	str	r3, [r0, #56]	; 0x38
  while ((otgp->GRSTCTL & GRSTCTL_AHBIDL) == 0)
 80067e0:	6903      	ldr	r3, [r0, #16]
 80067e2:	2b00      	cmp	r3, #0
 80067e4:	dafc      	bge.n	80067e0 <main+0x6e0>
 80067e6:	4a9d      	ldr	r2, [pc, #628]	; (8006a5c <main+0x95c>)
  otgp->GRSTCTL = GRSTCTL_CSRST;
 80067e8:	2301      	movs	r3, #1
 80067ea:	6103      	str	r3, [r0, #16]
 80067ec:	6851      	ldr	r1, [r2, #4]
 80067ee:	6853      	ldr	r3, [r2, #4]
  return (bool)(((rtcnt_t)cnt - (rtcnt_t)start) <
 80067f0:	1a5b      	subs	r3, r3, r1
  while (chSysIsCounterWithinX(chSysGetRealtimeCounterX(), start, end)) {
 80067f2:	2b0b      	cmp	r3, #11
 80067f4:	d9fb      	bls.n	80067ee <main+0x6ee>
  while ((otgp->GRSTCTL & GRSTCTL_CSRST) != 0)
 80067f6:	6903      	ldr	r3, [r0, #16]
 80067f8:	07df      	lsls	r7, r3, #31
 80067fa:	d4fc      	bmi.n	80067f6 <main+0x6f6>
 80067fc:	4a97      	ldr	r2, [pc, #604]	; (8006a5c <main+0x95c>)
 80067fe:	6851      	ldr	r1, [r2, #4]
 8006800:	6853      	ldr	r3, [r2, #4]
  return (bool)(((rtcnt_t)cnt - (rtcnt_t)start) <
 8006802:	1a5b      	subs	r3, r3, r1
  while (chSysIsCounterWithinX(chSysGetRealtimeCounterX(), start, end)) {
 8006804:	2b11      	cmp	r3, #17
 8006806:	d9fb      	bls.n	8006800 <main+0x700>
  while ((otgp->GRSTCTL & GRSTCTL_AHBIDL) == 0)
 8006808:	6903      	ldr	r3, [r0, #16]
 800680a:	2b00      	cmp	r3, #0
 800680c:	dafc      	bge.n	8006808 <main+0x708>
    otgp->GAHBCFG = 0;
 800680e:	2600      	movs	r6, #0
    otg_disable_ep(usbp);
 8006810:	f8d8 1058 	ldr.w	r1, [r8, #88]	; 0x58
    otgp->GAHBCFG = 0;
 8006814:	6086      	str	r6, [r0, #8]
    otg_disable_ep(usbp);
 8006816:	f7fa fa53 	bl	8000cc0 <otg_disable_ep.isra.0>
      otgp->GINTMSK  = GINTMSK_ENUMDNEM | GINTMSK_USBRSTM | GINTMSK_USBSUSPM |
 800681a:	4b91      	ldr	r3, [pc, #580]	; (8006a60 <main+0x960>)
    otgp->DIEPMSK  = 0;
 800681c:	f8c0 6810 	str.w	r6, [r0, #2064]	; 0x810
    otgp->DOEPMSK  = 0;
 8006820:	f8c0 6814 	str.w	r6, [r0, #2068]	; 0x814
    otgp->DAINTMSK = 0;
 8006824:	f8c0 681c 	str.w	r6, [r0, #2076]	; 0x81c
      otgp->GINTMSK  = GINTMSK_ENUMDNEM | GINTMSK_USBRSTM | GINTMSK_USBSUSPM |
 8006828:	6183      	str	r3, [r0, #24]
    otgp->GINTSTS  = 0xFFFFFFFF;
 800682a:	f04f 33ff 	mov.w	r3, #4294967295	; 0xffffffff
 800682e:	6143      	str	r3, [r0, #20]
    otgp->GAHBCFG |= GAHBCFG_GINTMSK;
 8006830:	6883      	ldr	r3, [r0, #8]
 8006832:	f043 0301 	orr.w	r3, r3, #1
 8006836:	6083      	str	r3, [r0, #8]
 8006838:	e6f2      	b.n	8006620 <main+0x520>
 800683a:	2330      	movs	r3, #48	; 0x30
 800683c:	f383 8811 	msr	BASEPRI, r3
  if (unlikely((oip->dbg.isr_cnt != (cnt_t)0) ||
 8006840:	e9d5 3223 	ldrd	r3, r2, [r5, #140]	; 0x8c
 8006844:	4313      	orrs	r3, r2
 8006846:	d123      	bne.n	8006890 <main+0x790>
  oip->dbg.lock_cnt = (cnt_t)1;
 8006848:	2301      	movs	r3, #1
  (void) chSchGoSleepTimeoutS(CH_STATE_SLEEPING, ticks);
 800684a:	f242 7110 	movw	r1, #10000	; 0x2710
 800684e:	2008      	movs	r0, #8
 8006850:	f8c5 3090 	str.w	r3, [r5, #144]	; 0x90
 8006854:	f7fc f8b4 	bl	80029c0 <chSchGoSleepTimeoutS>
  if (unlikely((oip->dbg.isr_cnt != (cnt_t)0) ||
 8006858:	f8d5 308c 	ldr.w	r3, [r5, #140]	; 0x8c
 800685c:	b9ab      	cbnz	r3, 800688a <main+0x78a>
 800685e:	f8d5 2090 	ldr.w	r2, [r5, #144]	; 0x90
 8006862:	2a00      	cmp	r2, #0
 8006864:	dd11      	ble.n	800688a <main+0x78a>
  oip->dbg.lock_cnt = (cnt_t)0;
 8006866:	f8c5 3090 	str.w	r3, [r5, #144]	; 0x90
 800686a:	682b      	ldr	r3, [r5, #0]
 800686c:	42ab      	cmp	r3, r5
 800686e:	d132      	bne.n	80068d6 <main+0x7d6>
 8006870:	2300      	movs	r3, #0
 8006872:	f383 8811 	msr	BASEPRI, r3
}
 8006876:	e71b      	b.n	80066b0 <main+0x5b0>
  chDbgAssert((currcore->rlist.pqueue.next == &currcore->rlist.pqueue) ||
 8006878:	68ea      	ldr	r2, [r5, #12]
 800687a:	689b      	ldr	r3, [r3, #8]
 800687c:	6892      	ldr	r2, [r2, #8]
 800687e:	429a      	cmp	r2, r3
 8006880:	f4bf ae30 	bcs.w	80064e4 <main+0x3e4>
 8006884:	4877      	ldr	r0, [pc, #476]	; (8006a64 <main+0x964>)
 8006886:	f7fa f9fb 	bl	8000c80 <chSysHalt>
    chSysHalt("SV#5");
 800688a:	4877      	ldr	r0, [pc, #476]	; (8006a68 <main+0x968>)
 800688c:	f7fa f9f8 	bl	8000c80 <chSysHalt>
    chSysHalt("SV#4");
 8006890:	4876      	ldr	r0, [pc, #472]	; (8006a6c <main+0x96c>)
 8006892:	f7fa f9f5 	bl	8000c80 <chSysHalt>
    currtp->u.ewmask = events;
 8006896:	62f9      	str	r1, [r7, #44]	; 0x2c
    chSchGoSleepS(CH_STATE_WTOREVT);
 8006898:	200a      	movs	r0, #10
 800689a:	f7fc f839 	bl	8002910 <chSchGoSleepS>
    m = currtp->epending & events;
 800689e:	6bfb      	ldr	r3, [r7, #60]	; 0x3c
 80068a0:	f003 0201 	and.w	r2, r3, #1
 80068a4:	e71f      	b.n	80066e6 <main+0x5e6>
  osalDbgAssert((sdup->state == SDU_STOP) || (sdup->state == SDU_READY),
 80068a6:	4872      	ldr	r0, [pc, #456]	; (8006a70 <main+0x970>)
 80068a8:	f7fa f9ea 	bl	8000c80 <chSysHalt>
 80068ac:	68ea      	ldr	r2, [r5, #12]
 80068ae:	689b      	ldr	r3, [r3, #8]
 80068b0:	6892      	ldr	r2, [r2, #8]
 80068b2:	429a      	cmp	r2, r3
 80068b4:	f4bf ae92 	bcs.w	80065dc <main+0x4dc>
 80068b8:	486e      	ldr	r0, [pc, #440]	; (8006a74 <main+0x974>)
 80068ba:	f7fa f9e1 	bl	8000c80 <chSysHalt>
  osalDbgAssert((usbp->state == USB_STOP) || (usbp->state == USB_READY),
 80068be:	486e      	ldr	r0, [pc, #440]	; (8006a78 <main+0x978>)
 80068c0:	f7fa f9de 	bl	8000c80 <chSysHalt>
 80068c4:	68ea      	ldr	r2, [r5, #12]
 80068c6:	689b      	ldr	r3, [r3, #8]
 80068c8:	6892      	ldr	r2, [r2, #8]
 80068ca:	429a      	cmp	r2, r3
 80068cc:	f4bf aeb1 	bcs.w	8006632 <main+0x532>
 80068d0:	486a      	ldr	r0, [pc, #424]	; (8006a7c <main+0x97c>)
 80068d2:	f7fa f9d5 	bl	8000c80 <chSysHalt>
 80068d6:	68ea      	ldr	r2, [r5, #12]
 80068d8:	689b      	ldr	r3, [r3, #8]
 80068da:	6892      	ldr	r2, [r2, #8]
 80068dc:	429a      	cmp	r2, r3
 80068de:	d2c7      	bcs.n	8006870 <main+0x770>
 80068e0:	4867      	ldr	r0, [pc, #412]	; (8006a80 <main+0x980>)
 80068e2:	f7fa f9cd 	bl	8000c80 <chSysHalt>
 80068e6:	68ba      	ldr	r2, [r7, #8]
 80068e8:	689b      	ldr	r3, [r3, #8]
 80068ea:	429a      	cmp	r2, r3
 80068ec:	f4bf aecd 	bcs.w	800668a <main+0x58a>
 80068f0:	4864      	ldr	r0, [pc, #400]	; (8006a84 <main+0x984>)
 80068f2:	f7fa f9c5 	bl	8000c80 <chSysHalt>
 80068f6:	2330      	movs	r3, #48	; 0x30
 80068f8:	f383 8811 	msr	BASEPRI, r3
  if (unlikely((oip->dbg.isr_cnt != (cnt_t)0) ||
 80068fc:	e9d5 3223 	ldrd	r3, r2, [r5, #140]	; 0x8c
 8006900:	4313      	orrs	r3, r2
 8006902:	d1c5      	bne.n	8006890 <main+0x790>
  oip->dbg.lock_cnt = (cnt_t)1;
 8006904:	2301      	movs	r3, #1
 8006906:	4640      	mov	r0, r8
 8006908:	f8c5 3090 	str.w	r3, [r5, #144]	; 0x90
 800690c:	f7fc fd28 	bl	8003360 <chMtxLockS>
  if (unlikely((oip->dbg.isr_cnt != (cnt_t)0) ||
 8006910:	f8d5 308c 	ldr.w	r3, [r5, #140]	; 0x8c
 8006914:	2b00      	cmp	r3, #0
 8006916:	d1b8      	bne.n	800688a <main+0x78a>
 8006918:	f8d5 3090 	ldr.w	r3, [r5, #144]	; 0x90
 800691c:	2b00      	cmp	r3, #0
 800691e:	ddb4      	ble.n	800688a <main+0x78a>
 8006920:	682b      	ldr	r3, [r5, #0]
  oip->dbg.lock_cnt = (cnt_t)0;
 8006922:	f8c5 6090 	str.w	r6, [r5, #144]	; 0x90
 8006926:	42ab      	cmp	r3, r5
 8006928:	f040 80c7 	bne.w	8006aba <main+0x9ba>
 800692c:	2300      	movs	r3, #0
 800692e:	f383 8811 	msr	BASEPRI, r3
  qp = &heapp->header;
 8006932:	4e55      	ldr	r6, [pc, #340]	; (8006a88 <main+0x988>)
 8006934:	4637      	mov	r7, r6
  while (H_FREE_NEXT(qp) != NULL) {
 8006936:	6836      	ldr	r6, [r6, #0]
 8006938:	b3c6      	cbz	r6, 80069ac <main+0x8ac>
    if ((ahp < H_FREE_LIMIT(hp)) && (pages <= NPAGES(H_FREE_LIMIT(hp), ahp + 1U))) {
 800693a:	f8d6 c004 	ldr.w	ip, [r6, #4]
    ahp = (heap_header_t *)MEM_ALIGN_NEXT(H_BLOCK(hp), align) - 1U;
 800693e:	f106 010f 	add.w	r1, r6, #15
 8006942:	f021 0107 	bic.w	r1, r1, #7
    if ((ahp < H_FREE_LIMIT(hp)) && (pages <= NPAGES(H_FREE_LIMIT(hp), ahp + 1U))) {
 8006946:	f10c 0201 	add.w	r2, ip, #1
 800694a:	eb06 02c2 	add.w	r2, r6, r2, lsl #3
    ahp = (heap_header_t *)MEM_ALIGN_NEXT(H_BLOCK(hp), align) - 1U;
 800694e:	f1a1 0308 	sub.w	r3, r1, #8
    if ((ahp < H_FREE_LIMIT(hp)) && (pages <= NPAGES(H_FREE_LIMIT(hp), ahp + 1U))) {
 8006952:	4293      	cmp	r3, r2
 8006954:	d2ee      	bcs.n	8006934 <main+0x834>
 8006956:	1a50      	subs	r0, r2, r1
 8006958:	4550      	cmp	r0, sl
 800695a:	d9eb      	bls.n	8006934 <main+0x834>
      if (ahp > hp) {
 800695c:	429e      	cmp	r6, r3
 800695e:	f080 809b 	bcs.w	8006a98 <main+0x998>
        H_FREE_PAGES(hp) = NPAGES(ahp, H_BLOCK(hp));
 8006962:	f106 0208 	add.w	r2, r6, #8
 8006966:	1a9a      	subs	r2, r3, r2
 8006968:	10d2      	asrs	r2, r2, #3
        if (bpages > pages) {
 800696a:	f5b0 6f0f 	cmp.w	r0, #2288	; 0x8f0
        H_FREE_PAGES(hp) = NPAGES(ahp, H_BLOCK(hp));
 800696e:	6072      	str	r2, [r6, #4]
        if (bpages > pages) {
 8006970:	d90b      	bls.n	800698a <main+0x88a>
    if ((ahp < H_FREE_LIMIT(hp)) && (pages <= NPAGES(H_FREE_LIMIT(hp), ahp + 1U))) {
 8006972:	10c2      	asrs	r2, r0, #3
          H_FREE_PAGES(fp) = (bpages - pages) - 1U;
 8006974:	f46f 708f 	mvn.w	r0, #286	; 0x11e
 8006978:	4402      	add	r2, r0
 800697a:	f8c3 28fc 	str.w	r2, [r3, #2300]	; 0x8fc
          fp = H_BLOCK(ahp) + pages;
 800697e:	f501 610f 	add.w	r1, r1, #2288	; 0x8f0
          H_FREE_NEXT(fp) = H_FREE_NEXT(hp);
 8006982:	6832      	ldr	r2, [r6, #0]
 8006984:	f8c3 28f8 	str.w	r2, [r3, #2296]	; 0x8f8
          H_FREE_NEXT(hp) = fp;
 8006988:	6031      	str	r1, [r6, #0]
      H_USED_HEAP(hp) = heapp;
 800698a:	461f      	mov	r7, r3
      H_USED_SIZE(hp) = size;
 800698c:	f44f 620f 	mov.w	r2, #2288	; 0x8f0
 8006990:	605a      	str	r2, [r3, #4]
      H_UNLOCK(heapp);
 8006992:	4640      	mov	r0, r8
      H_USED_HEAP(hp) = heapp;
 8006994:	f847 9b08 	str.w	r9, [r7], #8
      H_UNLOCK(heapp);
 8006998:	f7ff f83a 	bl	8005a10 <chMtxUnlock>
      return (void *)H_BLOCK(hp);
 800699c:	e01d      	b.n	80069da <main+0x8da>
 800699e:	68ea      	ldr	r2, [r5, #12]
 80069a0:	689b      	ldr	r3, [r3, #8]
 80069a2:	6892      	ldr	r2, [r2, #8]
 80069a4:	429a      	cmp	r2, r3
 80069a6:	f4bf aeb1 	bcs.w	800670c <main+0x60c>
 80069aa:	e7a1      	b.n	80068f0 <main+0x7f0>
  H_UNLOCK(heapp);
 80069ac:	4640      	mov	r0, r8
 80069ae:	f7ff f82f 	bl	8005a10 <chMtxUnlock>
  if (heapp->provider != NULL) {
 80069b2:	f8d9 3000 	ldr.w	r3, [r9]
 80069b6:	2b00      	cmp	r3, #0
 80069b8:	f43f ae84 	beq.w	80066c4 <main+0x5c4>
    ahp = heapp->provider(pages * CH_HEAP_ALIGNMENT,
 80069bc:	2208      	movs	r2, #8
 80069be:	4611      	mov	r1, r2
 80069c0:	f44f 600f 	mov.w	r0, #2288	; 0x8f0
 80069c4:	4798      	blx	r3
    if (ahp != NULL) {
 80069c6:	4607      	mov	r7, r0
 80069c8:	2800      	cmp	r0, #0
 80069ca:	f43f ae7b 	beq.w	80066c4 <main+0x5c4>
      H_USED_SIZE(hp) = size;
 80069ce:	f44f 630f 	mov.w	r3, #2288	; 0x8f0
      H_USED_HEAP(hp) = heapp;
 80069d2:	f840 9c08 	str.w	r9, [r0, #-8]
      H_USED_SIZE(hp) = size;
 80069d6:	f840 3c04 	str.w	r3, [r0, #-4]
  if (wbase == NULL) {
    return NULL;
  }
  wend = (void *)((uint8_t *)wbase + size);

  thread_descriptor_t td = THD_DESCRIPTOR(name, wbase, wend, prio, pf, arg);
 80069da:	4b2c      	ldr	r3, [pc, #176]	; (8006a8c <main+0x98c>)
 80069dc:	9306      	str	r3, [sp, #24]
 80069de:	4b2c      	ldr	r3, [pc, #176]	; (8006a90 <main+0x990>)
 80069e0:	930a      	str	r3, [sp, #40]	; 0x28
 80069e2:	4b2c      	ldr	r3, [pc, #176]	; (8006a94 <main+0x994>)
 80069e4:	930b      	str	r3, [sp, #44]	; 0x2c
  wend = (void *)((uint8_t *)wbase + size);
 80069e6:	f507 630f 	add.w	r3, r7, #2288	; 0x8f0
  thread_descriptor_t td = THD_DESCRIPTOR(name, wbase, wend, prio, pf, arg);
 80069ea:	9308      	str	r3, [sp, #32]
    *startp++ = CH_DBG_STACK_FILL_VALUE;
 80069ec:	4638      	mov	r0, r7
 80069ee:	2381      	movs	r3, #129	; 0x81
 80069f0:	f44f 620f 	mov.w	r2, #2288	; 0x8f0
 80069f4:	2155      	movs	r1, #85	; 0x55
 80069f6:	9309      	str	r3, [sp, #36]	; 0x24
 80069f8:	9707      	str	r7, [sp, #28]
 80069fa:	f000 f929 	bl	8006c50 <memset>
 80069fe:	2330      	movs	r3, #48	; 0x30
 8006a00:	f383 8811 	msr	BASEPRI, r3
  if (unlikely((oip->dbg.isr_cnt != (cnt_t)0) ||
 8006a04:	e9d5 3223 	ldrd	r3, r2, [r5, #140]	; 0x8c
 8006a08:	4313      	orrs	r3, r2
 8006a0a:	f47f af41 	bne.w	8006890 <main+0x790>
  oip->dbg.lock_cnt = (cnt_t)1;
 8006a0e:	2701      	movs	r7, #1
#if CH_DBG_FILL_THREADS == TRUE
  __thd_stackfill((uint8_t *)wbase, (uint8_t *)wend);
#endif

  chSysLock();
  tp = chThdCreateSuspendedI(&td);
 8006a10:	a806      	add	r0, sp, #24
 8006a12:	f8c5 7090 	str.w	r7, [r5, #144]	; 0x90
 8006a16:	f7fa fc43 	bl	80012a0 <chThdCreateSuspendedI>
  tp->flags = CH_FLAG_MODE_HEAP;
 8006a1a:	f880 7029 	strb.w	r7, [r0, #41]	; 0x29
  tp = chThdCreateSuspendedI(&td);
 8006a1e:	4606      	mov	r6, r0
  chSchWakeupS(tp, MSG_OK);
 8006a20:	f7fc fd1e 	bl	8003460 <chSchWakeupS.constprop.0>
  if (unlikely((oip->dbg.isr_cnt != (cnt_t)0) ||
 8006a24:	f8d5 308c 	ldr.w	r3, [r5, #140]	; 0x8c
 8006a28:	2b00      	cmp	r3, #0
 8006a2a:	f47f af2e 	bne.w	800688a <main+0x78a>
 8006a2e:	f8d5 2090 	ldr.w	r2, [r5, #144]	; 0x90
 8006a32:	2a00      	cmp	r2, #0
 8006a34:	f77f af29 	ble.w	800688a <main+0x78a>
  oip->dbg.lock_cnt = (cnt_t)0;
 8006a38:	f8c5 3090 	str.w	r3, [r5, #144]	; 0x90
 8006a3c:	682b      	ldr	r3, [r5, #0]
 8006a3e:	42ab      	cmp	r3, r5
 8006a40:	d144      	bne.n	8006acc <main+0x9cc>
 8006a42:	2300      	movs	r3, #0
 8006a44:	f383 8811 	msr	BASEPRI, r3
}
 8006a48:	e63c      	b.n	80066c4 <main+0x5c4>
 8006a4a:	bf00      	nop
 8006a4c:	40023800 	.word	0x40023800
 8006a50:	40001440 	.word	0x40001440
 8006a54:	02200003 	.word	0x02200003
 8006a58:	e000e100 	.word	0xe000e100
 8006a5c:	e0001000 	.word	0xe0001000
 8006a60:	c0303c08 	.word	0xc0303c08
 8006a64:	08007e00 	.word	0x08007e00
 8006a68:	08007314 	.word	0x08007314
 8006a6c:	080072f4 	.word	0x080072f4
 8006a70:	08007f30 	.word	0x08007f30
 8006a74:	08007ed8 	.word	0x08007ed8
 8006a78:	08007e34 	.word	0x08007e34
 8006a7c:	080080dc 	.word	0x080080dc
 8006a80:	08007e88 	.word	0x08007e88
 8006a84:	08008098 	.word	0x08008098
 8006a88:	20001914 	.word	0x20001914
 8006a8c:	08007bd0 	.word	0x08007bd0
 8006a90:	08003ba1 	.word	0x08003ba1
 8006a94:	080082ec 	.word	0x080082ec
        if (H_FREE_PAGES(hp) == pages) {
 8006a98:	f5bc 7f8f 	cmp.w	ip, #286	; 0x11e
 8006a9c:	d01e      	beq.n	8006adc <main+0x9dc>
          H_FREE_PAGES(fp) = NPAGES(H_FREE_LIMIT(hp), H_BLOCK(fp));
 8006a9e:	f506 6310 	add.w	r3, r6, #2304	; 0x900
 8006aa2:	1ad3      	subs	r3, r2, r3
 8006aa4:	10db      	asrs	r3, r3, #3
 8006aa6:	f8c6 38fc 	str.w	r3, [r6, #2300]	; 0x8fc
          H_FREE_NEXT(fp) = H_FREE_NEXT(hp);
 8006aaa:	6833      	ldr	r3, [r6, #0]
 8006aac:	f8c6 38f8 	str.w	r3, [r6, #2296]	; 0x8f8
          fp = H_BLOCK(hp) + pages;
 8006ab0:	f606 03f8 	addw	r3, r6, #2296	; 0x8f8
          H_FREE_NEXT(qp) = fp;
 8006ab4:	603b      	str	r3, [r7, #0]
 8006ab6:	4633      	mov	r3, r6
 8006ab8:	e767      	b.n	800698a <main+0x88a>
  chDbgAssert((currcore->rlist.pqueue.next == &currcore->rlist.pqueue) ||
 8006aba:	68ea      	ldr	r2, [r5, #12]
 8006abc:	689b      	ldr	r3, [r3, #8]
 8006abe:	6892      	ldr	r2, [r2, #8]
 8006ac0:	429a      	cmp	r2, r3
 8006ac2:	f4bf af33 	bcs.w	800692c <main+0x82c>
 8006ac6:	4807      	ldr	r0, [pc, #28]	; (8006ae4 <main+0x9e4>)
 8006ac8:	f7fa f8da 	bl	8000c80 <chSysHalt>
 8006acc:	68ea      	ldr	r2, [r5, #12]
 8006ace:	689b      	ldr	r3, [r3, #8]
 8006ad0:	6892      	ldr	r2, [r2, #8]
 8006ad2:	429a      	cmp	r2, r3
 8006ad4:	d2b5      	bcs.n	8006a42 <main+0x942>
 8006ad6:	4804      	ldr	r0, [pc, #16]	; (8006ae8 <main+0x9e8>)
 8006ad8:	f7fa f8d2 	bl	8000c80 <chSysHalt>
          H_FREE_NEXT(qp) = H_FREE_NEXT(hp);
 8006adc:	6833      	ldr	r3, [r6, #0]
 8006ade:	603b      	str	r3, [r7, #0]
 8006ae0:	4633      	mov	r3, r6
 8006ae2:	e752      	b.n	800698a <main+0x88a>
 8006ae4:	08007fbc 	.word	0x08007fbc
 8006ae8:	08007d7c 	.word	0x08007d7c

08006aec <_strtol_l.constprop.0>:
 8006aec:	2b01      	cmp	r3, #1
 8006aee:	e92d 4ff8 	stmdb	sp!, {r3, r4, r5, r6, r7, r8, r9, sl, fp, lr}
 8006af2:	d041      	beq.n	8006b78 <_strtol_l.constprop.0+0x8c>
 8006af4:	2b24      	cmp	r3, #36	; 0x24
 8006af6:	461f      	mov	r7, r3
 8006af8:	d83e      	bhi.n	8006b78 <_strtol_l.constprop.0+0x8c>
 8006afa:	4680      	mov	r8, r0
 8006afc:	484a      	ldr	r0, [pc, #296]	; (8006c28 <_strtol_l.constprop.0+0x13c>)
 8006afe:	468e      	mov	lr, r1
 8006b00:	4675      	mov	r5, lr
 8006b02:	f81e bb01 	ldrb.w	fp, [lr], #1
 8006b06:	f810 400b 	ldrb.w	r4, [r0, fp]
 8006b0a:	f014 0408 	ands.w	r4, r4, #8
 8006b0e:	d1f7      	bne.n	8006b00 <_strtol_l.constprop.0+0x14>
 8006b10:	f1bb 0f2d 	cmp.w	fp, #45	; 0x2d
 8006b14:	d071      	beq.n	8006bfa <_strtol_l.constprop.0+0x10e>
 8006b16:	f1bb 0f2b 	cmp.w	fp, #43	; 0x2b
 8006b1a:	bf08      	it	eq
 8006b1c:	f89e b000 	ldrbeq.w	fp, [lr]
 8006b20:	f06f 4900 	mvn.w	r9, #2147483648	; 0x80000000
 8006b24:	bf08      	it	eq
 8006b26:	f105 0e02 	addeq.w	lr, r5, #2
 8006b2a:	2b00      	cmp	r3, #0
 8006b2c:	d042      	beq.n	8006bb4 <_strtol_l.constprop.0+0xc8>
 8006b2e:	2b10      	cmp	r3, #16
 8006b30:	d055      	beq.n	8006bde <_strtol_l.constprop.0+0xf2>
 8006b32:	fbb9 f6f7 	udiv	r6, r9, r7
 8006b36:	2500      	movs	r5, #0
 8006b38:	4628      	mov	r0, r5
 8006b3a:	fb07 9a16 	mls	sl, r7, r6, r9
 8006b3e:	e005      	b.n	8006b4c <_strtol_l.constprop.0+0x60>
 8006b40:	d033      	beq.n	8006baa <_strtol_l.constprop.0+0xbe>
 8006b42:	fb07 c000 	mla	r0, r7, r0, ip
 8006b46:	2501      	movs	r5, #1
 8006b48:	f81e bb01 	ldrb.w	fp, [lr], #1
 8006b4c:	f1ab 0c30 	sub.w	ip, fp, #48	; 0x30
 8006b50:	f1bc 0f09 	cmp.w	ip, #9
 8006b54:	d906      	bls.n	8006b64 <_strtol_l.constprop.0+0x78>
 8006b56:	f1ab 0c41 	sub.w	ip, fp, #65	; 0x41
 8006b5a:	f1bc 0f19 	cmp.w	ip, #25
 8006b5e:	d812      	bhi.n	8006b86 <_strtol_l.constprop.0+0x9a>
 8006b60:	f1ab 0c37 	sub.w	ip, fp, #55	; 0x37
 8006b64:	4563      	cmp	r3, ip
 8006b66:	dd17      	ble.n	8006b98 <_strtol_l.constprop.0+0xac>
 8006b68:	f1b5 3fff 	cmp.w	r5, #4294967295	; 0xffffffff
 8006b6c:	d0ec      	beq.n	8006b48 <_strtol_l.constprop.0+0x5c>
 8006b6e:	4286      	cmp	r6, r0
 8006b70:	d2e6      	bcs.n	8006b40 <_strtol_l.constprop.0+0x54>
 8006b72:	f04f 35ff 	mov.w	r5, #4294967295	; 0xffffffff
 8006b76:	e7e7      	b.n	8006b48 <_strtol_l.constprop.0+0x5c>
 8006b78:	f000 f864 	bl	8006c44 <__errno>
 8006b7c:	2316      	movs	r3, #22
 8006b7e:	6003      	str	r3, [r0, #0]
 8006b80:	2000      	movs	r0, #0
 8006b82:	e8bd 8ff8 	ldmia.w	sp!, {r3, r4, r5, r6, r7, r8, r9, sl, fp, pc}
 8006b86:	f1ab 0c61 	sub.w	ip, fp, #97	; 0x61
 8006b8a:	f1bc 0f19 	cmp.w	ip, #25
 8006b8e:	d803      	bhi.n	8006b98 <_strtol_l.constprop.0+0xac>
 8006b90:	f1ab 0c57 	sub.w	ip, fp, #87	; 0x57
 8006b94:	4563      	cmp	r3, ip
 8006b96:	dce7      	bgt.n	8006b68 <_strtol_l.constprop.0+0x7c>
 8006b98:	1c6b      	adds	r3, r5, #1
 8006b9a:	d025      	beq.n	8006be8 <_strtol_l.constprop.0+0xfc>
 8006b9c:	b984      	cbnz	r4, 8006bc0 <_strtol_l.constprop.0+0xd4>
 8006b9e:	2a00      	cmp	r2, #0
 8006ba0:	d0ef      	beq.n	8006b82 <_strtol_l.constprop.0+0x96>
 8006ba2:	bb95      	cbnz	r5, 8006c0a <_strtol_l.constprop.0+0x11e>
 8006ba4:	6011      	str	r1, [r2, #0]
 8006ba6:	e8bd 8ff8 	ldmia.w	sp!, {r3, r4, r5, r6, r7, r8, r9, sl, fp, pc}
 8006baa:	45e2      	cmp	sl, ip
 8006bac:	dac9      	bge.n	8006b42 <_strtol_l.constprop.0+0x56>
 8006bae:	f04f 35ff 	mov.w	r5, #4294967295	; 0xffffffff
 8006bb2:	e7c9      	b.n	8006b48 <_strtol_l.constprop.0+0x5c>
 8006bb4:	f1bb 0f30 	cmp.w	fp, #48	; 0x30
 8006bb8:	d004      	beq.n	8006bc4 <_strtol_l.constprop.0+0xd8>
 8006bba:	270a      	movs	r7, #10
 8006bbc:	463b      	mov	r3, r7
 8006bbe:	e7b8      	b.n	8006b32 <_strtol_l.constprop.0+0x46>
 8006bc0:	4240      	negs	r0, r0
 8006bc2:	e7ec      	b.n	8006b9e <_strtol_l.constprop.0+0xb2>
 8006bc4:	f89e 3000 	ldrb.w	r3, [lr]
 8006bc8:	f003 03df 	and.w	r3, r3, #223	; 0xdf
 8006bcc:	2b58      	cmp	r3, #88	; 0x58
 8006bce:	d120      	bne.n	8006c12 <_strtol_l.constprop.0+0x126>
 8006bd0:	2710      	movs	r7, #16
 8006bd2:	f89e b001 	ldrb.w	fp, [lr, #1]
 8006bd6:	463b      	mov	r3, r7
 8006bd8:	f10e 0e02 	add.w	lr, lr, #2
 8006bdc:	e7a9      	b.n	8006b32 <_strtol_l.constprop.0+0x46>
 8006bde:	f1bb 0f30 	cmp.w	fp, #48	; 0x30
 8006be2:	d019      	beq.n	8006c18 <_strtol_l.constprop.0+0x12c>
 8006be4:	461f      	mov	r7, r3
 8006be6:	e7a4      	b.n	8006b32 <_strtol_l.constprop.0+0x46>
 8006be8:	2322      	movs	r3, #34	; 0x22
 8006bea:	f8c8 3000 	str.w	r3, [r8]
 8006bee:	b172      	cbz	r2, 8006c0e <_strtol_l.constprop.0+0x122>
 8006bf0:	f10e 31ff 	add.w	r1, lr, #4294967295	; 0xffffffff
 8006bf4:	4648      	mov	r0, r9
 8006bf6:	6011      	str	r1, [r2, #0]
 8006bf8:	e7d5      	b.n	8006ba6 <_strtol_l.constprop.0+0xba>
 8006bfa:	f89e b000 	ldrb.w	fp, [lr]
 8006bfe:	f04f 4900 	mov.w	r9, #2147483648	; 0x80000000
 8006c02:	f105 0e02 	add.w	lr, r5, #2
 8006c06:	2401      	movs	r4, #1
 8006c08:	e78f      	b.n	8006b2a <_strtol_l.constprop.0+0x3e>
 8006c0a:	4681      	mov	r9, r0
 8006c0c:	e7f0      	b.n	8006bf0 <_strtol_l.constprop.0+0x104>
 8006c0e:	4648      	mov	r0, r9
 8006c10:	e7b7      	b.n	8006b82 <_strtol_l.constprop.0+0x96>
 8006c12:	2708      	movs	r7, #8
 8006c14:	463b      	mov	r3, r7
 8006c16:	e78c      	b.n	8006b32 <_strtol_l.constprop.0+0x46>
 8006c18:	f89e 0000 	ldrb.w	r0, [lr]
 8006c1c:	f000 00df 	and.w	r0, r0, #223	; 0xdf
 8006c20:	2858      	cmp	r0, #88	; 0x58
 8006c22:	d0d5      	beq.n	8006bd0 <_strtol_l.constprop.0+0xe4>
 8006c24:	461f      	mov	r7, r3
 8006c26:	e784      	b.n	8006b32 <_strtol_l.constprop.0+0x46>
 8006c28:	08008441 	.word	0x08008441

08006c2c <strtol>:
 8006c2c:	b410      	push	{r4}
 8006c2e:	4c04      	ldr	r4, [pc, #16]	; (8006c40 <strtol+0x14>)
 8006c30:	4684      	mov	ip, r0
 8006c32:	4613      	mov	r3, r2
 8006c34:	6820      	ldr	r0, [r4, #0]
 8006c36:	bc10      	pop	{r4}
 8006c38:	460a      	mov	r2, r1
 8006c3a:	4661      	mov	r1, ip
 8006c3c:	f7ff bf56 	b.w	8006aec <_strtol_l.constprop.0>
 8006c40:	20000930 	.word	0x20000930

08006c44 <__errno>:
 8006c44:	4b01      	ldr	r3, [pc, #4]	; (8006c4c <__errno+0x8>)
 8006c46:	6818      	ldr	r0, [r3, #0]
 8006c48:	4770      	bx	lr
 8006c4a:	bf00      	nop
 8006c4c:	20000930 	.word	0x20000930

08006c50 <memset>:
 8006c50:	0783      	lsls	r3, r0, #30
 8006c52:	b530      	push	{r4, r5, lr}
 8006c54:	d048      	beq.n	8006ce8 <memset+0x98>
 8006c56:	1e54      	subs	r4, r2, #1
 8006c58:	2a00      	cmp	r2, #0
 8006c5a:	d03f      	beq.n	8006cdc <memset+0x8c>
 8006c5c:	b2ca      	uxtb	r2, r1
 8006c5e:	4603      	mov	r3, r0
 8006c60:	e001      	b.n	8006c66 <memset+0x16>
 8006c62:	3c01      	subs	r4, #1
 8006c64:	d33a      	bcc.n	8006cdc <memset+0x8c>
 8006c66:	f803 2b01 	strb.w	r2, [r3], #1
 8006c6a:	079d      	lsls	r5, r3, #30
 8006c6c:	d1f9      	bne.n	8006c62 <memset+0x12>
 8006c6e:	2c03      	cmp	r4, #3
 8006c70:	d92d      	bls.n	8006cce <memset+0x7e>
 8006c72:	b2cd      	uxtb	r5, r1
 8006c74:	ea45 2505 	orr.w	r5, r5, r5, lsl #8
 8006c78:	2c0f      	cmp	r4, #15
 8006c7a:	ea45 4505 	orr.w	r5, r5, r5, lsl #16
 8006c7e:	d936      	bls.n	8006cee <memset+0x9e>
 8006c80:	f1a4 0210 	sub.w	r2, r4, #16
 8006c84:	f022 0c0f 	bic.w	ip, r2, #15
 8006c88:	f103 0e20 	add.w	lr, r3, #32
 8006c8c:	44e6      	add	lr, ip
 8006c8e:	ea4f 1c12 	mov.w	ip, r2, lsr #4
 8006c92:	f103 0210 	add.w	r2, r3, #16
 8006c96:	e942 5504 	strd	r5, r5, [r2, #-16]
 8006c9a:	e942 5502 	strd	r5, r5, [r2, #-8]
 8006c9e:	3210      	adds	r2, #16
 8006ca0:	4572      	cmp	r2, lr
 8006ca2:	d1f8      	bne.n	8006c96 <memset+0x46>
 8006ca4:	f10c 0201 	add.w	r2, ip, #1
 8006ca8:	f014 0f0c 	tst.w	r4, #12
 8006cac:	eb03 1202 	add.w	r2, r3, r2, lsl #4
 8006cb0:	f004 0c0f 	and.w	ip, r4, #15
 8006cb4:	d013      	beq.n	8006cde <memset+0x8e>
 8006cb6:	f1ac 0304 	sub.w	r3, ip, #4
 8006cba:	f023 0303 	bic.w	r3, r3, #3
 8006cbe:	3304      	adds	r3, #4
 8006cc0:	4413      	add	r3, r2
 8006cc2:	f842 5b04 	str.w	r5, [r2], #4
 8006cc6:	4293      	cmp	r3, r2
 8006cc8:	d1fb      	bne.n	8006cc2 <memset+0x72>
 8006cca:	f00c 0403 	and.w	r4, ip, #3
 8006cce:	b12c      	cbz	r4, 8006cdc <memset+0x8c>
 8006cd0:	b2c9      	uxtb	r1, r1
 8006cd2:	441c      	add	r4, r3
 8006cd4:	f803 1b01 	strb.w	r1, [r3], #1
 8006cd8:	429c      	cmp	r4, r3
 8006cda:	d1fb      	bne.n	8006cd4 <memset+0x84>
 8006cdc:	bd30      	pop	{r4, r5, pc}
 8006cde:	4664      	mov	r4, ip
 8006ce0:	4613      	mov	r3, r2
 8006ce2:	2c00      	cmp	r4, #0
 8006ce4:	d1f4      	bne.n	8006cd0 <memset+0x80>
 8006ce6:	e7f9      	b.n	8006cdc <memset+0x8c>
 8006ce8:	4603      	mov	r3, r0
 8006cea:	4614      	mov	r4, r2
 8006cec:	e7bf      	b.n	8006c6e <memset+0x1e>
 8006cee:	461a      	mov	r2, r3
 8006cf0:	46a4      	mov	ip, r4
 8006cf2:	e7e0      	b.n	8006cb6 <memset+0x66>

08006cf4 <strpbrk>:
 8006cf4:	4684      	mov	ip, r0
 8006cf6:	7800      	ldrb	r0, [r0, #0]
 8006cf8:	b1b8      	cbz	r0, 8006d2a <strpbrk+0x36>
 8006cfa:	b500      	push	{lr}
 8006cfc:	468e      	mov	lr, r1
 8006cfe:	7809      	ldrb	r1, [r1, #0]
 8006d00:	4672      	mov	r2, lr
 8006d02:	460b      	mov	r3, r1
 8006d04:	b919      	cbnz	r1, 8006d0e <strpbrk+0x1a>
 8006d06:	e00b      	b.n	8006d20 <strpbrk+0x2c>
 8006d08:	f812 3f01 	ldrb.w	r3, [r2, #1]!
 8006d0c:	b143      	cbz	r3, 8006d20 <strpbrk+0x2c>
 8006d0e:	4298      	cmp	r0, r3
 8006d10:	d1fa      	bne.n	8006d08 <strpbrk+0x14>
 8006d12:	7813      	ldrb	r3, [r2, #0]
 8006d14:	2b00      	cmp	r3, #0
 8006d16:	bf14      	ite	ne
 8006d18:	4660      	movne	r0, ip
 8006d1a:	2000      	moveq	r0, #0
 8006d1c:	f85d fb04 	ldr.w	pc, [sp], #4
 8006d20:	f81c 0f01 	ldrb.w	r0, [ip, #1]!
 8006d24:	2800      	cmp	r0, #0
 8006d26:	d1eb      	bne.n	8006d00 <strpbrk+0xc>
 8006d28:	e7f3      	b.n	8006d12 <strpbrk+0x1e>
 8006d2a:	4770      	bx	lr

08006d2c <strspn>:
 8006d2c:	b510      	push	{r4, lr}
 8006d2e:	4604      	mov	r4, r0
 8006d30:	7800      	ldrb	r0, [r0, #0]
 8006d32:	b188      	cbz	r0, 8006d58 <strspn+0x2c>
 8006d34:	468e      	mov	lr, r1
 8006d36:	7809      	ldrb	r1, [r1, #0]
 8006d38:	46a4      	mov	ip, r4
 8006d3a:	b159      	cbz	r1, 8006d54 <strspn+0x28>
 8006d3c:	4672      	mov	r2, lr
 8006d3e:	460b      	mov	r3, r1
 8006d40:	e002      	b.n	8006d48 <strspn+0x1c>
 8006d42:	f812 3f01 	ldrb.w	r3, [r2, #1]!
 8006d46:	b12b      	cbz	r3, 8006d54 <strspn+0x28>
 8006d48:	4283      	cmp	r3, r0
 8006d4a:	d1fa      	bne.n	8006d42 <strspn+0x16>
 8006d4c:	f81c 0f01 	ldrb.w	r0, [ip, #1]!
 8006d50:	2800      	cmp	r0, #0
 8006d52:	d1f2      	bne.n	8006d3a <strspn+0xe>
 8006d54:	ebac 0004 	sub.w	r0, ip, r4
 8006d58:	bd10      	pop	{r4, pc}
 8006d5a:	bf00      	nop

08006d5c <critical_factorization>:
 8006d5c:	2901      	cmp	r1, #1
 8006d5e:	e92d 41f0 	stmdb	sp!, {r4, r5, r6, r7, r8, lr}
 8006d62:	d95b      	bls.n	8006e1c <critical_factorization+0xc0>
 8006d64:	f04f 0801 	mov.w	r8, #1
 8006d68:	46c6      	mov	lr, r8
 8006d6a:	2400      	movs	r4, #0
 8006d6c:	f04f 35ff 	mov.w	r5, #4294967295	; 0xffffffff
 8006d70:	4643      	mov	r3, r8
 8006d72:	e008      	b.n	8006d86 <critical_factorization+0x2a>
 8006d74:	eba3 0805 	sub.w	r8, r3, r5
 8006d78:	461c      	mov	r4, r3
 8006d7a:	f04f 0e01 	mov.w	lr, #1
 8006d7e:	eb04 030e 	add.w	r3, r4, lr
 8006d82:	428b      	cmp	r3, r1
 8006d84:	d210      	bcs.n	8006da8 <critical_factorization+0x4c>
 8006d86:	eb00 0c0e 	add.w	ip, r0, lr
 8006d8a:	5cc7      	ldrb	r7, [r0, r3]
 8006d8c:	f81c 6005 	ldrb.w	r6, [ip, r5]
 8006d90:	42b7      	cmp	r7, r6
 8006d92:	d3ef      	bcc.n	8006d74 <critical_factorization+0x18>
 8006d94:	d032      	beq.n	8006dfc <critical_factorization+0xa0>
 8006d96:	f04f 0801 	mov.w	r8, #1
 8006d9a:	4625      	mov	r5, r4
 8006d9c:	46c6      	mov	lr, r8
 8006d9e:	4444      	add	r4, r8
 8006da0:	eb04 030e 	add.w	r3, r4, lr
 8006da4:	428b      	cmp	r3, r1
 8006da6:	d3ee      	bcc.n	8006d86 <critical_factorization+0x2a>
 8006da8:	2701      	movs	r7, #1
 8006daa:	f8c2 8000 	str.w	r8, [r2]
 8006dae:	46be      	mov	lr, r7
 8006db0:	2400      	movs	r4, #0
 8006db2:	f04f 36ff 	mov.w	r6, #4294967295	; 0xffffffff
 8006db6:	463b      	mov	r3, r7
 8006db8:	e007      	b.n	8006dca <critical_factorization+0x6e>
 8006dba:	1b9f      	subs	r7, r3, r6
 8006dbc:	461c      	mov	r4, r3
 8006dbe:	f04f 0e01 	mov.w	lr, #1
 8006dc2:	eb04 030e 	add.w	r3, r4, lr
 8006dc6:	428b      	cmp	r3, r1
 8006dc8:	d210      	bcs.n	8006dec <critical_factorization+0x90>
 8006dca:	eb00 0c06 	add.w	ip, r0, r6
 8006dce:	f810 8003 	ldrb.w	r8, [r0, r3]
 8006dd2:	f81c c00e 	ldrb.w	ip, [ip, lr]
 8006dd6:	45e0      	cmp	r8, ip
 8006dd8:	d8ef      	bhi.n	8006dba <critical_factorization+0x5e>
 8006dda:	d017      	beq.n	8006e0c <critical_factorization+0xb0>
 8006ddc:	2701      	movs	r7, #1
 8006dde:	4626      	mov	r6, r4
 8006de0:	46be      	mov	lr, r7
 8006de2:	443c      	add	r4, r7
 8006de4:	eb04 030e 	add.w	r3, r4, lr
 8006de8:	428b      	cmp	r3, r1
 8006dea:	d3ee      	bcc.n	8006dca <critical_factorization+0x6e>
 8006dec:	3601      	adds	r6, #1
 8006dee:	1c68      	adds	r0, r5, #1
 8006df0:	4286      	cmp	r6, r0
 8006df2:	d301      	bcc.n	8006df8 <critical_factorization+0x9c>
 8006df4:	6017      	str	r7, [r2, #0]
 8006df6:	4630      	mov	r0, r6
 8006df8:	e8bd 81f0 	ldmia.w	sp!, {r4, r5, r6, r7, r8, pc}
 8006dfc:	45c6      	cmp	lr, r8
 8006dfe:	bf0a      	itet	eq
 8006e00:	4474      	addeq	r4, lr
 8006e02:	f10e 0e01 	addne.w	lr, lr, #1
 8006e06:	f04f 0e01 	moveq.w	lr, #1
 8006e0a:	e7b8      	b.n	8006d7e <critical_factorization+0x22>
 8006e0c:	45be      	cmp	lr, r7
 8006e0e:	bf0a      	itet	eq
 8006e10:	4474      	addeq	r4, lr
 8006e12:	f10e 0e01 	addne.w	lr, lr, #1
 8006e16:	f04f 0e01 	moveq.w	lr, #1
 8006e1a:	e7d2      	b.n	8006dc2 <critical_factorization+0x66>
 8006e1c:	2701      	movs	r7, #1
 8006e1e:	2600      	movs	r6, #0
 8006e20:	e7e8      	b.n	8006df4 <critical_factorization+0x98>
 8006e22:	bf00      	nop

08006e24 <two_way_long_needle>:
 8006e24:	e92d 4ff0 	stmdb	sp!, {r4, r5, r6, r7, r8, r9, sl, fp, lr}
 8006e28:	4692      	mov	sl, r2
 8006e2a:	f2ad 4d1c 	subw	sp, sp, #1052	; 0x41c
 8006e2e:	aa05      	add	r2, sp, #20
 8006e30:	4681      	mov	r9, r0
 8006e32:	460f      	mov	r7, r1
 8006e34:	4650      	mov	r0, sl
 8006e36:	4619      	mov	r1, r3
 8006e38:	461d      	mov	r5, r3
 8006e3a:	f7ff ff8f 	bl	8006d5c <critical_factorization>
 8006e3e:	4613      	mov	r3, r2
 8006e40:	4683      	mov	fp, r0
 8006e42:	f20d 4214 	addw	r2, sp, #1044	; 0x414
 8006e46:	f843 5f04 	str.w	r5, [r3, #4]!
 8006e4a:	4293      	cmp	r3, r2
 8006e4c:	d1fb      	bne.n	8006e46 <two_way_long_needle+0x22>
 8006e4e:	2d00      	cmp	r5, #0
 8006e50:	f000 80e0 	beq.w	8007014 <two_way_long_needle+0x1f0>
 8006e54:	1e6c      	subs	r4, r5, #1
 8006e56:	ae06      	add	r6, sp, #24
 8006e58:	f10a 32ff 	add.w	r2, sl, #4294967295	; 0xffffffff
 8006e5c:	eb0a 0004 	add.w	r0, sl, r4
 8006e60:	9600      	str	r6, [sp, #0]
 8006e62:	f812 1f01 	ldrb.w	r1, [r2, #1]!
 8006e66:	1aab      	subs	r3, r5, r2
 8006e68:	3b01      	subs	r3, #1
 8006e6a:	4453      	add	r3, sl
 8006e6c:	4282      	cmp	r2, r0
 8006e6e:	f846 3021 	str.w	r3, [r6, r1, lsl #2]
 8006e72:	d1f6      	bne.n	8006e62 <two_way_long_needle+0x3e>
 8006e74:	9905      	ldr	r1, [sp, #20]
 8006e76:	465a      	mov	r2, fp
 8006e78:	4451      	add	r1, sl
 8006e7a:	4650      	mov	r0, sl
 8006e7c:	f000 f984 	bl	8007188 <memcmp>
 8006e80:	2800      	cmp	r0, #0
 8006e82:	d16f      	bne.n	8006f64 <two_way_long_needle+0x140>
 8006e84:	f10b 33ff 	add.w	r3, fp, #4294967295	; 0xffffffff
 8006e88:	9303      	str	r3, [sp, #12]
 8006e8a:	f1cb 0301 	rsb	r3, fp, #1
 8006e8e:	4680      	mov	r8, r0
 8006e90:	4606      	mov	r6, r0
 8006e92:	9301      	str	r3, [sp, #4]
 8006e94:	eb09 0e06 	add.w	lr, r9, r6
 8006e98:	9a00      	ldr	r2, [sp, #0]
 8006e9a:	f81e 3004 	ldrb.w	r3, [lr, r4]
 8006e9e:	f852 3023 	ldr.w	r3, [r2, r3, lsl #2]
 8006ea2:	b1db      	cbz	r3, 8006edc <two_way_long_needle+0xb8>
 8006ea4:	f1b8 0f00 	cmp.w	r8, #0
 8006ea8:	d003      	beq.n	8006eb2 <two_way_long_needle+0x8e>
 8006eaa:	9a05      	ldr	r2, [sp, #20]
 8006eac:	429a      	cmp	r2, r3
 8006eae:	d900      	bls.n	8006eb2 <two_way_long_needle+0x8e>
 8006eb0:	1aab      	subs	r3, r5, r2
 8006eb2:	441e      	add	r6, r3
 8006eb4:	f04f 0800 	mov.w	r8, #0
 8006eb8:	1b7b      	subs	r3, r7, r5
 8006eba:	429e      	cmp	r6, r3
 8006ebc:	d9ea      	bls.n	8006e94 <two_way_long_needle+0x70>
 8006ebe:	eb09 0007 	add.w	r0, r9, r7
 8006ec2:	f445 6100 	orr.w	r1, r5, #2048	; 0x800
 8006ec6:	f000 f9f7 	bl	80072b8 <strnlen>
 8006eca:	4407      	add	r7, r0
 8006ecc:	1b7b      	subs	r3, r7, r5
 8006ece:	429e      	cmp	r6, r3
 8006ed0:	d9e0      	bls.n	8006e94 <two_way_long_needle+0x70>
 8006ed2:	2000      	movs	r0, #0
 8006ed4:	f20d 4d1c 	addw	sp, sp, #1052	; 0x41c
 8006ed8:	e8bd 8ff0 	ldmia.w	sp!, {r4, r5, r6, r7, r8, r9, sl, fp, pc}
 8006edc:	45c3      	cmp	fp, r8
 8006ede:	465b      	mov	r3, fp
 8006ee0:	bf38      	it	cc
 8006ee2:	4643      	movcc	r3, r8
 8006ee4:	42a3      	cmp	r3, r4
 8006ee6:	d210      	bcs.n	8006f0a <two_way_long_needle+0xe6>
 8006ee8:	1e59      	subs	r1, r3, #1
 8006eea:	18f2      	adds	r2, r6, r3
 8006eec:	4451      	add	r1, sl
 8006eee:	444a      	add	r2, r9
 8006ef0:	e002      	b.n	8006ef8 <two_way_long_needle+0xd4>
 8006ef2:	3301      	adds	r3, #1
 8006ef4:	42a3      	cmp	r3, r4
 8006ef6:	d208      	bcs.n	8006f0a <two_way_long_needle+0xe6>
 8006ef8:	f812 0b01 	ldrb.w	r0, [r2], #1
 8006efc:	f811 cf01 	ldrb.w	ip, [r1, #1]!
 8006f00:	4584      	cmp	ip, r0
 8006f02:	d0f6      	beq.n	8006ef2 <two_way_long_needle+0xce>
 8006f04:	9a01      	ldr	r2, [sp, #4]
 8006f06:	4416      	add	r6, r2
 8006f08:	e7d3      	b.n	8006eb2 <two_way_long_needle+0x8e>
 8006f0a:	45c3      	cmp	fp, r8
 8006f0c:	9b03      	ldr	r3, [sp, #12]
 8006f0e:	d97a      	bls.n	8007006 <two_way_long_needle+0x1e2>
 8006f10:	eb06 020b 	add.w	r2, r6, fp
 8006f14:	444a      	add	r2, r9
 8006f16:	eb0a 010b 	add.w	r1, sl, fp
 8006f1a:	9602      	str	r6, [sp, #8]
 8006f1c:	e002      	b.n	8006f24 <two_way_long_needle+0x100>
 8006f1e:	4543      	cmp	r3, r8
 8006f20:	d015      	beq.n	8006f4e <two_way_long_needle+0x12a>
 8006f22:	4603      	mov	r3, r0
 8006f24:	f812 0d01 	ldrb.w	r0, [r2, #-1]!
 8006f28:	f811 6d01 	ldrb.w	r6, [r1, #-1]!
 8006f2c:	4286      	cmp	r6, r0
 8006f2e:	f103 0c01 	add.w	ip, r3, #1
 8006f32:	f103 30ff 	add.w	r0, r3, #4294967295	; 0xffffffff
 8006f36:	d0f2      	beq.n	8006f1e <two_way_long_needle+0xfa>
 8006f38:	9e02      	ldr	r6, [sp, #8]
 8006f3a:	4663      	mov	r3, ip
 8006f3c:	f108 0801 	add.w	r8, r8, #1
 8006f40:	4598      	cmp	r8, r3
 8006f42:	d80a      	bhi.n	8006f5a <two_way_long_needle+0x136>
 8006f44:	9b05      	ldr	r3, [sp, #20]
 8006f46:	441e      	add	r6, r3
 8006f48:	eba5 0803 	sub.w	r8, r5, r3
 8006f4c:	e7b4      	b.n	8006eb8 <two_way_long_needle+0x94>
 8006f4e:	4643      	mov	r3, r8
 8006f50:	f108 0801 	add.w	r8, r8, #1
 8006f54:	4598      	cmp	r8, r3
 8006f56:	9e02      	ldr	r6, [sp, #8]
 8006f58:	d9f4      	bls.n	8006f44 <two_way_long_needle+0x120>
 8006f5a:	4670      	mov	r0, lr
 8006f5c:	f20d 4d1c 	addw	sp, sp, #1052	; 0x41c
 8006f60:	e8bd 8ff0 	ldmia.w	sp!, {r4, r5, r6, r7, r8, r9, sl, fp, pc}
 8006f64:	eba5 030b 	sub.w	r3, r5, fp
 8006f68:	455b      	cmp	r3, fp
 8006f6a:	bf38      	it	cc
 8006f6c:	465b      	movcc	r3, fp
 8006f6e:	3301      	adds	r3, #1
 8006f70:	9305      	str	r3, [sp, #20]
 8006f72:	f10b 33ff 	add.w	r3, fp, #4294967295	; 0xffffffff
 8006f76:	9301      	str	r3, [sp, #4]
 8006f78:	f1cb 0301 	rsb	r3, fp, #1
 8006f7c:	2600      	movs	r6, #0
 8006f7e:	9302      	str	r3, [sp, #8]
 8006f80:	f445 6800 	orr.w	r8, r5, #2048	; 0x800
 8006f84:	eb09 0e06 	add.w	lr, r9, r6
 8006f88:	9a00      	ldr	r2, [sp, #0]
 8006f8a:	f81e 3004 	ldrb.w	r3, [lr, r4]
 8006f8e:	f852 3023 	ldr.w	r3, [r2, r3, lsl #2]
 8006f92:	b16b      	cbz	r3, 8006fb0 <two_way_long_needle+0x18c>
 8006f94:	441e      	add	r6, r3
 8006f96:	1b7b      	subs	r3, r7, r5
 8006f98:	42b3      	cmp	r3, r6
 8006f9a:	d2f3      	bcs.n	8006f84 <two_way_long_needle+0x160>
 8006f9c:	eb09 0007 	add.w	r0, r9, r7
 8006fa0:	4641      	mov	r1, r8
 8006fa2:	f000 f989 	bl	80072b8 <strnlen>
 8006fa6:	4407      	add	r7, r0
 8006fa8:	1b7b      	subs	r3, r7, r5
 8006faa:	42b3      	cmp	r3, r6
 8006fac:	d2ea      	bcs.n	8006f84 <two_way_long_needle+0x160>
 8006fae:	e790      	b.n	8006ed2 <two_way_long_needle+0xae>
 8006fb0:	45a3      	cmp	fp, r4
 8006fb2:	d214      	bcs.n	8006fde <two_way_long_needle+0x1ba>
 8006fb4:	9b01      	ldr	r3, [sp, #4]
 8006fb6:	eb0b 0206 	add.w	r2, fp, r6
 8006fba:	eb0a 0103 	add.w	r1, sl, r3
 8006fbe:	444a      	add	r2, r9
 8006fc0:	465b      	mov	r3, fp
 8006fc2:	e002      	b.n	8006fca <two_way_long_needle+0x1a6>
 8006fc4:	3301      	adds	r3, #1
 8006fc6:	42a3      	cmp	r3, r4
 8006fc8:	d209      	bcs.n	8006fde <two_way_long_needle+0x1ba>
 8006fca:	f812 0b01 	ldrb.w	r0, [r2], #1
 8006fce:	f811 cf01 	ldrb.w	ip, [r1, #1]!
 8006fd2:	4584      	cmp	ip, r0
 8006fd4:	d0f6      	beq.n	8006fc4 <two_way_long_needle+0x1a0>
 8006fd6:	9a02      	ldr	r2, [sp, #8]
 8006fd8:	4416      	add	r6, r2
 8006fda:	441e      	add	r6, r3
 8006fdc:	e7db      	b.n	8006f96 <two_way_long_needle+0x172>
 8006fde:	f1bb 0f00 	cmp.w	fp, #0
 8006fe2:	d012      	beq.n	800700a <two_way_long_needle+0x1e6>
 8006fe4:	eb0b 0106 	add.w	r1, fp, r6
 8006fe8:	4449      	add	r1, r9
 8006fea:	eb0a 020b 	add.w	r2, sl, fp
 8006fee:	e001      	b.n	8006ff4 <two_way_long_needle+0x1d0>
 8006ff0:	4553      	cmp	r3, sl
 8006ff2:	d00a      	beq.n	800700a <two_way_long_needle+0x1e6>
 8006ff4:	f812 cd01 	ldrb.w	ip, [r2, #-1]!
 8006ff8:	f811 0d01 	ldrb.w	r0, [r1, #-1]!
 8006ffc:	4584      	cmp	ip, r0
 8006ffe:	4613      	mov	r3, r2
 8007000:	d0f6      	beq.n	8006ff0 <two_way_long_needle+0x1cc>
 8007002:	9b05      	ldr	r3, [sp, #20]
 8007004:	e7c6      	b.n	8006f94 <two_way_long_needle+0x170>
 8007006:	465b      	mov	r3, fp
 8007008:	e798      	b.n	8006f3c <two_way_long_needle+0x118>
 800700a:	4670      	mov	r0, lr
 800700c:	f20d 4d1c 	addw	sp, sp, #1052	; 0x41c
 8007010:	e8bd 8ff0 	ldmia.w	sp!, {r4, r5, r6, r7, r8, r9, sl, fp, pc}
 8007014:	ab06      	add	r3, sp, #24
 8007016:	f04f 34ff 	mov.w	r4, #4294967295	; 0xffffffff
 800701a:	9300      	str	r3, [sp, #0]
 800701c:	e72a      	b.n	8006e74 <two_way_long_needle+0x50>
 800701e:	bf00      	nop

08007020 <strstr>:
 8007020:	e92d 41f0 	stmdb	sp!, {r4, r5, r6, r7, r8, lr}
 8007024:	460d      	mov	r5, r1
 8007026:	7809      	ldrb	r1, [r1, #0]
 8007028:	b090      	sub	sp, #64	; 0x40
 800702a:	4604      	mov	r4, r0
 800702c:	2900      	cmp	r1, #0
 800702e:	d054      	beq.n	80070da <strstr+0xba>
 8007030:	786a      	ldrb	r2, [r5, #1]
 8007032:	2a00      	cmp	r2, #0
 8007034:	f000 8083 	beq.w	800713e <strstr+0x11e>
 8007038:	78ab      	ldrb	r3, [r5, #2]
 800703a:	2b00      	cmp	r3, #0
 800703c:	d051      	beq.n	80070e2 <strstr+0xc2>
 800703e:	78e8      	ldrb	r0, [r5, #3]
 8007040:	682e      	ldr	r6, [r5, #0]
 8007042:	2800      	cmp	r0, #0
 8007044:	f000 8082 	beq.w	800714c <strstr+0x12c>
 8007048:	792b      	ldrb	r3, [r5, #4]
 800704a:	2b00      	cmp	r3, #0
 800704c:	d057      	beq.n	80070fe <strstr+0xde>
 800704e:	4628      	mov	r0, r5
 8007050:	f7f9 fb76 	bl	8000740 <strlen>
 8007054:	4606      	mov	r6, r0
 8007056:	f440 7100 	orr.w	r1, r0, #512	; 0x200
 800705a:	4620      	mov	r0, r4
 800705c:	f000 f92c 	bl	80072b8 <strnlen>
 8007060:	4286      	cmp	r6, r0
 8007062:	d85b      	bhi.n	800711c <strstr+0xfc>
 8007064:	2efe      	cmp	r6, #254	; 0xfe
 8007066:	f200 8086 	bhi.w	8007176 <strstr+0x156>
 800706a:	1b80      	subs	r0, r0, r6
 800706c:	1827      	adds	r7, r4, r0
 800706e:	2240      	movs	r2, #64	; 0x40
 8007070:	1c71      	adds	r1, r6, #1
 8007072:	4668      	mov	r0, sp
 8007074:	f7ff fdec 	bl	8006c50 <memset>
 8007078:	b17e      	cbz	r6, 800709a <strstr+0x7a>
 800707a:	1e6a      	subs	r2, r5, #1
 800707c:	fa5f fc86 	uxtb.w	ip, r6
 8007080:	1990      	adds	r0, r2, r6
 8007082:	f812 3f01 	ldrb.w	r3, [r2, #1]!
 8007086:	f003 033f 	and.w	r3, r3, #63	; 0x3f
 800708a:	3340      	adds	r3, #64	; 0x40
 800708c:	446b      	add	r3, sp
 800708e:	1aa9      	subs	r1, r5, r2
 8007090:	4461      	add	r1, ip
 8007092:	4282      	cmp	r2, r0
 8007094:	f803 1c40 	strb.w	r1, [r3, #-64]
 8007098:	d1f3      	bne.n	8007082 <strstr+0x62>
 800709a:	3c01      	subs	r4, #1
 800709c:	5da3      	ldrb	r3, [r4, r6]
 800709e:	f003 033f 	and.w	r3, r3, #63	; 0x3f
 80070a2:	3340      	adds	r3, #64	; 0x40
 80070a4:	446b      	add	r3, sp
 80070a6:	f813 3c40 	ldrb.w	r3, [r3, #-64]
 80070aa:	441c      	add	r4, r3
 80070ac:	42a7      	cmp	r7, r4
 80070ae:	d203      	bcs.n	80070b8 <strstr+0x98>
 80070b0:	e039      	b.n	8007126 <strstr+0x106>
 80070b2:	4444      	add	r4, r8
 80070b4:	42a7      	cmp	r7, r4
 80070b6:	d336      	bcc.n	8007126 <strstr+0x106>
 80070b8:	f814 c006 	ldrb.w	ip, [r4, r6]
 80070bc:	f00c 0c3f 	and.w	ip, ip, #63	; 0x3f
 80070c0:	f10c 0340 	add.w	r3, ip, #64	; 0x40
 80070c4:	eb0d 0c03 	add.w	ip, sp, r3
 80070c8:	4620      	mov	r0, r4
 80070ca:	4632      	mov	r2, r6
 80070cc:	4629      	mov	r1, r5
 80070ce:	f81c 8c40 	ldrb.w	r8, [ip, #-64]
 80070d2:	f000 f859 	bl	8007188 <memcmp>
 80070d6:	2800      	cmp	r0, #0
 80070d8:	d1eb      	bne.n	80070b2 <strstr+0x92>
 80070da:	4620      	mov	r0, r4
 80070dc:	b010      	add	sp, #64	; 0x40
 80070de:	e8bd 81f0 	ldmia.w	sp!, {r4, r5, r6, r7, r8, pc}
 80070e2:	7800      	ldrb	r0, [r0, #0]
 80070e4:	ea42 4201 	orr.w	r2, r2, r1, lsl #16
 80070e8:	e000      	b.n	80070ec <strstr+0xcc>
 80070ea:	460c      	mov	r4, r1
 80070ec:	ea40 4303 	orr.w	r3, r0, r3, lsl #16
 80070f0:	1c61      	adds	r1, r4, #1
 80070f2:	b198      	cbz	r0, 800711c <strstr+0xfc>
 80070f4:	429a      	cmp	r2, r3
 80070f6:	7860      	ldrb	r0, [r4, #1]
 80070f8:	d1f7      	bne.n	80070ea <strstr+0xca>
 80070fa:	3c01      	subs	r4, #1
 80070fc:	e7ed      	b.n	80070da <strstr+0xba>
 80070fe:	7822      	ldrb	r2, [r4, #0]
 8007100:	b162      	cbz	r2, 800711c <strstr+0xfc>
 8007102:	ba31      	rev	r1, r6
 8007104:	e001      	b.n	800710a <strstr+0xea>
 8007106:	4299      	cmp	r1, r3
 8007108:	d01e      	beq.n	8007148 <strstr+0x128>
 800710a:	ea42 2303 	orr.w	r3, r2, r3, lsl #8
 800710e:	4620      	mov	r0, r4
 8007110:	f814 2f01 	ldrb.w	r2, [r4, #1]!
 8007114:	2a00      	cmp	r2, #0
 8007116:	d1f6      	bne.n	8007106 <strstr+0xe6>
 8007118:	4299      	cmp	r1, r3
 800711a:	d015      	beq.n	8007148 <strstr+0x128>
 800711c:	2400      	movs	r4, #0
 800711e:	4620      	mov	r0, r4
 8007120:	b010      	add	sp, #64	; 0x40
 8007122:	e8bd 81f0 	ldmia.w	sp!, {r4, r5, r6, r7, r8, pc}
 8007126:	5dbb      	ldrb	r3, [r7, r6]
 8007128:	19b8      	adds	r0, r7, r6
 800712a:	2b00      	cmp	r3, #0
 800712c:	d0f6      	beq.n	800711c <strstr+0xfc>
 800712e:	f44f 6100 	mov.w	r1, #2048	; 0x800
 8007132:	f000 f8c1 	bl	80072b8 <strnlen>
 8007136:	4407      	add	r7, r0
 8007138:	42bc      	cmp	r4, r7
 800713a:	d9ae      	bls.n	800709a <strstr+0x7a>
 800713c:	e7ee      	b.n	800711c <strstr+0xfc>
 800713e:	b010      	add	sp, #64	; 0x40
 8007140:	e8bd 41f0 	ldmia.w	sp!, {r4, r5, r6, r7, r8, lr}
 8007144:	f000 b852 	b.w	80071ec <strchr>
 8007148:	1ec4      	subs	r4, r0, #3
 800714a:	e7c6      	b.n	80070da <strstr+0xba>
 800714c:	0412      	lsls	r2, r2, #16
 800714e:	ea42 6201 	orr.w	r2, r2, r1, lsl #24
 8007152:	ea42 2303 	orr.w	r3, r2, r3, lsl #8
 8007156:	7821      	ldrb	r1, [r4, #0]
 8007158:	4602      	mov	r2, r0
 800715a:	e000      	b.n	800715e <strstr+0x13e>
 800715c:	462c      	mov	r4, r5
 800715e:	ea41 0002 	orr.w	r0, r1, r2
 8007162:	1c65      	adds	r5, r4, #1
 8007164:	0202      	lsls	r2, r0, #8
 8007166:	2900      	cmp	r1, #0
 8007168:	d0d8      	beq.n	800711c <strstr+0xfc>
 800716a:	ebb3 2f00 	cmp.w	r3, r0, lsl #8
 800716e:	7861      	ldrb	r1, [r4, #1]
 8007170:	d1f4      	bne.n	800715c <strstr+0x13c>
 8007172:	3c02      	subs	r4, #2
 8007174:	e7b1      	b.n	80070da <strstr+0xba>
 8007176:	4601      	mov	r1, r0
 8007178:	4633      	mov	r3, r6
 800717a:	462a      	mov	r2, r5
 800717c:	4620      	mov	r0, r4
 800717e:	b010      	add	sp, #64	; 0x40
 8007180:	e8bd 41f0 	ldmia.w	sp!, {r4, r5, r6, r7, r8, lr}
 8007184:	f7ff be4e 	b.w	8006e24 <two_way_long_needle>

08007188 <memcmp>:
 8007188:	2a03      	cmp	r2, #3
 800718a:	b510      	push	{r4, lr}
 800718c:	d916      	bls.n	80071bc <memcmp+0x34>
 800718e:	ea40 0301 	orr.w	r3, r0, r1
 8007192:	079b      	lsls	r3, r3, #30
 8007194:	d124      	bne.n	80071e0 <memcmp+0x58>
 8007196:	4604      	mov	r4, r0
 8007198:	460b      	mov	r3, r1
 800719a:	4619      	mov	r1, r3
 800719c:	4620      	mov	r0, r4
 800719e:	f8d1 e000 	ldr.w	lr, [r1]
 80071a2:	f8d0 c000 	ldr.w	ip, [r0]
 80071a6:	45f4      	cmp	ip, lr
 80071a8:	f104 0404 	add.w	r4, r4, #4
 80071ac:	f103 0304 	add.w	r3, r3, #4
 80071b0:	d116      	bne.n	80071e0 <memcmp+0x58>
 80071b2:	3a04      	subs	r2, #4
 80071b4:	2a03      	cmp	r2, #3
 80071b6:	4620      	mov	r0, r4
 80071b8:	4619      	mov	r1, r3
 80071ba:	d8ee      	bhi.n	800719a <memcmp+0x12>
 80071bc:	1e54      	subs	r4, r2, #1
 80071be:	b19a      	cbz	r2, 80071e8 <memcmp+0x60>
 80071c0:	1e42      	subs	r2, r0, #1
 80071c2:	3901      	subs	r1, #1
 80071c4:	e001      	b.n	80071ca <memcmp+0x42>
 80071c6:	18c3      	adds	r3, r0, r3
 80071c8:	d00c      	beq.n	80071e4 <memcmp+0x5c>
 80071ca:	f812 ef01 	ldrb.w	lr, [r2, #1]!
 80071ce:	f811 cf01 	ldrb.w	ip, [r1, #1]!
 80071d2:	45e6      	cmp	lr, ip
 80071d4:	eba4 0302 	sub.w	r3, r4, r2
 80071d8:	d0f5      	beq.n	80071c6 <memcmp+0x3e>
 80071da:	ebae 000c 	sub.w	r0, lr, ip
 80071de:	bd10      	pop	{r4, pc}
 80071e0:	1e54      	subs	r4, r2, #1
 80071e2:	e7ed      	b.n	80071c0 <memcmp+0x38>
 80071e4:	4618      	mov	r0, r3
 80071e6:	bd10      	pop	{r4, pc}
 80071e8:	4610      	mov	r0, r2
 80071ea:	bd10      	pop	{r4, pc}

080071ec <strchr>:
 80071ec:	f011 01ff 	ands.w	r1, r1, #255	; 0xff
 80071f0:	4603      	mov	r3, r0
 80071f2:	d044      	beq.n	800727e <strchr+0x92>
 80071f4:	0782      	lsls	r2, r0, #30
 80071f6:	d132      	bne.n	800725e <strchr+0x72>
 80071f8:	b510      	push	{r4, lr}
 80071fa:	6804      	ldr	r4, [r0, #0]
 80071fc:	ea41 2e01 	orr.w	lr, r1, r1, lsl #8
 8007200:	ea4e 4e0e 	orr.w	lr, lr, lr, lsl #16
 8007204:	ea8e 0204 	eor.w	r2, lr, r4
 8007208:	f1a2 3301 	sub.w	r3, r2, #16843009	; 0x1010101
 800720c:	ea23 0302 	bic.w	r3, r3, r2
 8007210:	f1a4 3201 	sub.w	r2, r4, #16843009	; 0x1010101
 8007214:	ea22 0204 	bic.w	r2, r2, r4
 8007218:	4313      	orrs	r3, r2
 800721a:	f013 3f80 	tst.w	r3, #2155905152	; 0x80808080
 800721e:	d10f      	bne.n	8007240 <strchr+0x54>
 8007220:	f850 4f04 	ldr.w	r4, [r0, #4]!
 8007224:	ea84 0c0e 	eor.w	ip, r4, lr
 8007228:	f1a4 3301 	sub.w	r3, r4, #16843009	; 0x1010101
 800722c:	f1ac 3201 	sub.w	r2, ip, #16843009	; 0x1010101
 8007230:	ea23 0304 	bic.w	r3, r3, r4
 8007234:	ea22 020c 	bic.w	r2, r2, ip
 8007238:	4313      	orrs	r3, r2
 800723a:	f013 3f80 	tst.w	r3, #2155905152	; 0x80808080
 800723e:	d0ef      	beq.n	8007220 <strchr+0x34>
 8007240:	7803      	ldrb	r3, [r0, #0]
 8007242:	b923      	cbnz	r3, 800724e <strchr+0x62>
 8007244:	e036      	b.n	80072b4 <strchr+0xc8>
 8007246:	f810 3f01 	ldrb.w	r3, [r0, #1]!
 800724a:	2b00      	cmp	r3, #0
 800724c:	d032      	beq.n	80072b4 <strchr+0xc8>
 800724e:	4299      	cmp	r1, r3
 8007250:	d1f9      	bne.n	8007246 <strchr+0x5a>
 8007252:	bd10      	pop	{r4, pc}
 8007254:	428a      	cmp	r2, r1
 8007256:	d011      	beq.n	800727c <strchr+0x90>
 8007258:	079a      	lsls	r2, r3, #30
 800725a:	4618      	mov	r0, r3
 800725c:	d0cc      	beq.n	80071f8 <strchr+0xc>
 800725e:	4618      	mov	r0, r3
 8007260:	f813 2b01 	ldrb.w	r2, [r3], #1
 8007264:	2a00      	cmp	r2, #0
 8007266:	d1f5      	bne.n	8007254 <strchr+0x68>
 8007268:	4610      	mov	r0, r2
 800726a:	4770      	bx	lr
 800726c:	0799      	lsls	r1, r3, #30
 800726e:	4618      	mov	r0, r3
 8007270:	d007      	beq.n	8007282 <strchr+0x96>
 8007272:	4618      	mov	r0, r3
 8007274:	3301      	adds	r3, #1
 8007276:	7802      	ldrb	r2, [r0, #0]
 8007278:	2a00      	cmp	r2, #0
 800727a:	d1f7      	bne.n	800726c <strchr+0x80>
 800727c:	4770      	bx	lr
 800727e:	0782      	lsls	r2, r0, #30
 8007280:	d1f7      	bne.n	8007272 <strchr+0x86>
 8007282:	6802      	ldr	r2, [r0, #0]
 8007284:	f1a2 3301 	sub.w	r3, r2, #16843009	; 0x1010101
 8007288:	ea23 0302 	bic.w	r3, r3, r2
 800728c:	f013 3f80 	tst.w	r3, #2155905152	; 0x80808080
 8007290:	d108      	bne.n	80072a4 <strchr+0xb8>
 8007292:	f850 2f04 	ldr.w	r2, [r0, #4]!
 8007296:	f1a2 3301 	sub.w	r3, r2, #16843009	; 0x1010101
 800729a:	ea23 0302 	bic.w	r3, r3, r2
 800729e:	f013 3f80 	tst.w	r3, #2155905152	; 0x80808080
 80072a2:	d0f6      	beq.n	8007292 <strchr+0xa6>
 80072a4:	7803      	ldrb	r3, [r0, #0]
 80072a6:	2b00      	cmp	r3, #0
 80072a8:	d0e8      	beq.n	800727c <strchr+0x90>
 80072aa:	f810 3f01 	ldrb.w	r3, [r0, #1]!
 80072ae:	2b00      	cmp	r3, #0
 80072b0:	d1fb      	bne.n	80072aa <strchr+0xbe>
 80072b2:	4770      	bx	lr
 80072b4:	4618      	mov	r0, r3
 80072b6:	bd10      	pop	{r4, pc}

080072b8 <strnlen>:
 80072b8:	b171      	cbz	r1, 80072d8 <strnlen+0x20>
 80072ba:	4603      	mov	r3, r0
 80072bc:	eb00 0c01 	add.w	ip, r0, r1
 80072c0:	e001      	b.n	80072c6 <strnlen+0xe>
 80072c2:	4563      	cmp	r3, ip
 80072c4:	d006      	beq.n	80072d4 <strnlen+0x1c>
 80072c6:	461a      	mov	r2, r3
 80072c8:	3301      	adds	r3, #1
 80072ca:	7811      	ldrb	r1, [r2, #0]
 80072cc:	2900      	cmp	r1, #0
 80072ce:	d1f8      	bne.n	80072c2 <strnlen+0xa>
 80072d0:	1a10      	subs	r0, r2, r0
 80072d2:	4770      	bx	lr
 80072d4:	1a18      	subs	r0, r3, r0
 80072d6:	4770      	bx	lr
 80072d8:	4608      	mov	r0, r1
 80072da:	4770      	bx	lr
